Archive member included because of file (symbol)

/opt/altera/13.0sp1/nios2eds/bin/gnu/H-i686-pc-linux-gnu/bin/../lib/gcc/nios2-elf/4.1.2/mno-hw-mul/libgcc.a(_addsub_df.o)
                              obj/default/src/image_bare.o (__adddf3)
/opt/altera/13.0sp1/nios2eds/bin/gnu/H-i686-pc-linux-gnu/bin/../lib/gcc/nios2-elf/4.1.2/mno-hw-mul/libgcc.a(_mul_df.o)
                              obj/default/src/image_bare.o (__muldf3)
/opt/altera/13.0sp1/nios2eds/bin/gnu/H-i686-pc-linux-gnu/bin/../lib/gcc/nios2-elf/4.1.2/mno-hw-mul/libgcc.a(_si_to_df.o)
                              obj/default/src/image_bare.o (__floatsidf)
/opt/altera/13.0sp1/nios2eds/bin/gnu/H-i686-pc-linux-gnu/bin/../lib/gcc/nios2-elf/4.1.2/mno-hw-mul/libgcc.a(_df_to_sf.o)
                              obj/default/src/image_bare.o (__truncdfsf2)
/opt/altera/13.0sp1/nios2eds/bin/gnu/H-i686-pc-linux-gnu/bin/../lib/gcc/nios2-elf/4.1.2/mno-hw-mul/libgcc.a(_thenan_df.o)
                              /opt/altera/13.0sp1/nios2eds/bin/gnu/H-i686-pc-linux-gnu/bin/../lib/gcc/nios2-elf/4.1.2/mno-hw-mul/libgcc.a(_addsub_df.o) (__thenan_df)
/opt/altera/13.0sp1/nios2eds/bin/gnu/H-i686-pc-linux-gnu/bin/../lib/gcc/nios2-elf/4.1.2/mno-hw-mul/libgcc.a(lib2-divmod.o)
                              obj/default/src/image_bare.o (__divsi3)
/opt/altera/13.0sp1/nios2eds/bin/gnu/H-i686-pc-linux-gnu/bin/../lib/gcc/nios2-elf/4.1.2/mno-hw-mul/libgcc.a(lib2-mul.o)
                              obj/default/src/image_bare.o (__mulsi3)
/opt/altera/13.0sp1/nios2eds/bin/gnu/H-i686-pc-linux-gnu/bin/../lib/gcc/nios2-elf/4.1.2/mno-hw-mul/libgcc.a(_muldi3.o)
                              /opt/altera/13.0sp1/nios2eds/bin/gnu/H-i686-pc-linux-gnu/bin/../lib/gcc/nios2-elf/4.1.2/mno-hw-mul/libgcc.a(_mul_df.o) (__muldi3)
/opt/altera/13.0sp1/nios2eds/bin/gnu/H-i686-pc-linux-gnu/bin/../lib/gcc/nios2-elf/4.1.2/mno-hw-mul/libgcc.a(_clzsi2.o)
                              /opt/altera/13.0sp1/nios2eds/bin/gnu/H-i686-pc-linux-gnu/bin/../lib/gcc/nios2-elf/4.1.2/mno-hw-mul/libgcc.a(_si_to_df.o) (__clzsi2)
/opt/altera/13.0sp1/nios2eds/bin/gnu/H-i686-pc-linux-gnu/bin/../lib/gcc/nios2-elf/4.1.2/mno-hw-mul/libgcc.a(_make_sf.o)
                              /opt/altera/13.0sp1/nios2eds/bin/gnu/H-i686-pc-linux-gnu/bin/../lib/gcc/nios2-elf/4.1.2/mno-hw-mul/libgcc.a(_df_to_sf.o) (__make_fp)
/opt/altera/13.0sp1/nios2eds/bin/gnu/H-i686-pc-linux-gnu/bin/../lib/gcc/nios2-elf/4.1.2/mno-hw-mul/libgcc.a(_pack_df.o)
                              /opt/altera/13.0sp1/nios2eds/bin/gnu/H-i686-pc-linux-gnu/bin/../lib/gcc/nios2-elf/4.1.2/mno-hw-mul/libgcc.a(_addsub_df.o) (__pack_d)
/opt/altera/13.0sp1/nios2eds/bin/gnu/H-i686-pc-linux-gnu/bin/../lib/gcc/nios2-elf/4.1.2/mno-hw-mul/libgcc.a(_unpack_df.o)
                              /opt/altera/13.0sp1/nios2eds/bin/gnu/H-i686-pc-linux-gnu/bin/../lib/gcc/nios2-elf/4.1.2/mno-hw-mul/libgcc.a(_addsub_df.o) (__unpack_d)
/opt/altera/13.0sp1/nios2eds/bin/gnu/H-i686-pc-linux-gnu/bin/../lib/gcc/nios2-elf/4.1.2/mno-hw-mul/libgcc.a(_clz.o)
                              /opt/altera/13.0sp1/nios2eds/bin/gnu/H-i686-pc-linux-gnu/bin/../lib/gcc/nios2-elf/4.1.2/mno-hw-mul/libgcc.a(_clzsi2.o) (__clz_tab)
/opt/altera/13.0sp1/nios2eds/bin/gnu/H-i686-pc-linux-gnu/bin/../lib/gcc/nios2-elf/4.1.2/mno-hw-mul/libgcc.a(_pack_sf.o)
                              /opt/altera/13.0sp1/nios2eds/bin/gnu/H-i686-pc-linux-gnu/bin/../lib/gcc/nios2-elf/4.1.2/mno-hw-mul/libgcc.a(_make_sf.o) (__pack_f)
/opt/altera/13.0sp1/nios2eds/bin/gnu/H-i686-pc-linux-gnu/bin/../lib/gcc/nios2-elf/4.1.2/../../../../nios2-elf/lib/mno-hw-mul/libc.a(lib_a-malloc.o)
                              obj/default/src/image_bare.o (malloc)
/opt/altera/13.0sp1/nios2eds/bin/gnu/H-i686-pc-linux-gnu/bin/../lib/gcc/nios2-elf/4.1.2/../../../../nios2-elf/lib/mno-hw-mul/libc.a(lib_a-mallocr.o)
                              /opt/altera/13.0sp1/nios2eds/bin/gnu/H-i686-pc-linux-gnu/bin/../lib/gcc/nios2-elf/4.1.2/../../../../nios2-elf/lib/mno-hw-mul/libc.a(lib_a-malloc.o) (_malloc_r)
/opt/altera/13.0sp1/nios2eds/bin/gnu/H-i686-pc-linux-gnu/bin/../lib/gcc/nios2-elf/4.1.2/../../../../nios2-elf/lib/mno-hw-mul/libc.a(lib_a-memcpy.o)
                              obj/default/src/image_bare.o (memcpy)
/opt/altera/13.0sp1/nios2eds/bin/gnu/H-i686-pc-linux-gnu/bin/../lib/gcc/nios2-elf/4.1.2/../../../../nios2-elf/lib/mno-hw-mul/libc.a(lib_a-putchar.o)
                              obj/default/src/image_bare.o (putchar)
/opt/altera/13.0sp1/nios2eds/bin/gnu/H-i686-pc-linux-gnu/bin/../lib/gcc/nios2-elf/4.1.2/../../../../nios2-elf/lib/mno-hw-mul/libc.a(lib_a-puts.o)
                              obj/default/src/image_bare.o (puts)
/opt/altera/13.0sp1/nios2eds/bin/gnu/H-i686-pc-linux-gnu/bin/../lib/gcc/nios2-elf/4.1.2/../../../../nios2-elf/lib/mno-hw-mul/libc.a(lib_a-sbrkr.o)
                              /opt/altera/13.0sp1/nios2eds/bin/gnu/H-i686-pc-linux-gnu/bin/../lib/gcc/nios2-elf/4.1.2/../../../../nios2-elf/lib/mno-hw-mul/libc.a(lib_a-mallocr.o) (_sbrk_r)
/opt/altera/13.0sp1/nios2eds/bin/gnu/H-i686-pc-linux-gnu/bin/../lib/gcc/nios2-elf/4.1.2/../../../../nios2-elf/lib/mno-hw-mul/libc.a(lib_a-strlen.o)
                              /opt/altera/13.0sp1/nios2eds/bin/gnu/H-i686-pc-linux-gnu/bin/../lib/gcc/nios2-elf/4.1.2/../../../../nios2-elf/lib/mno-hw-mul/libc.a(lib_a-puts.o) (strlen)
/opt/altera/13.0sp1/nios2eds/bin/gnu/H-i686-pc-linux-gnu/bin/../lib/gcc/nios2-elf/4.1.2/../../../../nios2-elf/lib/mno-hw-mul/libc.a(lib_a-freer.o)
                              /opt/altera/13.0sp1/nios2eds/bin/gnu/H-i686-pc-linux-gnu/bin/../lib/gcc/nios2-elf/4.1.2/../../../../nios2-elf/lib/mno-hw-mul/libc.a(lib_a-malloc.o) (_free_r)
/opt/altera/13.0sp1/nios2eds/bin/gnu/H-i686-pc-linux-gnu/bin/../lib/gcc/nios2-elf/4.1.2/../../../../nios2-elf/lib/mno-hw-mul/libc.a(lib_a-fvwrite.o)
                              /opt/altera/13.0sp1/nios2eds/bin/gnu/H-i686-pc-linux-gnu/bin/../lib/gcc/nios2-elf/4.1.2/../../../../nios2-elf/lib/mno-hw-mul/libc.a(lib_a-puts.o) (__sfvwrite_r)
/opt/altera/13.0sp1/nios2eds/bin/gnu/H-i686-pc-linux-gnu/bin/../lib/gcc/nios2-elf/4.1.2/../../../../nios2-elf/lib/mno-hw-mul/libc.a(lib_a-impure.o)
                              /opt/altera/13.0sp1/nios2eds/bin/gnu/H-i686-pc-linux-gnu/bin/../lib/gcc/nios2-elf/4.1.2/../../../../nios2-elf/lib/mno-hw-mul/libc.a(lib_a-malloc.o) (_impure_ptr)
/opt/altera/13.0sp1/nios2eds/bin/gnu/H-i686-pc-linux-gnu/bin/../lib/gcc/nios2-elf/4.1.2/../../../../nios2-elf/lib/mno-hw-mul/libc.a(lib_a-int_errno.o)
                              /opt/altera/13.0sp1/nios2eds/bin/gnu/H-i686-pc-linux-gnu/bin/../lib/gcc/nios2-elf/4.1.2/../../../../nios2-elf/lib/mno-hw-mul/libc.a(lib_a-sbrkr.o) (errno)
/opt/altera/13.0sp1/nios2eds/bin/gnu/H-i686-pc-linux-gnu/bin/../lib/gcc/nios2-elf/4.1.2/../../../../nios2-elf/lib/mno-hw-mul/libc.a(lib_a-memchr.o)
                              /opt/altera/13.0sp1/nios2eds/bin/gnu/H-i686-pc-linux-gnu/bin/../lib/gcc/nios2-elf/4.1.2/../../../../nios2-elf/lib/mno-hw-mul/libc.a(lib_a-fvwrite.o) (memchr)
/opt/altera/13.0sp1/nios2eds/bin/gnu/H-i686-pc-linux-gnu/bin/../lib/gcc/nios2-elf/4.1.2/../../../../nios2-elf/lib/mno-hw-mul/libc.a(lib_a-memmove.o)
                              /opt/altera/13.0sp1/nios2eds/bin/gnu/H-i686-pc-linux-gnu/bin/../lib/gcc/nios2-elf/4.1.2/../../../../nios2-elf/lib/mno-hw-mul/libc.a(lib_a-fvwrite.o) (memmove)
/opt/altera/13.0sp1/nios2eds/bin/gnu/H-i686-pc-linux-gnu/bin/../lib/gcc/nios2-elf/4.1.2/../../../../nios2-elf/lib/mno-hw-mul/libc.a(lib_a-putc.o)
                              /opt/altera/13.0sp1/nios2eds/bin/gnu/H-i686-pc-linux-gnu/bin/../lib/gcc/nios2-elf/4.1.2/../../../../nios2-elf/lib/mno-hw-mul/libc.a(lib_a-putchar.o) (_putc_r)
/opt/altera/13.0sp1/nios2eds/bin/gnu/H-i686-pc-linux-gnu/bin/../lib/gcc/nios2-elf/4.1.2/../../../../nios2-elf/lib/mno-hw-mul/libc.a(lib_a-reallocr.o)
                              /opt/altera/13.0sp1/nios2eds/bin/gnu/H-i686-pc-linux-gnu/bin/../lib/gcc/nios2-elf/4.1.2/../../../../nios2-elf/lib/mno-hw-mul/libc.a(lib_a-fvwrite.o) (_realloc_r)
/opt/altera/13.0sp1/nios2eds/bin/gnu/H-i686-pc-linux-gnu/bin/../lib/gcc/nios2-elf/4.1.2/../../../../nios2-elf/lib/mno-hw-mul/libc.a(lib_a-wbuf.o)
                              /opt/altera/13.0sp1/nios2eds/bin/gnu/H-i686-pc-linux-gnu/bin/../lib/gcc/nios2-elf/4.1.2/../../../../nios2-elf/lib/mno-hw-mul/libc.a(lib_a-putc.o) (__swbuf_r)
/opt/altera/13.0sp1/nios2eds/bin/gnu/H-i686-pc-linux-gnu/bin/../lib/gcc/nios2-elf/4.1.2/../../../../nios2-elf/lib/mno-hw-mul/libc.a(lib_a-wsetup.o)
                              /opt/altera/13.0sp1/nios2eds/bin/gnu/H-i686-pc-linux-gnu/bin/../lib/gcc/nios2-elf/4.1.2/../../../../nios2-elf/lib/mno-hw-mul/libc.a(lib_a-fvwrite.o) (__swsetup_r)
/opt/altera/13.0sp1/nios2eds/bin/gnu/H-i686-pc-linux-gnu/bin/../lib/gcc/nios2-elf/4.1.2/../../../../nios2-elf/lib/mno-hw-mul/libc.a(lib_a-fflush.o)
                              /opt/altera/13.0sp1/nios2eds/bin/gnu/H-i686-pc-linux-gnu/bin/../lib/gcc/nios2-elf/4.1.2/../../../../nios2-elf/lib/mno-hw-mul/libc.a(lib_a-fvwrite.o) (_fflush_r)
/opt/altera/13.0sp1/nios2eds/bin/gnu/H-i686-pc-linux-gnu/bin/../lib/gcc/nios2-elf/4.1.2/../../../../nios2-elf/lib/mno-hw-mul/libc.a(lib_a-findfp.o)
                              /opt/altera/13.0sp1/nios2eds/bin/gnu/H-i686-pc-linux-gnu/bin/../lib/gcc/nios2-elf/4.1.2/../../../../nios2-elf/lib/mno-hw-mul/libc.a(lib_a-putc.o) (__sinit)
/opt/altera/13.0sp1/nios2eds/bin/gnu/H-i686-pc-linux-gnu/bin/../lib/gcc/nios2-elf/4.1.2/../../../../nios2-elf/lib/mno-hw-mul/libc.a(lib_a-fwalk.o)
                              /opt/altera/13.0sp1/nios2eds/bin/gnu/H-i686-pc-linux-gnu/bin/../lib/gcc/nios2-elf/4.1.2/../../../../nios2-elf/lib/mno-hw-mul/libc.a(lib_a-fflush.o) (_fwalk_reent)
/opt/altera/13.0sp1/nios2eds/bin/gnu/H-i686-pc-linux-gnu/bin/../lib/gcc/nios2-elf/4.1.2/../../../../nios2-elf/lib/mno-hw-mul/libc.a(lib_a-makebuf.o)
                              /opt/altera/13.0sp1/nios2eds/bin/gnu/H-i686-pc-linux-gnu/bin/../lib/gcc/nios2-elf/4.1.2/../../../../nios2-elf/lib/mno-hw-mul/libc.a(lib_a-wsetup.o) (__smakebuf_r)
/opt/altera/13.0sp1/nios2eds/bin/gnu/H-i686-pc-linux-gnu/bin/../lib/gcc/nios2-elf/4.1.2/../../../../nios2-elf/lib/mno-hw-mul/libc.a(lib_a-memset.o)
                              /opt/altera/13.0sp1/nios2eds/bin/gnu/H-i686-pc-linux-gnu/bin/../lib/gcc/nios2-elf/4.1.2/../../../../nios2-elf/lib/mno-hw-mul/libc.a(lib_a-findfp.o) (memset)
/opt/altera/13.0sp1/nios2eds/bin/gnu/H-i686-pc-linux-gnu/bin/../lib/gcc/nios2-elf/4.1.2/../../../../nios2-elf/lib/mno-hw-mul/libc.a(lib_a-stdio.o)
                              /opt/altera/13.0sp1/nios2eds/bin/gnu/H-i686-pc-linux-gnu/bin/../lib/gcc/nios2-elf/4.1.2/../../../../nios2-elf/lib/mno-hw-mul/libc.a(lib_a-findfp.o) (__sclose)
/opt/altera/13.0sp1/nios2eds/bin/gnu/H-i686-pc-linux-gnu/bin/../lib/gcc/nios2-elf/4.1.2/../../../../nios2-elf/lib/mno-hw-mul/libc.a(lib_a-writer.o)
                              /opt/altera/13.0sp1/nios2eds/bin/gnu/H-i686-pc-linux-gnu/bin/../lib/gcc/nios2-elf/4.1.2/../../../../nios2-elf/lib/mno-hw-mul/libc.a(lib_a-stdio.o) (_write_r)
/opt/altera/13.0sp1/nios2eds/bin/gnu/H-i686-pc-linux-gnu/bin/../lib/gcc/nios2-elf/4.1.2/../../../../nios2-elf/lib/mno-hw-mul/libc.a(lib_a-closer.o)
                              /opt/altera/13.0sp1/nios2eds/bin/gnu/H-i686-pc-linux-gnu/bin/../lib/gcc/nios2-elf/4.1.2/../../../../nios2-elf/lib/mno-hw-mul/libc.a(lib_a-stdio.o) (_close_r)
/opt/altera/13.0sp1/nios2eds/bin/gnu/H-i686-pc-linux-gnu/bin/../lib/gcc/nios2-elf/4.1.2/../../../../nios2-elf/lib/mno-hw-mul/libc.a(lib_a-fclose.o)
                              /opt/altera/13.0sp1/nios2eds/bin/gnu/H-i686-pc-linux-gnu/bin/../lib/gcc/nios2-elf/4.1.2/../../../../nios2-elf/lib/mno-hw-mul/libc.a(lib_a-findfp.o) (fclose)
/opt/altera/13.0sp1/nios2eds/bin/gnu/H-i686-pc-linux-gnu/bin/../lib/gcc/nios2-elf/4.1.2/../../../../nios2-elf/lib/mno-hw-mul/libc.a(lib_a-fstatr.o)
                              /opt/altera/13.0sp1/nios2eds/bin/gnu/H-i686-pc-linux-gnu/bin/../lib/gcc/nios2-elf/4.1.2/../../../../nios2-elf/lib/mno-hw-mul/libc.a(lib_a-makebuf.o) (_fstat_r)
/opt/altera/13.0sp1/nios2eds/bin/gnu/H-i686-pc-linux-gnu/bin/../lib/gcc/nios2-elf/4.1.2/../../../../nios2-elf/lib/mno-hw-mul/libc.a(lib_a-isattyr.o)
                              /opt/altera/13.0sp1/nios2eds/bin/gnu/H-i686-pc-linux-gnu/bin/../lib/gcc/nios2-elf/4.1.2/../../../../nios2-elf/lib/mno-hw-mul/libc.a(lib_a-makebuf.o) (_isatty_r)
/opt/altera/13.0sp1/nios2eds/bin/gnu/H-i686-pc-linux-gnu/bin/../lib/gcc/nios2-elf/4.1.2/../../../../nios2-elf/lib/mno-hw-mul/libc.a(lib_a-lseekr.o)
                              /opt/altera/13.0sp1/nios2eds/bin/gnu/H-i686-pc-linux-gnu/bin/../lib/gcc/nios2-elf/4.1.2/../../../../nios2-elf/lib/mno-hw-mul/libc.a(lib_a-stdio.o) (_lseek_r)
/opt/altera/13.0sp1/nios2eds/bin/gnu/H-i686-pc-linux-gnu/bin/../lib/gcc/nios2-elf/4.1.2/../../../../nios2-elf/lib/mno-hw-mul/libc.a(lib_a-readr.o)
                              /opt/altera/13.0sp1/nios2eds/bin/gnu/H-i686-pc-linux-gnu/bin/../lib/gcc/nios2-elf/4.1.2/../../../../nios2-elf/lib/mno-hw-mul/libc.a(lib_a-stdio.o) (_read_r)
../../bsp/mpsoc_hello_ucosii//libucosii_bsp.a(alt_close.o)
                              /opt/altera/13.0sp1/nios2eds/bin/gnu/H-i686-pc-linux-gnu/bin/../lib/gcc/nios2-elf/4.1.2/../../../../nios2-elf/lib/mno-hw-mul/libc.a(lib_a-closer.o) (close)
../../bsp/mpsoc_hello_ucosii//libucosii_bsp.a(alt_dev.o)
                              ../../bsp/mpsoc_hello_ucosii//libucosii_bsp.a(alt_close.o) (alt_fd_list)
../../bsp/mpsoc_hello_ucosii//libucosii_bsp.a(alt_errno.o)
                              ../../bsp/mpsoc_hello_ucosii//libucosii_bsp.a(alt_close.o) (alt_errno)
../../bsp/mpsoc_hello_ucosii//libucosii_bsp.a(alt_fstat.o)
                              /opt/altera/13.0sp1/nios2eds/bin/gnu/H-i686-pc-linux-gnu/bin/../lib/gcc/nios2-elf/4.1.2/../../../../nios2-elf/lib/mno-hw-mul/libc.a(lib_a-fstatr.o) (fstat)
../../bsp/mpsoc_hello_ucosii//libucosii_bsp.a(alt_isatty.o)
                              /opt/altera/13.0sp1/nios2eds/bin/gnu/H-i686-pc-linux-gnu/bin/../lib/gcc/nios2-elf/4.1.2/../../../../nios2-elf/lib/mno-hw-mul/libc.a(lib_a-isattyr.o) (isatty)
../../bsp/mpsoc_hello_ucosii//libucosii_bsp.a(alt_load.o)
                              ../../bsp/mpsoc_hello_ucosii//obj/HAL/src/crt0.o (alt_load)
../../bsp/mpsoc_hello_ucosii//libucosii_bsp.a(alt_lseek.o)
                              /opt/altera/13.0sp1/nios2eds/bin/gnu/H-i686-pc-linux-gnu/bin/../lib/gcc/nios2-elf/4.1.2/../../../../nios2-elf/lib/mno-hw-mul/libc.a(lib_a-lseekr.o) (lseek)
../../bsp/mpsoc_hello_ucosii//libucosii_bsp.a(alt_main.o)
                              ../../bsp/mpsoc_hello_ucosii//obj/HAL/src/crt0.o (alt_main)
../../bsp/mpsoc_hello_ucosii//libucosii_bsp.a(alt_read.o)
                              /opt/altera/13.0sp1/nios2eds/bin/gnu/H-i686-pc-linux-gnu/bin/../lib/gcc/nios2-elf/4.1.2/../../../../nios2-elf/lib/mno-hw-mul/libc.a(lib_a-readr.o) (read)
../../bsp/mpsoc_hello_ucosii//libucosii_bsp.a(alt_release_fd.o)
                              ../../bsp/mpsoc_hello_ucosii//libucosii_bsp.a(alt_close.o) (alt_release_fd)
../../bsp/mpsoc_hello_ucosii//libucosii_bsp.a(alt_sbrk.o)
                              /opt/altera/13.0sp1/nios2eds/bin/gnu/H-i686-pc-linux-gnu/bin/../lib/gcc/nios2-elf/4.1.2/../../../../nios2-elf/lib/mno-hw-mul/libc.a(lib_a-sbrkr.o) (sbrk)
../../bsp/mpsoc_hello_ucosii//libucosii_bsp.a(alt_write.o)
                              /opt/altera/13.0sp1/nios2eds/bin/gnu/H-i686-pc-linux-gnu/bin/../lib/gcc/nios2-elf/4.1.2/../../../../nios2-elf/lib/mno-hw-mul/libc.a(lib_a-writer.o) (write)
../../bsp/mpsoc_hello_ucosii//libucosii_bsp.a(alt_env_lock.o)
                              ../../bsp/mpsoc_hello_ucosii//libucosii_bsp.a(alt_main.o) (alt_envsem)
../../bsp/mpsoc_hello_ucosii//libucosii_bsp.a(alt_malloc_lock.o)
                              /opt/altera/13.0sp1/nios2eds/bin/gnu/H-i686-pc-linux-gnu/bin/../lib/gcc/nios2-elf/4.1.2/../../../../nios2-elf/lib/mno-hw-mul/libc.a(lib_a-mallocr.o) (__malloc_unlock)
../../bsp/mpsoc_hello_ucosii//libucosii_bsp.a(os_core.o)
                              ../../bsp/mpsoc_hello_ucosii//libucosii_bsp.a(alt_malloc_lock.o) (OSRunning)
../../bsp/mpsoc_hello_ucosii//libucosii_bsp.a(os_dbg.o)
                              ../../bsp/mpsoc_hello_ucosii//libucosii_bsp.a(os_core.o) (OSDebugInit)
../../bsp/mpsoc_hello_ucosii//libucosii_bsp.a(os_flag.o)
                              ../../bsp/mpsoc_hello_ucosii//libucosii_bsp.a(os_core.o) (OS_FlagInit)
../../bsp/mpsoc_hello_ucosii//libucosii_bsp.a(os_mem.o)
                              ../../bsp/mpsoc_hello_ucosii//libucosii_bsp.a(os_core.o) (OS_MemInit)
../../bsp/mpsoc_hello_ucosii//libucosii_bsp.a(os_q.o)
                              ../../bsp/mpsoc_hello_ucosii//libucosii_bsp.a(os_core.o) (OS_QInit)
../../bsp/mpsoc_hello_ucosii//libucosii_bsp.a(os_sem.o)
                              ../../bsp/mpsoc_hello_ucosii//libucosii_bsp.a(alt_main.o) (OSSemCreate)
../../bsp/mpsoc_hello_ucosii//libucosii_bsp.a(os_task.o)
                              ../../bsp/mpsoc_hello_ucosii//libucosii_bsp.a(alt_env_lock.o) (OSTaskQuery)
../../bsp/mpsoc_hello_ucosii//libucosii_bsp.a(os_time.o)
                              ../../bsp/mpsoc_hello_ucosii//libucosii_bsp.a(os_core.o) (OSTimeDly)
../../bsp/mpsoc_hello_ucosii//libucosii_bsp.a(os_tmr.o)
                              ../../bsp/mpsoc_hello_ucosii//libucosii_bsp.a(os_core.o) (OSTmr_Init)
../../bsp/mpsoc_hello_ucosii//libucosii_bsp.a(alt_sys_init.o)
                              ../../bsp/mpsoc_hello_ucosii//libucosii_bsp.a(alt_main.o) (alt_sys_init)
../../bsp/mpsoc_hello_ucosii//libucosii_bsp.a(altera_avalon_jtag_uart_fd.o)
                              ../../bsp/mpsoc_hello_ucosii//libucosii_bsp.a(alt_sys_init.o) (altera_avalon_jtag_uart_ioctl_fd)
../../bsp/mpsoc_hello_ucosii//libucosii_bsp.a(altera_avalon_jtag_uart_init.o)
                              ../../bsp/mpsoc_hello_ucosii//libucosii_bsp.a(altera_avalon_jtag_uart_fd.o) (altera_avalon_jtag_uart_close)
../../bsp/mpsoc_hello_ucosii//libucosii_bsp.a(altera_avalon_jtag_uart_ioctl.o)
                              ../../bsp/mpsoc_hello_ucosii//libucosii_bsp.a(altera_avalon_jtag_uart_fd.o) (altera_avalon_jtag_uart_ioctl)
../../bsp/mpsoc_hello_ucosii//libucosii_bsp.a(altera_avalon_jtag_uart_read.o)
                              ../../bsp/mpsoc_hello_ucosii//libucosii_bsp.a(altera_avalon_jtag_uart_fd.o) (altera_avalon_jtag_uart_read)
../../bsp/mpsoc_hello_ucosii//libucosii_bsp.a(altera_avalon_jtag_uart_write.o)
                              ../../bsp/mpsoc_hello_ucosii//libucosii_bsp.a(altera_avalon_jtag_uart_fd.o) (altera_avalon_jtag_uart_write)
../../bsp/mpsoc_hello_ucosii//libucosii_bsp.a(altera_avalon_mutex.o)
                              ../../bsp/mpsoc_hello_ucosii//libucosii_bsp.a(alt_sys_init.o) (alt_mutex_list)
../../bsp/mpsoc_hello_ucosii//libucosii_bsp.a(altera_avalon_timer_sc.o)
                              ../../bsp/mpsoc_hello_ucosii//libucosii_bsp.a(alt_sys_init.o) (alt_avalon_timer_sc_init)
../../bsp/mpsoc_hello_ucosii//libucosii_bsp.a(perf_print_formatted_report.o)
                              obj/default/src/image_bare.o (perf_print_formatted_report)
../../bsp/mpsoc_hello_ucosii//libucosii_bsp.a(alt_alarm_start.o)
                              ../../bsp/mpsoc_hello_ucosii//libucosii_bsp.a(altera_avalon_jtag_uart_init.o) (alt_alarm_start)
../../bsp/mpsoc_hello_ucosii//libucosii_bsp.a(alt_dcache_flush_all.o)
                              ../../bsp/mpsoc_hello_ucosii//libucosii_bsp.a(alt_load.o) (alt_dcache_flush_all)
../../bsp/mpsoc_hello_ucosii//libucosii_bsp.a(alt_dev_llist_insert.o)
                              ../../bsp/mpsoc_hello_ucosii//libucosii_bsp.a(alt_sys_init.o) (alt_dev_llist_insert)
../../bsp/mpsoc_hello_ucosii//libucosii_bsp.a(alt_do_ctors.o)
                              ../../bsp/mpsoc_hello_ucosii//libucosii_bsp.a(alt_main.o) (_do_ctors)
../../bsp/mpsoc_hello_ucosii//libucosii_bsp.a(alt_do_dtors.o)
                              ../../bsp/mpsoc_hello_ucosii//libucosii_bsp.a(alt_main.o) (_do_dtors)
../../bsp/mpsoc_hello_ucosii//libucosii_bsp.a(alt_find_dev.o)
                              ../../bsp/mpsoc_hello_ucosii//libucosii_bsp.a(altera_avalon_mutex.o) (alt_find_dev)
../../bsp/mpsoc_hello_ucosii//libucosii_bsp.a(alt_icache_flush_all.o)
                              ../../bsp/mpsoc_hello_ucosii//libucosii_bsp.a(alt_load.o) (alt_icache_flush_all)
../../bsp/mpsoc_hello_ucosii//libucosii_bsp.a(alt_io_redirect.o)
                              ../../bsp/mpsoc_hello_ucosii//libucosii_bsp.a(alt_main.o) (alt_io_redirect)
../../bsp/mpsoc_hello_ucosii//libucosii_bsp.a(alt_irq_register.o)
                              ../../bsp/mpsoc_hello_ucosii//libucosii_bsp.a(altera_avalon_jtag_uart_init.o) (alt_irq_register)
../../bsp/mpsoc_hello_ucosii//libucosii_bsp.a(alt_irq_vars.o)
                              ../../bsp/mpsoc_hello_ucosii//libucosii_bsp.a(alt_irq_register.o) (alt_irq_active)
../../bsp/mpsoc_hello_ucosii//libucosii_bsp.a(alt_open.o)
                              ../../bsp/mpsoc_hello_ucosii//libucosii_bsp.a(alt_io_redirect.o) (open)
../../bsp/mpsoc_hello_ucosii//libucosii_bsp.a(alt_tick.o)
                              ../../bsp/mpsoc_hello_ucosii//libucosii_bsp.a(altera_avalon_timer_sc.o) (alt_tick)
../../bsp/mpsoc_hello_ucosii//libucosii_bsp.a(altera_nios2_qsys_irq.o)
                              ../../bsp/mpsoc_hello_ucosii//libucosii_bsp.a(alt_sys_init.o) (altera_nios2_qsys_irq_init)
../../bsp/mpsoc_hello_ucosii//libucosii_bsp.a(os_cpu_a.o)
                              ../../bsp/mpsoc_hello_ucosii//libucosii_bsp.a(os_core.o) (OSIntCtxSw)
../../bsp/mpsoc_hello_ucosii//libucosii_bsp.a(os_cpu_c.o)
                              ../../bsp/mpsoc_hello_ucosii//libucosii_bsp.a(os_core.o) (OSTaskCreateHook)
../../bsp/mpsoc_hello_ucosii//libucosii_bsp.a(altera_avalon_performance_counter.o)
                              ../../bsp/mpsoc_hello_ucosii//libucosii_bsp.a(perf_print_formatted_report.o) (perf_get_num_starts)
../../bsp/mpsoc_hello_ucosii//libucosii_bsp.a(alt_find_file.o)
                              ../../bsp/mpsoc_hello_ucosii//libucosii_bsp.a(alt_open.o) (alt_find_file)
../../bsp/mpsoc_hello_ucosii//libucosii_bsp.a(alt_get_fd.o)
                              ../../bsp/mpsoc_hello_ucosii//libucosii_bsp.a(alt_open.o) (alt_get_fd)
../../bsp/mpsoc_hello_ucosii//libucosii_bsp.a(alt_irq_entry.o)
                              ../../bsp/mpsoc_hello_ucosii//libucosii_bsp.a(alt_irq_register.o) (alt_irq_entry)
../../bsp/mpsoc_hello_ucosii//libucosii_bsp.a(alt_irq_handler.o)
                              ../../bsp/mpsoc_hello_ucosii//libucosii_bsp.a(alt_irq_register.o) (alt_irq_handler)
../../bsp/mpsoc_hello_ucosii//libucosii_bsp.a(alt_exception_entry.o)
                              ../../bsp/mpsoc_hello_ucosii//libucosii_bsp.a(alt_irq_entry.o) (alt_exception)
/opt/altera/13.0sp1/nios2eds/bin/gnu/H-i686-pc-linux-gnu/bin/../lib/gcc/nios2-elf/4.1.2/../../../../nios2-elf/lib/mno-hw-mul/libc.a(lib_a-atexit.o)
                              ../../bsp/mpsoc_hello_ucosii//libucosii_bsp.a(alt_main.o) (atexit)
/opt/altera/13.0sp1/nios2eds/bin/gnu/H-i686-pc-linux-gnu/bin/../lib/gcc/nios2-elf/4.1.2/../../../../nios2-elf/lib/mno-hw-mul/libc.a(lib_a-exit.o)
                              ../../bsp/mpsoc_hello_ucosii//libucosii_bsp.a(alt_main.o) (exit)
/opt/altera/13.0sp1/nios2eds/bin/gnu/H-i686-pc-linux-gnu/bin/../lib/gcc/nios2-elf/4.1.2/../../../../nios2-elf/lib/mno-hw-mul/libc.a(lib_a-memcmp.o)
                              ../../bsp/mpsoc_hello_ucosii//libucosii_bsp.a(alt_find_dev.o) (memcmp)
/opt/altera/13.0sp1/nios2eds/bin/gnu/H-i686-pc-linux-gnu/bin/../lib/gcc/nios2-elf/4.1.2/../../../../nios2-elf/lib/mno-hw-mul/libc.a(lib_a-printf.o)
                              ../../bsp/mpsoc_hello_ucosii//libucosii_bsp.a(perf_print_formatted_report.o) (printf)
/opt/altera/13.0sp1/nios2eds/bin/gnu/H-i686-pc-linux-gnu/bin/../lib/gcc/nios2-elf/4.1.2/../../../../nios2-elf/lib/mno-hw-mul/libc.a(lib_a-vfprintf.o)
                              /opt/altera/13.0sp1/nios2eds/bin/gnu/H-i686-pc-linux-gnu/bin/../lib/gcc/nios2-elf/4.1.2/../../../../nios2-elf/lib/mno-hw-mul/libc.a(lib_a-printf.o) (___vfprintf_internal_r)
/opt/altera/13.0sp1/nios2eds/bin/gnu/H-i686-pc-linux-gnu/bin/../lib/gcc/nios2-elf/4.1.2/../../../../nios2-elf/lib/mno-hw-mul/libc.a(lib_a-__atexit.o)
                              /opt/altera/13.0sp1/nios2eds/bin/gnu/H-i686-pc-linux-gnu/bin/../lib/gcc/nios2-elf/4.1.2/../../../../nios2-elf/lib/mno-hw-mul/libc.a(lib_a-atexit.o) (__register_exitproc)
/opt/altera/13.0sp1/nios2eds/bin/gnu/H-i686-pc-linux-gnu/bin/../lib/gcc/nios2-elf/4.1.2/../../../../nios2-elf/lib/mno-hw-mul/libc.a(lib_a-__call_atexit.o)
                              /opt/altera/13.0sp1/nios2eds/bin/gnu/H-i686-pc-linux-gnu/bin/../lib/gcc/nios2-elf/4.1.2/../../../../nios2-elf/lib/mno-hw-mul/libc.a(lib_a-exit.o) (__call_exitprocs)
/opt/altera/13.0sp1/nios2eds/bin/gnu/H-i686-pc-linux-gnu/bin/../lib/gcc/nios2-elf/4.1.2/../../../../nios2-elf/lib/mno-hw-mul/libc.a(lib_a-dtoa.o)
                              /opt/altera/13.0sp1/nios2eds/bin/gnu/H-i686-pc-linux-gnu/bin/../lib/gcc/nios2-elf/4.1.2/../../../../nios2-elf/lib/mno-hw-mul/libc.a(lib_a-vfprintf.o) (_dtoa_r)
/opt/altera/13.0sp1/nios2eds/bin/gnu/H-i686-pc-linux-gnu/bin/../lib/gcc/nios2-elf/4.1.2/../../../../nios2-elf/lib/mno-hw-mul/libc.a(lib_a-locale.o)
                              /opt/altera/13.0sp1/nios2eds/bin/gnu/H-i686-pc-linux-gnu/bin/../lib/gcc/nios2-elf/4.1.2/../../../../nios2-elf/lib/mno-hw-mul/libc.a(lib_a-vfprintf.o) (_localeconv_r)
/opt/altera/13.0sp1/nios2eds/bin/gnu/H-i686-pc-linux-gnu/bin/../lib/gcc/nios2-elf/4.1.2/../../../../nios2-elf/lib/mno-hw-mul/libc.a(lib_a-mprec.o)
                              /opt/altera/13.0sp1/nios2eds/bin/gnu/H-i686-pc-linux-gnu/bin/../lib/gcc/nios2-elf/4.1.2/../../../../nios2-elf/lib/mno-hw-mul/libc.a(lib_a-dtoa.o) (_Bfree)
/opt/altera/13.0sp1/nios2eds/bin/gnu/H-i686-pc-linux-gnu/bin/../lib/gcc/nios2-elf/4.1.2/../../../../nios2-elf/lib/mno-hw-mul/libc.a(lib_a-s_isinfd.o)
                              /opt/altera/13.0sp1/nios2eds/bin/gnu/H-i686-pc-linux-gnu/bin/../lib/gcc/nios2-elf/4.1.2/../../../../nios2-elf/lib/mno-hw-mul/libc.a(lib_a-vfprintf.o) (__isinfd)
/opt/altera/13.0sp1/nios2eds/bin/gnu/H-i686-pc-linux-gnu/bin/../lib/gcc/nios2-elf/4.1.2/../../../../nios2-elf/lib/mno-hw-mul/libc.a(lib_a-s_isnand.o)
                              /opt/altera/13.0sp1/nios2eds/bin/gnu/H-i686-pc-linux-gnu/bin/../lib/gcc/nios2-elf/4.1.2/../../../../nios2-elf/lib/mno-hw-mul/libc.a(lib_a-vfprintf.o) (__isnand)
/opt/altera/13.0sp1/nios2eds/bin/gnu/H-i686-pc-linux-gnu/bin/../lib/gcc/nios2-elf/4.1.2/../../../../nios2-elf/lib/mno-hw-mul/libc.a(lib_a-strcmp.o)
                              /opt/altera/13.0sp1/nios2eds/bin/gnu/H-i686-pc-linux-gnu/bin/../lib/gcc/nios2-elf/4.1.2/../../../../nios2-elf/lib/mno-hw-mul/libc.a(lib_a-locale.o) (strcmp)
/opt/altera/13.0sp1/nios2eds/bin/gnu/H-i686-pc-linux-gnu/bin/../lib/gcc/nios2-elf/4.1.2/../../../../nios2-elf/lib/mno-hw-mul/libc.a(lib_a-callocr.o)
                              /opt/altera/13.0sp1/nios2eds/bin/gnu/H-i686-pc-linux-gnu/bin/../lib/gcc/nios2-elf/4.1.2/../../../../nios2-elf/lib/mno-hw-mul/libc.a(lib_a-mprec.o) (_calloc_r)
/opt/altera/13.0sp1/nios2eds/bin/gnu/H-i686-pc-linux-gnu/bin/../lib/gcc/nios2-elf/4.1.2/mno-hw-mul/libgcc.a(_fixunsdfsi.o)
                              ../../bsp/mpsoc_hello_ucosii//libucosii_bsp.a(os_time.o) (__fixunsdfsi)
/opt/altera/13.0sp1/nios2eds/bin/gnu/H-i686-pc-linux-gnu/bin/../lib/gcc/nios2-elf/4.1.2/mno-hw-mul/libgcc.a(_floatundidf.o)
                              ../../bsp/mpsoc_hello_ucosii//libucosii_bsp.a(perf_print_formatted_report.o) (__floatundidf)
/opt/altera/13.0sp1/nios2eds/bin/gnu/H-i686-pc-linux-gnu/bin/../lib/gcc/nios2-elf/4.1.2/mno-hw-mul/libgcc.a(_udivdi3.o)
                              /opt/altera/13.0sp1/nios2eds/bin/gnu/H-i686-pc-linux-gnu/bin/../lib/gcc/nios2-elf/4.1.2/../../../../nios2-elf/lib/mno-hw-mul/libc.a(lib_a-vfprintf.o) (__udivdi3)
/opt/altera/13.0sp1/nios2eds/bin/gnu/H-i686-pc-linux-gnu/bin/../lib/gcc/nios2-elf/4.1.2/mno-hw-mul/libgcc.a(_umoddi3.o)
                              /opt/altera/13.0sp1/nios2eds/bin/gnu/H-i686-pc-linux-gnu/bin/../lib/gcc/nios2-elf/4.1.2/../../../../nios2-elf/lib/mno-hw-mul/libc.a(lib_a-vfprintf.o) (__umoddi3)
/opt/altera/13.0sp1/nios2eds/bin/gnu/H-i686-pc-linux-gnu/bin/../lib/gcc/nios2-elf/4.1.2/mno-hw-mul/libgcc.a(_div_df.o)
                              ../../bsp/mpsoc_hello_ucosii//libucosii_bsp.a(os_time.o) (__divdf3)
/opt/altera/13.0sp1/nios2eds/bin/gnu/H-i686-pc-linux-gnu/bin/../lib/gcc/nios2-elf/4.1.2/mno-hw-mul/libgcc.a(_eq_df.o)
                              /opt/altera/13.0sp1/nios2eds/bin/gnu/H-i686-pc-linux-gnu/bin/../lib/gcc/nios2-elf/4.1.2/../../../../nios2-elf/lib/mno-hw-mul/libc.a(lib_a-vfprintf.o) (__eqdf2)
/opt/altera/13.0sp1/nios2eds/bin/gnu/H-i686-pc-linux-gnu/bin/../lib/gcc/nios2-elf/4.1.2/mno-hw-mul/libgcc.a(_ne_df.o)
                              /opt/altera/13.0sp1/nios2eds/bin/gnu/H-i686-pc-linux-gnu/bin/../lib/gcc/nios2-elf/4.1.2/../../../../nios2-elf/lib/mno-hw-mul/libc.a(lib_a-vfprintf.o) (__nedf2)
/opt/altera/13.0sp1/nios2eds/bin/gnu/H-i686-pc-linux-gnu/bin/../lib/gcc/nios2-elf/4.1.2/mno-hw-mul/libgcc.a(_gt_df.o)
                              /opt/altera/13.0sp1/nios2eds/bin/gnu/H-i686-pc-linux-gnu/bin/../lib/gcc/nios2-elf/4.1.2/../../../../nios2-elf/lib/mno-hw-mul/libc.a(lib_a-dtoa.o) (__gtdf2)
/opt/altera/13.0sp1/nios2eds/bin/gnu/H-i686-pc-linux-gnu/bin/../lib/gcc/nios2-elf/4.1.2/mno-hw-mul/libgcc.a(_ge_df.o)
                              ../../bsp/mpsoc_hello_ucosii//libucosii_bsp.a(os_cpu_c.o) (__gedf2)
/opt/altera/13.0sp1/nios2eds/bin/gnu/H-i686-pc-linux-gnu/bin/../lib/gcc/nios2-elf/4.1.2/mno-hw-mul/libgcc.a(_lt_df.o)
                              /opt/altera/13.0sp1/nios2eds/bin/gnu/H-i686-pc-linux-gnu/bin/../lib/gcc/nios2-elf/4.1.2/../../../../nios2-elf/lib/mno-hw-mul/libc.a(lib_a-vfprintf.o) (__ltdf2)
/opt/altera/13.0sp1/nios2eds/bin/gnu/H-i686-pc-linux-gnu/bin/../lib/gcc/nios2-elf/4.1.2/mno-hw-mul/libgcc.a(_df_to_si.o)
                              /opt/altera/13.0sp1/nios2eds/bin/gnu/H-i686-pc-linux-gnu/bin/../lib/gcc/nios2-elf/4.1.2/../../../../nios2-elf/lib/mno-hw-mul/libc.a(lib_a-dtoa.o) (__fixdfsi)
/opt/altera/13.0sp1/nios2eds/bin/gnu/H-i686-pc-linux-gnu/bin/../lib/gcc/nios2-elf/4.1.2/mno-hw-mul/libgcc.a(_usi_to_df.o)
                              ../../bsp/mpsoc_hello_ucosii//libucosii_bsp.a(os_time.o) (__floatunsidf)
/opt/altera/13.0sp1/nios2eds/bin/gnu/H-i686-pc-linux-gnu/bin/../lib/gcc/nios2-elf/4.1.2/mno-hw-mul/libgcc.a(_fpcmp_parts_df.o)
                              /opt/altera/13.0sp1/nios2eds/bin/gnu/H-i686-pc-linux-gnu/bin/../lib/gcc/nios2-elf/4.1.2/mno-hw-mul/libgcc.a(_eq_df.o) (__fpcmp_parts_d)
../../bsp/mpsoc_hello_ucosii//libucosii_bsp.a(alt_exit.o)
                              /opt/altera/13.0sp1/nios2eds/bin/gnu/H-i686-pc-linux-gnu/bin/../lib/gcc/nios2-elf/4.1.2/../../../../nios2-elf/lib/mno-hw-mul/libc.a(lib_a-exit.o) (_exit)

Allocating common symbols
Common symbol       size              file

OSTmrFreeList       0x4               ../../bsp/mpsoc_hello_ucosii//libucosii_bsp.a(os_core.o)
alt_irq             0x100             ../../bsp/mpsoc_hello_ucosii//libucosii_bsp.a(alt_irq_handler.o)
OSTmrWheelTbl       0x10              ../../bsp/mpsoc_hello_ucosii//libucosii_bsp.a(os_core.o)
OSLockNesting       0x1               ../../bsp/mpsoc_hello_ucosii//libucosii_bsp.a(os_core.o)
OSTmrSemSignal      0x4               ../../bsp/mpsoc_hello_ucosii//libucosii_bsp.a(os_core.o)
OSRunning           0x1               ../../bsp/mpsoc_hello_ucosii//libucosii_bsp.a(os_core.o)
OSIdleCtr           0x4               ../../bsp/mpsoc_hello_ucosii//libucosii_bsp.a(os_core.o)
OSTmrUsed           0x2               ../../bsp/mpsoc_hello_ucosii//libucosii_bsp.a(os_core.o)
OSPrioHighRdy       0x1               ../../bsp/mpsoc_hello_ucosii//libucosii_bsp.a(os_core.o)
errno               0x4               /opt/altera/13.0sp1/nios2eds/bin/gnu/H-i686-pc-linux-gnu/bin/../lib/gcc/nios2-elf/4.1.2/../../../../nios2-elf/lib/mno-hw-mul/libc.a(lib_a-int_errno.o)
alt_heapsem         0x4               ../../bsp/mpsoc_hello_ucosii//libucosii_bsp.a(alt_malloc_lock.o)
OSFlagTbl           0x370             ../../bsp/mpsoc_hello_ucosii//libucosii_bsp.a(os_core.o)
OSTmrTbl            0x340             ../../bsp/mpsoc_hello_ucosii//libucosii_bsp.a(os_core.o)
OSPrioCur           0x1               ../../bsp/mpsoc_hello_ucosii//libucosii_bsp.a(os_core.o)
OSTCBList           0x4               ../../bsp/mpsoc_hello_ucosii//libucosii_bsp.a(os_core.o)
alt_fd_list_lock    0x4               ../../bsp/mpsoc_hello_ucosii//libucosii_bsp.a(alt_dev.o)
OSMemTbl            0xc30             ../../bsp/mpsoc_hello_ucosii//libucosii_bsp.a(os_core.o)
OSTickStepState     0x1               ../../bsp/mpsoc_hello_ucosii//libucosii_bsp.a(os_core.o)
OSTaskStatStk       0x800             ../../bsp/mpsoc_hello_ucosii//libucosii_bsp.a(os_core.o)
OSCtxSwCtr          0x4               ../../bsp/mpsoc_hello_ucosii//libucosii_bsp.a(os_core.o)
OSTmrFree           0x2               ../../bsp/mpsoc_hello_ucosii//libucosii_bsp.a(os_core.o)
OSIdleCtrMax        0x4               ../../bsp/mpsoc_hello_ucosii//libucosii_bsp.a(os_core.o)
OSTCBFreeList       0x4               ../../bsp/mpsoc_hello_ucosii//libucosii_bsp.a(os_core.o)
OSCPUUsage          0x1               ../../bsp/mpsoc_hello_ucosii//libucosii_bsp.a(os_core.o)
OSTaskCtr           0x1               ../../bsp/mpsoc_hello_ucosii//libucosii_bsp.a(os_core.o)
OSMemFreeList       0x4               ../../bsp/mpsoc_hello_ucosii//libucosii_bsp.a(os_core.o)
OSQTbl              0x1e0             ../../bsp/mpsoc_hello_ucosii//libucosii_bsp.a(os_core.o)
OSTCBHighRdy        0x4               ../../bsp/mpsoc_hello_ucosii//libucosii_bsp.a(os_core.o)
OSQFreeList         0x4               ../../bsp/mpsoc_hello_ucosii//libucosii_bsp.a(os_core.o)
OSRdyGrp            0x1               ../../bsp/mpsoc_hello_ucosii//libucosii_bsp.a(os_core.o)
_atexit0            0x190             /opt/altera/13.0sp1/nios2eds/bin/gnu/H-i686-pc-linux-gnu/bin/../lib/gcc/nios2-elf/4.1.2/../../../../nios2-elf/lib/mno-hw-mul/libc.a(lib_a-atexit.o)
OSRdyTbl            0x3               ../../bsp/mpsoc_hello_ucosii//libucosii_bsp.a(os_core.o)
OSTmrTaskStk        0x800             ../../bsp/mpsoc_hello_ucosii//libucosii_bsp.a(os_core.o)
OSEventFreeList     0x4               ../../bsp/mpsoc_hello_ucosii//libucosii_bsp.a(os_core.o)
OSIntNesting        0x1               ../../bsp/mpsoc_hello_ucosii//libucosii_bsp.a(os_core.o)
OSTCBCur            0x4               ../../bsp/mpsoc_hello_ucosii//libucosii_bsp.a(os_core.o)
OSTmrTime           0x4               ../../bsp/mpsoc_hello_ucosii//libucosii_bsp.a(os_core.o)
OSTime              0x4               ../../bsp/mpsoc_hello_ucosii//libucosii_bsp.a(os_core.o)
OSTmrSem            0x4               ../../bsp/mpsoc_hello_ucosii//libucosii_bsp.a(os_core.o)
OSTaskIdleStk       0x800             ../../bsp/mpsoc_hello_ucosii//libucosii_bsp.a(os_core.o)
OSEventTbl          0xb40             ../../bsp/mpsoc_hello_ucosii//libucosii_bsp.a(os_core.o)
OSTCBTbl            0x510             ../../bsp/mpsoc_hello_ucosii//libucosii_bsp.a(os_core.o)
OSFlagFreeList      0x4               ../../bsp/mpsoc_hello_ucosii//libucosii_bsp.a(os_core.o)
OSStatRdy           0x1               ../../bsp/mpsoc_hello_ucosii//libucosii_bsp.a(os_core.o)
OSTCBPrioTbl        0x54              ../../bsp/mpsoc_hello_ucosii//libucosii_bsp.a(os_core.o)
alt_envsem          0x4               ../../bsp/mpsoc_hello_ucosii//libucosii_bsp.a(alt_env_lock.o)
OSIdleCtrRun        0x4               ../../bsp/mpsoc_hello_ucosii//libucosii_bsp.a(os_core.o)

Memory Configuration

Name             Origin             Length             Attributes
reset            0x00080000         0x00000020
sram             0x00080020         0x0007ffe0
shared_onchip    0x00102000         0x00002000
sdram            0x01000000         0x00800000
*default*        0x00000000         0xffffffff

Linker script and memory map

LOAD ../../bsp/mpsoc_hello_ucosii//obj/HAL/src/crt0.o
LOAD obj/default/src/image_bare.o
LOAD /opt/altera/13.0sp1/nios2eds/bin/gnu/H-i686-pc-linux-gnu/bin/../lib/gcc/nios2-elf/4.1.2/../../../../nios2-elf/lib/mno-hw-mul/libstdc++.a
LOAD /opt/altera/13.0sp1/nios2eds/bin/gnu/H-i686-pc-linux-gnu/bin/../lib/gcc/nios2-elf/4.1.2/../../../../nios2-elf/lib/mno-hw-mul/libm.a
LOAD /opt/altera/13.0sp1/nios2eds/bin/gnu/H-i686-pc-linux-gnu/bin/../lib/gcc/nios2-elf/4.1.2/mno-hw-mul/libgcc.a
START GROUP
LOAD /opt/altera/13.0sp1/nios2eds/bin/gnu/H-i686-pc-linux-gnu/bin/../lib/gcc/nios2-elf/4.1.2/../../../../nios2-elf/lib/mno-hw-mul/libc.a
LOAD /opt/altera/13.0sp1/nios2eds/bin/gnu/H-i686-pc-linux-gnu/bin/../lib/gcc/nios2-elf/4.1.2/mno-hw-mul/libgcc.a
LOAD ../../bsp/mpsoc_hello_ucosii//libucosii_bsp.a
END GROUP
LOAD /opt/altera/13.0sp1/nios2eds/bin/gnu/H-i686-pc-linux-gnu/bin/../lib/gcc/nios2-elf/4.1.2/mno-hw-mul/libgcc.a
                0x00080000                __alt_mem_sram = 0x80000
                0x00102000                __alt_mem_shared_onchip = 0x102000
                0x01000000                __alt_mem_sdram = 0x1000000

.entry          0x00080000       0x20
 *(.entry)
 .entry         0x00080000       0x20 ../../bsp/mpsoc_hello_ucosii//obj/HAL/src/crt0.o
                0x00080000                __reset

.exceptions     0x00080020      0x12c
                0x00080020                PROVIDE (__ram_exceptions_start, ABSOLUTE (.))
                0x00080020                . = ALIGN (0x20)
 *(.irq)
 *(.exceptions.entry.label)
 .exceptions.entry.label
                0x00080020        0x0 ../../bsp/mpsoc_hello_ucosii//libucosii_bsp.a(alt_irq_entry.o)
                0x00080020                alt_irq_entry
 .exceptions.entry.label
                0x00080020        0x0 ../../bsp/mpsoc_hello_ucosii//libucosii_bsp.a(alt_exception_entry.o)
                0x00080020                alt_exception
 *(.exceptions.entry.user)
 *(.exceptions.entry)
 .exceptions.entry
                0x00080020       0x54 ../../bsp/mpsoc_hello_ucosii//libucosii_bsp.a(alt_exception_entry.o)
 *(.exceptions.irqtest.user)
 *(.exceptions.irqtest)
 .exceptions.irqtest
                0x00080074       0x10 ../../bsp/mpsoc_hello_ucosii//libucosii_bsp.a(alt_irq_entry.o)
 *(.exceptions.irqhandler.user)
 *(.exceptions.irqhandler)
 .exceptions.irqhandler
                0x00080084        0x4 ../../bsp/mpsoc_hello_ucosii//libucosii_bsp.a(alt_irq_entry.o)
 *(.exceptions.irqreturn.user)
 *(.exceptions.irqreturn)
 .exceptions.irqreturn
                0x00080088        0x4 ../../bsp/mpsoc_hello_ucosii//libucosii_bsp.a(alt_irq_entry.o)
 *(.exceptions.notirq.label)
 .exceptions.notirq.label
                0x0008008c        0x0 ../../bsp/mpsoc_hello_ucosii//libucosii_bsp.a(alt_irq_entry.o)
 *(.exceptions.notirq.user)
 *(.exceptions.notirq)
 .exceptions.notirq
                0x0008008c        0x8 ../../bsp/mpsoc_hello_ucosii//libucosii_bsp.a(alt_exception_entry.o)
 *(.exceptions.soft.user)
 *(.exceptions.soft)
 *(.exceptions.unknown.user)
 *(.exceptions.unknown)
 .exceptions.unknown
                0x00080094        0x4 ../../bsp/mpsoc_hello_ucosii//libucosii_bsp.a(alt_exception_entry.o)
 *(.exceptions.exit.label)
 .exceptions.exit.label
                0x00080098        0x0 ../../bsp/mpsoc_hello_ucosii//libucosii_bsp.a(alt_irq_entry.o)
 .exceptions.exit.label
                0x00080098        0x0 ../../bsp/mpsoc_hello_ucosii//libucosii_bsp.a(alt_exception_entry.o)
 *(.exceptions.exit.user)
 *(.exceptions.exit)
 .exceptions.exit
                0x00080098       0x54 ../../bsp/mpsoc_hello_ucosii//libucosii_bsp.a(alt_exception_entry.o)
 *(.exceptions)
 .exceptions    0x000800ec       0x60 ../../bsp/mpsoc_hello_ucosii//libucosii_bsp.a(alt_irq_handler.o)
                0x000800ec                alt_irq_handler
                0x0008014c                PROVIDE (__ram_exceptions_end, ABSOLUTE (.))
                0x00080020                PROVIDE (__flash_exceptions_start, LOADADDR (.exceptions))

.text           0x0008014c    0x1195c
                0x0008014c                PROVIDE (stext, ABSOLUTE (.))
 *(.interp)
 *(.hash)
 *(.dynsym)
 *(.dynstr)
 *(.gnu.version)
 *(.gnu.version_d)
 *(.gnu.version_r)
 *(.rel.init)
 *(.rela.init)
 *(.rel.text .rel.text.* .rel.gnu.linkonce.t.*)
 *(.rela.text .rela.text.* .rela.gnu.linkonce.t.*)
 *(.rel.fini)
 *(.rela.fini)
 *(.rel.rodata .rel.rodata.* .rel.gnu.linkonce.r.*)
 *(.rela.rodata .rela.rodata.* .rela.gnu.linkonce.r.*)
 *(.rel.data .rel.data.* .rel.gnu.linkonce.d.*)
 *(.rela.data .rela.data.* .rela.gnu.linkonce.d.*)
 *(.rel.tdata .rel.tdata.* .rel.gnu.linkonce.td.*)
 *(.rela.tdata .rela.tdata.* .rela.gnu.linkonce.td.*)
 *(.rel.tbss .rel.tbss.* .rel.gnu.linkonce.tb.*)
 *(.rela.tbss .rela.tbss.* .rela.gnu.linkonce.tb.*)
 *(.rel.ctors)
 *(.rela.ctors)
 *(.rel.dtors)
 *(.rela.dtors)
 *(.rel.got)
 *(.rela.got)
 *(.rel.sdata .rel.sdata.* .rel.gnu.linkonce.s.*)
 *(.rela.sdata .rela.sdata.* .rela.gnu.linkonce.s.*)
 *(.rel.sbss .rel.sbss.* .rel.gnu.linkonce.sb.*)
 *(.rela.sbss .rela.sbss.* .rela.gnu.linkonce.sb.*)
 *(.rel.sdata2 .rel.sdata2.* .rel.gnu.linkonce.s2.*)
 *(.rela.sdata2 .rela.sdata2.* .rela.gnu.linkonce.s2.*)
 *(.rel.sbss2 .rel.sbss2.* .rel.gnu.linkonce.sb2.*)
 *(.rela.sbss2 .rela.sbss2.* .rela.gnu.linkonce.sb2.*)
 *(.rel.bss .rel.bss.* .rel.gnu.linkonce.b.*)
 *(.rela.bss .rela.bss.* .rela.gnu.linkonce.b.*)
 *(.rel.plt)
 *(.rela.plt)
 *(.rel.dyn)
 *(.init)
 *(.plt)
 *(.text .stub .text.* .gnu.linkonce.t.*)
 .text          0x0008014c       0x3c ../../bsp/mpsoc_hello_ucosii//obj/HAL/src/crt0.o
                0x0008014c                _start
 .text          0x00080188      0x714 obj/default/src/image_bare.o
                0x00080188                toGrayFloat
                0x000802e4                toAscii
                0x000803a4                resize
                0x00080478                task2
                0x00080494                task3
                0x000804c8                sram2sm_p3
                0x0008056c                toGrayInt
                0x0008065c                task1
                0x00080690                main
                0x00080830                printAscii
 .text          0x0008089c      0x504 /opt/altera/13.0sp1/nios2eds/bin/gnu/H-i686-pc-linux-gnu/bin/../lib/gcc/nios2-elf/4.1.2/mno-hw-mul/libgcc.a(_addsub_df.o)
                0x00080cac                __subdf3
                0x00080d2c                __adddf3
 .text          0x00080da0      0x3c4 /opt/altera/13.0sp1/nios2eds/bin/gnu/H-i686-pc-linux-gnu/bin/../lib/gcc/nios2-elf/4.1.2/mno-hw-mul/libgcc.a(_mul_df.o)
                0x00080da0                __muldf3
 .text          0x00081164       0xf8 /opt/altera/13.0sp1/nios2eds/bin/gnu/H-i686-pc-linux-gnu/bin/../lib/gcc/nios2-elf/4.1.2/mno-hw-mul/libgcc.a(_si_to_df.o)
                0x00081164                __floatsidf
 .text          0x0008125c       0x74 /opt/altera/13.0sp1/nios2eds/bin/gnu/H-i686-pc-linux-gnu/bin/../lib/gcc/nios2-elf/4.1.2/mno-hw-mul/libgcc.a(_df_to_sf.o)
                0x0008125c                __truncdfsf2
 .text          0x000812d0        0x0 /opt/altera/13.0sp1/nios2eds/bin/gnu/H-i686-pc-linux-gnu/bin/../lib/gcc/nios2-elf/4.1.2/mno-hw-mul/libgcc.a(_thenan_df.o)
 .text          0x000812d0      0x14c /opt/altera/13.0sp1/nios2eds/bin/gnu/H-i686-pc-linux-gnu/bin/../lib/gcc/nios2-elf/4.1.2/mno-hw-mul/libgcc.a(lib2-divmod.o)
                0x0008134c                __divsi3
                0x000813ac                __modsi3
                0x0008140c                __udivsi3
                0x00081414                __umodsi3
 .text          0x0008141c       0x38 /opt/altera/13.0sp1/nios2eds/bin/gnu/H-i686-pc-linux-gnu/bin/../lib/gcc/nios2-elf/4.1.2/mno-hw-mul/libgcc.a(lib2-mul.o)
                0x0008141c                __mulsi3
 .text          0x00081454      0x124 /opt/altera/13.0sp1/nios2eds/bin/gnu/H-i686-pc-linux-gnu/bin/../lib/gcc/nios2-elf/4.1.2/mno-hw-mul/libgcc.a(_muldi3.o)
                0x00081454                __muldi3
 .text          0x00081578       0x80 /opt/altera/13.0sp1/nios2eds/bin/gnu/H-i686-pc-linux-gnu/bin/../lib/gcc/nios2-elf/4.1.2/mno-hw-mul/libgcc.a(_clzsi2.o)
                0x00081578                __clzsi2
 .text          0x000815f8       0x2c /opt/altera/13.0sp1/nios2eds/bin/gnu/H-i686-pc-linux-gnu/bin/../lib/gcc/nios2-elf/4.1.2/mno-hw-mul/libgcc.a(_make_sf.o)
                0x000815f8                __make_fp
 .text          0x00081624      0x314 /opt/altera/13.0sp1/nios2eds/bin/gnu/H-i686-pc-linux-gnu/bin/../lib/gcc/nios2-elf/4.1.2/mno-hw-mul/libgcc.a(_pack_df.o)
                0x00081624                __pack_d
 .text          0x00081938      0x138 /opt/altera/13.0sp1/nios2eds/bin/gnu/H-i686-pc-linux-gnu/bin/../lib/gcc/nios2-elf/4.1.2/mno-hw-mul/libgcc.a(_unpack_df.o)
                0x00081938                __unpack_d
 .text          0x00081a70        0x0 /opt/altera/13.0sp1/nios2eds/bin/gnu/H-i686-pc-linux-gnu/bin/../lib/gcc/nios2-elf/4.1.2/mno-hw-mul/libgcc.a(_clz.o)
 .text          0x00081a70      0x160 /opt/altera/13.0sp1/nios2eds/bin/gnu/H-i686-pc-linux-gnu/bin/../lib/gcc/nios2-elf/4.1.2/mno-hw-mul/libgcc.a(_pack_sf.o)
                0x00081a70                __pack_f
 .text          0x00081bd0       0x28 /opt/altera/13.0sp1/nios2eds/bin/gnu/H-i686-pc-linux-gnu/bin/../lib/gcc/nios2-elf/4.1.2/../../../../nios2-elf/lib/mno-hw-mul/libc.a(lib_a-malloc.o)
                0x00081bd0                free
                0x00081be4                malloc
 .text          0x00081bf8      0x740 /opt/altera/13.0sp1/nios2eds/bin/gnu/H-i686-pc-linux-gnu/bin/../lib/gcc/nios2-elf/4.1.2/../../../../nios2-elf/lib/mno-hw-mul/libc.a(lib_a-mallocr.o)
                0x00081bf8                _malloc_r
 .text          0x00082338       0xa0 /opt/altera/13.0sp1/nios2eds/bin/gnu/H-i686-pc-linux-gnu/bin/../lib/gcc/nios2-elf/4.1.2/../../../../nios2-elf/lib/mno-hw-mul/libc.a(lib_a-memcpy.o)
                0x00082338                memcpy
 .text          0x000823d8       0x24 /opt/altera/13.0sp1/nios2eds/bin/gnu/H-i686-pc-linux-gnu/bin/../lib/gcc/nios2-elf/4.1.2/../../../../nios2-elf/lib/mno-hw-mul/libc.a(lib_a-putchar.o)
                0x000823d8                putchar
                0x000823f4                _putchar_r
 .text          0x000823fc       0xb4 /opt/altera/13.0sp1/nios2eds/bin/gnu/H-i686-pc-linux-gnu/bin/../lib/gcc/nios2-elf/4.1.2/../../../../nios2-elf/lib/mno-hw-mul/libc.a(lib_a-puts.o)
                0x000823fc                _puts_r
                0x0008249c                puts
 .text          0x000824b0       0x70 /opt/altera/13.0sp1/nios2eds/bin/gnu/H-i686-pc-linux-gnu/bin/../lib/gcc/nios2-elf/4.1.2/../../../../nios2-elf/lib/mno-hw-mul/libc.a(lib_a-sbrkr.o)
                0x000824b0                _sbrk_r
 .text          0x00082520       0x74 /opt/altera/13.0sp1/nios2eds/bin/gnu/H-i686-pc-linux-gnu/bin/../lib/gcc/nios2-elf/4.1.2/../../../../nios2-elf/lib/mno-hw-mul/libc.a(lib_a-strlen.o)
                0x00082520                strlen
 .text          0x00082594      0x440 /opt/altera/13.0sp1/nios2eds/bin/gnu/H-i686-pc-linux-gnu/bin/../lib/gcc/nios2-elf/4.1.2/../../../../nios2-elf/lib/mno-hw-mul/libc.a(lib_a-freer.o)
                0x00082594                _malloc_trim_r
                0x000826c0                _free_r
 .text          0x000829d4      0x49c /opt/altera/13.0sp1/nios2eds/bin/gnu/H-i686-pc-linux-gnu/bin/../lib/gcc/nios2-elf/4.1.2/../../../../nios2-elf/lib/mno-hw-mul/libc.a(lib_a-fvwrite.o)
                0x000829d4                __sfvwrite_r
 .text          0x00082e70        0x0 /opt/altera/13.0sp1/nios2eds/bin/gnu/H-i686-pc-linux-gnu/bin/../lib/gcc/nios2-elf/4.1.2/../../../../nios2-elf/lib/mno-hw-mul/libc.a(lib_a-impure.o)
 .text          0x00082e70        0x0 /opt/altera/13.0sp1/nios2eds/bin/gnu/H-i686-pc-linux-gnu/bin/../lib/gcc/nios2-elf/4.1.2/../../../../nios2-elf/lib/mno-hw-mul/libc.a(lib_a-int_errno.o)
 .text          0x00082e70       0xe4 /opt/altera/13.0sp1/nios2eds/bin/gnu/H-i686-pc-linux-gnu/bin/../lib/gcc/nios2-elf/4.1.2/../../../../nios2-elf/lib/mno-hw-mul/libc.a(lib_a-memchr.o)
                0x00082e70                memchr
 .text          0x00082f54       0xe0 /opt/altera/13.0sp1/nios2eds/bin/gnu/H-i686-pc-linux-gnu/bin/../lib/gcc/nios2-elf/4.1.2/../../../../nios2-elf/lib/mno-hw-mul/libc.a(lib_a-memmove.o)
                0x00082f54                memmove
 .text          0x00083034      0x1ec /opt/altera/13.0sp1/nios2eds/bin/gnu/H-i686-pc-linux-gnu/bin/../lib/gcc/nios2-elf/4.1.2/../../../../nios2-elf/lib/mno-hw-mul/libc.a(lib_a-putc.o)
                0x00083034                putc
                0x00083138                _putc_r
 .text          0x00083220      0x5f4 /opt/altera/13.0sp1/nios2eds/bin/gnu/H-i686-pc-linux-gnu/bin/../lib/gcc/nios2-elf/4.1.2/../../../../nios2-elf/lib/mno-hw-mul/libc.a(lib_a-reallocr.o)
                0x00083220                _realloc_r
 .text          0x00083814      0x14c /opt/altera/13.0sp1/nios2eds/bin/gnu/H-i686-pc-linux-gnu/bin/../lib/gcc/nios2-elf/4.1.2/../../../../nios2-elf/lib/mno-hw-mul/libc.a(lib_a-wbuf.o)
                0x00083814                __swbuf_r
                0x00083944                __swbuf
 .text          0x00083960      0x13c /opt/altera/13.0sp1/nios2eds/bin/gnu/H-i686-pc-linux-gnu/bin/../lib/gcc/nios2-elf/4.1.2/../../../../nios2-elf/lib/mno-hw-mul/libc.a(lib_a-wsetup.o)
                0x00083960                __swsetup_r
 .text          0x00083a9c      0x230 /opt/altera/13.0sp1/nios2eds/bin/gnu/H-i686-pc-linux-gnu/bin/../lib/gcc/nios2-elf/4.1.2/../../../../nios2-elf/lib/mno-hw-mul/libc.a(lib_a-fflush.o)
                0x00083a9c                _fflush_r
                0x00083c98                fflush
 .text          0x00083ccc      0x2f4 /opt/altera/13.0sp1/nios2eds/bin/gnu/H-i686-pc-linux-gnu/bin/../lib/gcc/nios2-elf/4.1.2/../../../../nios2-elf/lib/mno-hw-mul/libc.a(lib_a-findfp.o)
                0x00083d24                __sfp_lock_acquire
                0x00083d28                __sfp_lock_release
                0x00083d2c                __sinit_lock_acquire
                0x00083d30                __sinit_lock_release
                0x00083d34                __sinit
                0x00083de8                __fp_unlock_all
                0x00083e00                __fp_lock_all
                0x00083e18                _cleanup_r
                0x00083e24                _cleanup
                0x00083e34                __sfmoreglue
                0x00083ed0                __sfp
 .text          0x00083fc0      0x180 /opt/altera/13.0sp1/nios2eds/bin/gnu/H-i686-pc-linux-gnu/bin/../lib/gcc/nios2-elf/4.1.2/../../../../nios2-elf/lib/mno-hw-mul/libc.a(lib_a-fwalk.o)
                0x00083fc0                _fwalk_reent
                0x00084088                _fwalk
 .text          0x00084140      0x194 /opt/altera/13.0sp1/nios2eds/bin/gnu/H-i686-pc-linux-gnu/bin/../lib/gcc/nios2-elf/4.1.2/../../../../nios2-elf/lib/mno-hw-mul/libc.a(lib_a-makebuf.o)
                0x00084140                __smakebuf_r
 .text          0x000842d4       0x98 /opt/altera/13.0sp1/nios2eds/bin/gnu/H-i686-pc-linux-gnu/bin/../lib/gcc/nios2-elf/4.1.2/../../../../nios2-elf/lib/mno-hw-mul/libc.a(lib_a-memset.o)
                0x000842d4                memset
 .text          0x0008436c      0x14c /opt/altera/13.0sp1/nios2eds/bin/gnu/H-i686-pc-linux-gnu/bin/../lib/gcc/nios2-elf/4.1.2/../../../../nios2-elf/lib/mno-hw-mul/libc.a(lib_a-stdio.o)
                0x0008436c                __sclose
                0x00084374                __sseek
                0x000843dc                __swrite
                0x00084458                __sread
 .text          0x000844b8       0x78 /opt/altera/13.0sp1/nios2eds/bin/gnu/H-i686-pc-linux-gnu/bin/../lib/gcc/nios2-elf/4.1.2/../../../../nios2-elf/lib/mno-hw-mul/libc.a(lib_a-writer.o)
                0x000844b8                _write_r
 .text          0x00084530       0x70 /opt/altera/13.0sp1/nios2eds/bin/gnu/H-i686-pc-linux-gnu/bin/../lib/gcc/nios2-elf/4.1.2/../../../../nios2-elf/lib/mno-hw-mul/libc.a(lib_a-closer.o)
                0x00084530                _close_r
 .text          0x000845a0      0x124 /opt/altera/13.0sp1/nios2eds/bin/gnu/H-i686-pc-linux-gnu/bin/../lib/gcc/nios2-elf/4.1.2/../../../../nios2-elf/lib/mno-hw-mul/libc.a(lib_a-fclose.o)
                0x000845a0                _fclose_r
                0x000846b0                fclose
 .text          0x000846c4       0x74 /opt/altera/13.0sp1/nios2eds/bin/gnu/H-i686-pc-linux-gnu/bin/../lib/gcc/nios2-elf/4.1.2/../../../../nios2-elf/lib/mno-hw-mul/libc.a(lib_a-fstatr.o)
                0x000846c4                _fstat_r
 .text          0x00084738       0x70 /opt/altera/13.0sp1/nios2eds/bin/gnu/H-i686-pc-linux-gnu/bin/../lib/gcc/nios2-elf/4.1.2/../../../../nios2-elf/lib/mno-hw-mul/libc.a(lib_a-isattyr.o)
                0x00084738                _isatty_r
 .text          0x000847a8       0x78 /opt/altera/13.0sp1/nios2eds/bin/gnu/H-i686-pc-linux-gnu/bin/../lib/gcc/nios2-elf/4.1.2/../../../../nios2-elf/lib/mno-hw-mul/libc.a(lib_a-lseekr.o)
                0x000847a8                _lseek_r
 .text          0x00084820       0x78 /opt/altera/13.0sp1/nios2eds/bin/gnu/H-i686-pc-linux-gnu/bin/../lib/gcc/nios2-elf/4.1.2/../../../../nios2-elf/lib/mno-hw-mul/libc.a(lib_a-readr.o)
                0x00084820                _read_r
 .text          0x00084898       0xbc ../../bsp/mpsoc_hello_ucosii//libucosii_bsp.a(alt_close.o)
                0x000848b8                close
 .text          0x00084954        0x8 ../../bsp/mpsoc_hello_ucosii//libucosii_bsp.a(alt_dev.o)
 .text          0x0008495c        0x0 ../../bsp/mpsoc_hello_ucosii//libucosii_bsp.a(alt_errno.o)
 .text          0x0008495c       0x9c ../../bsp/mpsoc_hello_ucosii//libucosii_bsp.a(alt_fstat.o)
                0x0008495c                fstat
 .text          0x000849f8       0x94 ../../bsp/mpsoc_hello_ucosii//libucosii_bsp.a(alt_isatty.o)
                0x000849f8                isatty
 .text          0x00084a8c       0x8c ../../bsp/mpsoc_hello_ucosii//libucosii_bsp.a(alt_load.o)
                0x00084aac                alt_load
 .text          0x00084b18       0xb8 ../../bsp/mpsoc_hello_ucosii//libucosii_bsp.a(alt_lseek.o)
                0x00084b18                lseek
 .text          0x00084bd0       0xa8 ../../bsp/mpsoc_hello_ucosii//libucosii_bsp.a(alt_main.o)
                0x00084bd0                alt_main
 .text          0x00084c78       0xd8 ../../bsp/mpsoc_hello_ucosii//libucosii_bsp.a(alt_read.o)
                0x00084c98                read
 .text          0x00084d50       0x5c ../../bsp/mpsoc_hello_ucosii//libucosii_bsp.a(alt_release_fd.o)
                0x00084d50                alt_release_fd
 .text          0x00084dac       0x50 ../../bsp/mpsoc_hello_ucosii//libucosii_bsp.a(alt_sbrk.o)
                0x00084dac                sbrk
 .text          0x00084dfc       0xd4 ../../bsp/mpsoc_hello_ucosii//libucosii_bsp.a(alt_write.o)
                0x00084e1c                write
 .text          0x00084ed0       0xa8 ../../bsp/mpsoc_hello_ucosii//libucosii_bsp.a(alt_env_lock.o)
                0x00084ed0                __env_unlock
                0x00084ef8                __env_lock
 .text          0x00084f78      0x110 ../../bsp/mpsoc_hello_ucosii//libucosii_bsp.a(alt_malloc_lock.o)
                0x00084f78                __malloc_unlock
                0x00084fd4                __malloc_lock
 .text          0x00085088     0x1118 ../../bsp/mpsoc_hello_ucosii//libucosii_bsp.a(os_core.o)
                0x00085088                OSVersion
                0x00085090                OS_Dummy
                0x00085094                OS_EventTaskWait
                0x00085118                OS_EventTaskWaitMulti
                0x000851b8                OS_EventTaskRemove
                0x00085204                OS_EventTaskRemoveMulti
                0x00085260                OS_EventTaskRdy
                0x00085354                OS_EventWaitListInit
                0x00085370                OS_MemClr
                0x0008538c                OS_MemCopy
                0x000853b0                OS_StrCopy
                0x000853dc                OS_StrLen
                0x000853fc                OS_TaskStatStkChk
                0x00085480                OS_Sched
                0x00085538                OSStart
                0x000855a4                OSInit
                0x00085784                OSEventNameGet
                0x0008583c                OSEventPendMulti
                0x00085b94                OSIntEnter
                0x00085bd0                OSSchedLock
                0x00085c14                OSSchedUnlock
                0x00085c68                OSStatInit
                0x00085ccc                OSTimeTick
                0x00085dd8                OS_TaskIdle
                0x00085e08                OS_TaskStat
                0x00085e8c                OS_TCBInit
                0x00086010                OSIntExit
                0x000860e4                OSEventNameSet
 .text          0x000861a0        0x4 ../../bsp/mpsoc_hello_ucosii//libucosii_bsp.a(os_dbg.o)
                0x000861a0                OSDebugInit
 .text          0x000861a4      0xc5c ../../bsp/mpsoc_hello_ucosii//libucosii_bsp.a(os_flag.o)
                0x0008625c                OS_FlagUnlink
                0x00086328                OS_FlagInit
                0x00086398                OSFlagQuery
                0x000863f4                OSFlagAccept
                0x00086564                OSFlagCreate
                0x000865ec                OSFlagDel
                0x0008674c                OSFlagNameGet
                0x0008680c                OSFlagNameSet
                0x000868e0                OSFlagPend
                0x00086be0                OSFlagPendGetFlagsRdy
                0x00086c0c                OSFlagPost
 .text          0x00086e00      0x3b8 ../../bsp/mpsoc_hello_ucosii//libucosii_bsp.a(os_mem.o)
                0x00086e00                OS_MemInit
                0x00086e68                OSMemQuery
                0x00086ecc                OSMemCreate
                0x00086f9c                OSMemGet
                0x00087008                OSMemNameGet
                0x000870a4                OSMemNameSet
                0x00087160                OSMemPut
 .text          0x000871b8      0x9c4 ../../bsp/mpsoc_hello_ucosii//libucosii_bsp.a(os_q.o)
                0x000871b8                OS_QInit
                0x00087208                OSQQuery
                0x000872a0                OSQAccept
                0x0008733c                OSQCreate
                0x0008743c                OSQDel
                0x000875c0                OSQFlush
                0x00087610                OSQPend
                0x000877d0                OSQPendAbort
                0x000878b8                OSQPost
                0x00087974                OSQPostFront
                0x00087a38                OSQPostOpt
 .text          0x00087b7c      0x5e0 ../../bsp/mpsoc_hello_ucosii//libucosii_bsp.a(os_sem.o)
                0x00087b7c                OSSemSet
                0x00087be0                OSSemAccept
                0x00087c24                OSSemCreate
                0x00087cb0                OSSemDel
                0x00087e04                OSSemPend
                0x00087f6c                OSSemPendAbort
                0x00088058                OSSemPost
                0x000880f4                OSSemQuery
 .text          0x0008815c      0xe74 ../../bsp/mpsoc_hello_ucosii//libucosii_bsp.a(os_task.o)
                0x0008815c                OS_TaskStkClr
                0x0008818c                OSTaskQuery
                0x00088254                OSTaskChangePrio
                0x000884f0                OSTaskCreate
                0x000885fc                OSTaskCreateExt
                0x00088774                OSTaskDel
                0x000889c0                OSTaskDelReq
                0x00088a74                OSTaskNameGet
                0x00088b7c                OSTaskNameSet
                0x00088c98                OSTaskResume
                0x00088d9c                OSTaskStkChk
                0x00088e8c                OSTaskSuspend
 .text          0x00088fd0      0x378 ../../bsp/mpsoc_hello_ucosii//libucosii_bsp.a(os_time.o)
                0x00088fd0                OSTimeSet
                0x00088ff4                OSTimeDly
                0x0008908c                OSTimeDlyHMSM
                0x0008922c                OSTimeDlyResume
                0x00089324                OSTimeGet
 .text          0x00089348      0xb94 ../../bsp/mpsoc_hello_ucosii//libucosii_bsp.a(os_tmr.o)
                0x000894b4                OSTmr_Init
                0x00089710                OSTmrStop
                0x0008986c                OSTmrStart
                0x00089970                OSTmrStateGet
                0x00089a18                OSTmrRemainGet
                0x00089b30                OSTmrDel
                0x00089c2c                OSTmrSignal
                0x00089c54                OSTmrNameGet
                0x00089d40                OSTmrCreate
 .text          0x00089edc      0x168 ../../bsp/mpsoc_hello_ucosii//libucosii_bsp.a(alt_sys_init.o)
                0x00089f64                alt_sys_init
                0x0008a024                alt_irq_init
 .text          0x0008a044       0x3c ../../bsp/mpsoc_hello_ucosii//libucosii_bsp.a(altera_avalon_jtag_uart_fd.o)
                0x0008a044                altera_avalon_jtag_uart_ioctl_fd
                0x0008a050                altera_avalon_jtag_uart_close_fd
                0x0008a060                altera_avalon_jtag_uart_write_fd
                0x0008a070                altera_avalon_jtag_uart_read_fd
 .text          0x0008a080      0x2e0 ../../bsp/mpsoc_hello_ucosii//libucosii_bsp.a(altera_avalon_jtag_uart_init.o)
                0x0008a080                altera_avalon_jtag_uart_close
                0x0008a140                altera_avalon_jtag_uart_init
 .text          0x0008a360       0x7c ../../bsp/mpsoc_hello_ucosii//libucosii_bsp.a(altera_avalon_jtag_uart_ioctl.o)
                0x0008a360                altera_avalon_jtag_uart_ioctl
 .text          0x0008a3dc      0x1ac ../../bsp/mpsoc_hello_ucosii//libucosii_bsp.a(altera_avalon_jtag_uart_read.o)
                0x0008a3dc                altera_avalon_jtag_uart_read
 .text          0x0008a588      0x1b8 ../../bsp/mpsoc_hello_ucosii//libucosii_bsp.a(altera_avalon_jtag_uart_write.o)
                0x0008a588                altera_avalon_jtag_uart_write
 .text          0x0008a740      0x188 ../../bsp/mpsoc_hello_ucosii//libucosii_bsp.a(altera_avalon_mutex.o)
                0x0008a740                altera_avalon_mutex_close
                0x0008a744                altera_avalon_mutex_first_lock
                0x0008a754                altera_avalon_mutex_is_mine
                0x0008a7a4                altera_avalon_mutex_unlock
                0x0008a7c8                altera_avalon_mutex_trylock
                0x0008a824                altera_avalon_mutex_open
                0x0008a87c                altera_avalon_mutex_lock
 .text          0x0008a8c8       0x6c ../../bsp/mpsoc_hello_ucosii//libucosii_bsp.a(altera_avalon_timer_sc.o)
                0x0008a8c8                alt_avalon_timer_sc_init
 .text          0x0008a934      0x1e0 ../../bsp/mpsoc_hello_ucosii//libucosii_bsp.a(perf_print_formatted_report.o)
                0x0008a934                perf_print_formatted_report
 .text          0x0008ab14       0x90 ../../bsp/mpsoc_hello_ucosii//libucosii_bsp.a(alt_alarm_start.o)
                0x0008ab14                alt_alarm_start
 .text          0x0008aba4        0x4 ../../bsp/mpsoc_hello_ucosii//libucosii_bsp.a(alt_dcache_flush_all.o)
                0x0008aba4                alt_dcache_flush_all
 .text          0x0008aba8       0x70 ../../bsp/mpsoc_hello_ucosii//libucosii_bsp.a(alt_dev_llist_insert.o)
                0x0008aba8                alt_dev_llist_insert
 .text          0x0008ac18       0x40 ../../bsp/mpsoc_hello_ucosii//libucosii_bsp.a(alt_do_ctors.o)
                0x0008ac18                _do_ctors
 .text          0x0008ac58       0x40 ../../bsp/mpsoc_hello_ucosii//libucosii_bsp.a(alt_do_dtors.o)
                0x0008ac58                _do_dtors
 .text          0x0008ac98       0x70 ../../bsp/mpsoc_hello_ucosii//libucosii_bsp.a(alt_find_dev.o)
                0x0008ac98                alt_find_dev
 .text          0x0008ad08        0x4 ../../bsp/mpsoc_hello_ucosii//libucosii_bsp.a(alt_icache_flush_all.o)
                0x0008ad08                alt_icache_flush_all
 .text          0x0008ad0c      0x114 ../../bsp/mpsoc_hello_ucosii//libucosii_bsp.a(alt_io_redirect.o)
                0x0008ad94                alt_io_redirect
 .text          0x0008ae20       0xa0 ../../bsp/mpsoc_hello_ucosii//libucosii_bsp.a(alt_irq_register.o)
                0x0008ae20                alt_irq_register
 .text          0x0008aec0        0x0 ../../bsp/mpsoc_hello_ucosii//libucosii_bsp.a(alt_irq_vars.o)
 .text          0x0008aec0      0x17c ../../bsp/mpsoc_hello_ucosii//libucosii_bsp.a(alt_open.o)
                0x0008aec0                open
 .text          0x0008b03c       0xe0 ../../bsp/mpsoc_hello_ucosii//libucosii_bsp.a(alt_tick.o)
                0x0008b03c                alt_alarm_stop
                0x0008b070                alt_tick
 .text          0x0008b11c        0x8 ../../bsp/mpsoc_hello_ucosii//libucosii_bsp.a(altera_nios2_qsys_irq.o)
                0x0008b11c                altera_nios2_qsys_irq_init
 .text          0x0008b124       0xd0 ../../bsp/mpsoc_hello_ucosii//libucosii_bsp.a(os_cpu_a.o)
                0x0008b124                OSCtxSw
                0x0008b124                OSIntCtxSw
                0x0008b1b0                OSStartHighRdy
                0x0008b1d0                OSStartTsk
 .text          0x0008b1f4      0x228 ../../bsp/mpsoc_hello_ucosii//libucosii_bsp.a(os_cpu_c.o)
                0x0008b1f4                OSTaskCreateHook
                0x0008b1f8                OSTaskDelHook
                0x0008b1fc                OSTaskSwHook
                0x0008b200                OSTaskStatHook
                0x0008b204                OSInitHookBegin
                0x0008b20c                OSInitHookEnd
                0x0008b210                OSTaskIdleHook
                0x0008b214                OSTCBInitHook
                0x0008b218                OSTimeTickHook
                0x0008b270                OSTaskStkInit
 .text          0x0008b41c       0x60 ../../bsp/mpsoc_hello_ucosii//libucosii_bsp.a(altera_avalon_performance_counter.o)
                0x0008b41c                alt_get_performance_counter_base
                0x0008b428                alt_get_cpu_freq
                0x0008b434                perf_get_num_starts
                0x0008b444                perf_get_section_time
                0x0008b474                perf_get_total_time
 .text          0x0008b47c       0x9c ../../bsp/mpsoc_hello_ucosii//libucosii_bsp.a(alt_find_file.o)
                0x0008b47c                alt_find_file
 .text          0x0008b518       0xa4 ../../bsp/mpsoc_hello_ucosii//libucosii_bsp.a(alt_get_fd.o)
                0x0008b518                alt_get_fd
 .text          0x0008b5bc        0x0 ../../bsp/mpsoc_hello_ucosii//libucosii_bsp.a(alt_irq_entry.o)
 .text          0x0008b5bc        0x0 ../../bsp/mpsoc_hello_ucosii//libucosii_bsp.a(alt_irq_handler.o)
 .text          0x0008b5bc        0x0 ../../bsp/mpsoc_hello_ucosii//libucosii_bsp.a(alt_exception_entry.o)
 .text          0x0008b5bc       0x14 /opt/altera/13.0sp1/nios2eds/bin/gnu/H-i686-pc-linux-gnu/bin/../lib/gcc/nios2-elf/4.1.2/../../../../nios2-elf/lib/mno-hw-mul/libc.a(lib_a-atexit.o)
                0x0008b5bc                atexit
 .text          0x0008b5d0       0x38 /opt/altera/13.0sp1/nios2eds/bin/gnu/H-i686-pc-linux-gnu/bin/../lib/gcc/nios2-elf/4.1.2/../../../../nios2-elf/lib/mno-hw-mul/libc.a(lib_a-exit.o)
                0x0008b5d0                exit
 .text          0x0008b608       0x74 /opt/altera/13.0sp1/nios2eds/bin/gnu/H-i686-pc-linux-gnu/bin/../lib/gcc/nios2-elf/4.1.2/../../../../nios2-elf/lib/mno-hw-mul/libc.a(lib_a-memcmp.o)
                0x0008b608                memcmp
 .text          0x0008b67c       0x78 /opt/altera/13.0sp1/nios2eds/bin/gnu/H-i686-pc-linux-gnu/bin/../lib/gcc/nios2-elf/4.1.2/../../../../nios2-elf/lib/mno-hw-mul/libc.a(lib_a-printf.o)
                0x0008b67c                printf
                0x0008b6c0                _printf_r
 .text          0x0008b6f4     0x1f40 /opt/altera/13.0sp1/nios2eds/bin/gnu/H-i686-pc-linux-gnu/bin/../lib/gcc/nios2-elf/4.1.2/../../../../nios2-elf/lib/mno-hw-mul/libc.a(lib_a-vfprintf.o)
                0x0008b74c                ___vfprintf_internal_r
                0x0008d610                __vfprintf_internal
 .text          0x0008d634      0x134 /opt/altera/13.0sp1/nios2eds/bin/gnu/H-i686-pc-linux-gnu/bin/../lib/gcc/nios2-elf/4.1.2/../../../../nios2-elf/lib/mno-hw-mul/libc.a(lib_a-__atexit.o)
                0x0008d634                __register_exitproc
 .text          0x0008d768      0x1b4 /opt/altera/13.0sp1/nios2eds/bin/gnu/H-i686-pc-linux-gnu/bin/../lib/gcc/nios2-elf/4.1.2/../../../../nios2-elf/lib/mno-hw-mul/libc.a(lib_a-__call_atexit.o)
                0x0008d76c                __call_exitprocs
 .text          0x0008d91c     0x17f8 /opt/altera/13.0sp1/nios2eds/bin/gnu/H-i686-pc-linux-gnu/bin/../lib/gcc/nios2-elf/4.1.2/../../../../nios2-elf/lib/mno-hw-mul/libc.a(lib_a-dtoa.o)
                0x0008db60                _dtoa_r
 .text          0x0008f114       0xc4 /opt/altera/13.0sp1/nios2eds/bin/gnu/H-i686-pc-linux-gnu/bin/../lib/gcc/nios2-elf/4.1.2/../../../../nios2-elf/lib/mno-hw-mul/libc.a(lib_a-locale.o)
                0x0008f114                __locale_charset
                0x0008f11c                _localeconv_r
                0x0008f128                localeconv
                0x0008f138                _setlocale_r
                0x0008f1bc                setlocale
 .text          0x0008f1d8     0x108c /opt/altera/13.0sp1/nios2eds/bin/gnu/H-i686-pc-linux-gnu/bin/../lib/gcc/nios2-elf/4.1.2/../../../../nios2-elf/lib/mno-hw-mul/libc.a(lib_a-mprec.o)
                0x0008f1d8                _Bfree
                0x0008f200                __hi0bits
                0x0008f270                __lo0bits
                0x0008f334                __mcmp
                0x0008f394                __ulp
                0x0008f414                __b2d
                0x0008f534                __ratio
                0x0008f5e4                _mprec_log10
                0x0008f678                __copybits
                0x0008f6d0                __any_on
                0x0008f758                _Balloc
                0x0008f814                __d2b
                0x0008f990                __mdiff
                0x0008fb1c                __lshift
                0x0008fc68                __multiply
                0x0008febc                __i2b
                0x0008fef8                __multadd
                0x00090024                __pow5mult
                0x00090144                __s2b
 .text          0x00090264       0x40 /opt/altera/13.0sp1/nios2eds/bin/gnu/H-i686-pc-linux-gnu/bin/../lib/gcc/nios2-elf/4.1.2/../../../../nios2-elf/lib/mno-hw-mul/libc.a(lib_a-s_isinfd.o)
                0x00090264                __isinfd
 .text          0x000902a4       0x30 /opt/altera/13.0sp1/nios2eds/bin/gnu/H-i686-pc-linux-gnu/bin/../lib/gcc/nios2-elf/4.1.2/../../../../nios2-elf/lib/mno-hw-mul/libc.a(lib_a-s_isnand.o)
                0x000902a4                __isnand
 .text          0x000902d4       0xbc /opt/altera/13.0sp1/nios2eds/bin/gnu/H-i686-pc-linux-gnu/bin/../lib/gcc/nios2-elf/4.1.2/../../../../nios2-elf/lib/mno-hw-mul/libc.a(lib_a-strcmp.o)
                0x000902d4                strcmp
 .text          0x00090390       0xc8 /opt/altera/13.0sp1/nios2eds/bin/gnu/H-i686-pc-linux-gnu/bin/../lib/gcc/nios2-elf/4.1.2/../../../../nios2-elf/lib/mno-hw-mul/libc.a(lib_a-callocr.o)
                0x00090390                _calloc_r
 .text          0x00090458       0xa4 /opt/altera/13.0sp1/nios2eds/bin/gnu/H-i686-pc-linux-gnu/bin/../lib/gcc/nios2-elf/4.1.2/mno-hw-mul/libgcc.a(_fixunsdfsi.o)
                0x00090458                __fixunsdfsi
 .text          0x000904fc       0x88 /opt/altera/13.0sp1/nios2eds/bin/gnu/H-i686-pc-linux-gnu/bin/../lib/gcc/nios2-elf/4.1.2/mno-hw-mul/libgcc.a(_floatundidf.o)
                0x000904fc                __floatundidf
 .text          0x00090584      0x66c /opt/altera/13.0sp1/nios2eds/bin/gnu/H-i686-pc-linux-gnu/bin/../lib/gcc/nios2-elf/4.1.2/mno-hw-mul/libgcc.a(_udivdi3.o)
                0x00090584                __udivdi3
 .text          0x00090bf0      0x660 /opt/altera/13.0sp1/nios2eds/bin/gnu/H-i686-pc-linux-gnu/bin/../lib/gcc/nios2-elf/4.1.2/mno-hw-mul/libgcc.a(_umoddi3.o)
                0x00090bf0                __umoddi3
 .text          0x00091250      0x258 /opt/altera/13.0sp1/nios2eds/bin/gnu/H-i686-pc-linux-gnu/bin/../lib/gcc/nios2-elf/4.1.2/mno-hw-mul/libgcc.a(_div_df.o)
                0x00091250                __divdf3
 .text          0x000914a8       0x88 /opt/altera/13.0sp1/nios2eds/bin/gnu/H-i686-pc-linux-gnu/bin/../lib/gcc/nios2-elf/4.1.2/mno-hw-mul/libgcc.a(_eq_df.o)
                0x000914a8                __eqdf2
 .text          0x00091530       0x88 /opt/altera/13.0sp1/nios2eds/bin/gnu/H-i686-pc-linux-gnu/bin/../lib/gcc/nios2-elf/4.1.2/mno-hw-mul/libgcc.a(_ne_df.o)
                0x00091530                __nedf2
 .text          0x000915b8       0x88 /opt/altera/13.0sp1/nios2eds/bin/gnu/H-i686-pc-linux-gnu/bin/../lib/gcc/nios2-elf/4.1.2/mno-hw-mul/libgcc.a(_gt_df.o)
                0x000915b8                __gtdf2
 .text          0x00091640       0x88 /opt/altera/13.0sp1/nios2eds/bin/gnu/H-i686-pc-linux-gnu/bin/../lib/gcc/nios2-elf/4.1.2/mno-hw-mul/libgcc.a(_ge_df.o)
                0x00091640                __gedf2
 .text          0x000916c8       0x88 /opt/altera/13.0sp1/nios2eds/bin/gnu/H-i686-pc-linux-gnu/bin/../lib/gcc/nios2-elf/4.1.2/mno-hw-mul/libgcc.a(_lt_df.o)
                0x000916c8                __ltdf2
 .text          0x00091750       0xd8 /opt/altera/13.0sp1/nios2eds/bin/gnu/H-i686-pc-linux-gnu/bin/../lib/gcc/nios2-elf/4.1.2/mno-hw-mul/libgcc.a(_df_to_si.o)
                0x00091750                __fixdfsi
 .text          0x00091828      0x194 /opt/altera/13.0sp1/nios2eds/bin/gnu/H-i686-pc-linux-gnu/bin/../lib/gcc/nios2-elf/4.1.2/mno-hw-mul/libgcc.a(_usi_to_df.o)
                0x00091828                __floatunsidf
 .text          0x000919bc       0xc8 /opt/altera/13.0sp1/nios2eds/bin/gnu/H-i686-pc-linux-gnu/bin/../lib/gcc/nios2-elf/4.1.2/mno-hw-mul/libgcc.a(_fpcmp_parts_df.o)
                0x000919bc                __fpcmp_parts_d
 .text          0x00091a84       0x20 ../../bsp/mpsoc_hello_ucosii//libucosii_bsp.a(alt_exit.o)
                0x00091a84                _exit
 *(.gnu.warning.*)
 *(.fini)
                0x00091aa4                PROVIDE (__etext, ABSOLUTE (.))
                0x00091aa4                PROVIDE (_etext, ABSOLUTE (.))
                0x00091aa4                PROVIDE (etext, ABSOLUTE (.))
 *(.eh_frame_hdr)
                0x00091aa4                . = ALIGN (0x4)
                0x00091aa4                PROVIDE (__preinit_array_start, ABSOLUTE (.))
 *(.preinit_array)
                0x00091aa4                PROVIDE (__preinit_array_end, ABSOLUTE (.))
                0x00091aa4                PROVIDE (__init_array_start, ABSOLUTE (.))
 *(.init_array)
                0x00091aa4                PROVIDE (__init_array_end, ABSOLUTE (.))
                0x00091aa4                PROVIDE (__fini_array_start, ABSOLUTE (.))
 *(.fini_array)
                0x00091aa4                PROVIDE (__fini_array_end, ABSOLUTE (.))
 *(.eh_frame)
 *(.gcc_except_table)
 *(.dynamic)
                0x00091aa4                PROVIDE (__CTOR_LIST__, ABSOLUTE (.))
 *(.ctors)
 *(SORT(.ctors.*))
 .ctors.65535   0x00091aa4        0x4 /opt/altera/13.0sp1/nios2eds/bin/gnu/H-i686-pc-linux-gnu/bin/../lib/gcc/nios2-elf/4.1.2/../../../../nios2-elf/lib/mno-hw-mul/libc.a(lib_a-__call_atexit.o)
                0x00091aa8                PROVIDE (__CTOR_END__, ABSOLUTE (.))
                0x00091aa8                PROVIDE (__DTOR_LIST__, ABSOLUTE (.))
 *(.dtors)
 *(SORT(.dtors.*))
                0x00091aa8                PROVIDE (__DTOR_END__, ABSOLUTE (.))
 *(.jcr)
                0x00091aa8                . = ALIGN (0x4)

.rodata         0x00091aa8      0x674
                0x00091aa8                PROVIDE (__ram_rodata_start, ABSOLUTE (.))
                0x00091aa8                . = ALIGN (0x4)
 *(.rodata .rodata.* .gnu.linkonce.r.*)
 .rodata.str1.4
                0x00091aa8       0x5b obj/default/src/image_bare.o
                                 0x5c (size before relaxing)
 .rodata        0x00091b03       0x10 obj/default/src/image_bare.o
 *fill*         0x00091b13        0x1 00
 .rodata        0x00091b14       0x14 /opt/altera/13.0sp1/nios2eds/bin/gnu/H-i686-pc-linux-gnu/bin/../lib/gcc/nios2-elf/4.1.2/mno-hw-mul/libgcc.a(_thenan_df.o)
                0x00091b14                __thenan_df
 .rodata        0x00091b28      0x100 /opt/altera/13.0sp1/nios2eds/bin/gnu/H-i686-pc-linux-gnu/bin/../lib/gcc/nios2-elf/4.1.2/mno-hw-mul/libgcc.a(_clz.o)
                0x00091b28                __clz_tab
 .rodata.str1.4
                0x00091c28        0x2 /opt/altera/13.0sp1/nios2eds/bin/gnu/H-i686-pc-linux-gnu/bin/../lib/gcc/nios2-elf/4.1.2/../../../../nios2-elf/lib/mno-hw-mul/libc.a(lib_a-puts.o)
                                  0x4 (size before relaxing)
 *fill*         0x00091c2a        0x2 00
 .rodata.str1.4
                0x00091c2c        0x2 /opt/altera/13.0sp1/nios2eds/bin/gnu/H-i686-pc-linux-gnu/bin/../lib/gcc/nios2-elf/4.1.2/../../../../nios2-elf/lib/mno-hw-mul/libc.a(lib_a-impure.o)
                                  0x4 (size before relaxing)
 *fill*         0x00091c2e        0x2 00
 .rodata.str1.4
                0x00091c30        0xa ../../bsp/mpsoc_hello_ucosii//libucosii_bsp.a(alt_dev.o)
                                  0xc (size before relaxing)
 *fill*         0x00091c3a        0x2 00
 .rodata.str1.4
                0x00091c3c       0x11 ../../bsp/mpsoc_hello_ucosii//libucosii_bsp.a(alt_main.o)
                                 0x14 (size before relaxing)
 *fill*         0x00091c4d        0x3 00
 .rodata.str1.4
                0x00091c50       0x1e ../../bsp/mpsoc_hello_ucosii//libucosii_bsp.a(os_core.o)
                                 0x20 (size before relaxing)
 .rodata        0x00091c6e      0x100 ../../bsp/mpsoc_hello_ucosii//libucosii_bsp.a(os_core.o)
                0x00091c6e                OSUnMapTbl
 *fill*         0x00091d6e        0x2 00
 .rodata.str1.4
                0x00091d70       0x35 ../../bsp/mpsoc_hello_ucosii//libucosii_bsp.a(os_tmr.o)
                                 0x38 (size before relaxing)
 *fill*         0x00091da5        0x3 00
 .rodata.str1.4
                0x00091da8       0x7f ../../bsp/mpsoc_hello_ucosii//libucosii_bsp.a(alt_sys_init.o)
                                 0x94 (size before relaxing)
 *fill*         0x00091e27        0x1 00
 .rodata.str1.4
                0x00091e28      0x100 ../../bsp/mpsoc_hello_ucosii//libucosii_bsp.a(perf_print_formatted_report.o)
 .rodata.str1.4
                0x00000000        0x4 ../../bsp/mpsoc_hello_ucosii//libucosii_bsp.a(os_cpu_c.o)
 .rodata.str1.4
                0x00091f28       0x5e /opt/altera/13.0sp1/nios2eds/bin/gnu/H-i686-pc-linux-gnu/bin/../lib/gcc/nios2-elf/4.1.2/../../../../nios2-elf/lib/mno-hw-mul/libc.a(lib_a-vfprintf.o)
                                 0x60 (size before relaxing)
 .rodata        0x00091f86       0x20 /opt/altera/13.0sp1/nios2eds/bin/gnu/H-i686-pc-linux-gnu/bin/../lib/gcc/nios2-elf/4.1.2/../../../../nios2-elf/lib/mno-hw-mul/libc.a(lib_a-vfprintf.o)
 *fill*         0x00091fa6        0x2 00
 .rodata.str1.4
                0x00091fa8       0x10 /opt/altera/13.0sp1/nios2eds/bin/gnu/H-i686-pc-linux-gnu/bin/../lib/gcc/nios2-elf/4.1.2/../../../../nios2-elf/lib/mno-hw-mul/libc.a(lib_a-dtoa.o)
                                 0x14 (size before relaxing)
 .rodata.str1.4
                0x00091fb8       0x10 /opt/altera/13.0sp1/nios2eds/bin/gnu/H-i686-pc-linux-gnu/bin/../lib/gcc/nios2-elf/4.1.2/../../../../nios2-elf/lib/mno-hw-mul/libc.a(lib_a-locale.o)
                                 0x18 (size before relaxing)
 .rodata        0x00091fc8       0x30 /opt/altera/13.0sp1/nios2eds/bin/gnu/H-i686-pc-linux-gnu/bin/../lib/gcc/nios2-elf/4.1.2/../../../../nios2-elf/lib/mno-hw-mul/libc.a(lib_a-locale.o)
 .rodata        0x00091ff8      0x124 /opt/altera/13.0sp1/nios2eds/bin/gnu/H-i686-pc-linux-gnu/bin/../lib/gcc/nios2-elf/4.1.2/../../../../nios2-elf/lib/mno-hw-mul/libc.a(lib_a-mprec.o)
                0x00091ff8                __mprec_tens
                0x000920c0                __mprec_bigtens
                0x000920e8                __mprec_tinytens
 *(.rodata1)
                0x0009211c                . = ALIGN (0x4)
                0x0009211c                PROVIDE (__ram_rodata_end, ABSOLUTE (.))
                0x00091aa8                PROVIDE (__flash_rodata_start, LOADADDR (.rodata))

.rwdata         0x0009211c     0xdbf4 load address 0x0009fd10
                0x0009211c                PROVIDE (__ram_rwdata_start, ABSOLUTE (.))
                0x0009211c                . = ALIGN (0x4)
 *(.got.plt)
 *(.got)
 *(.data1)
 *(.data .data.* .gnu.linkonce.d.*)
 .data          0x0009211c        0x0 ../../bsp/mpsoc_hello_ucosii//obj/HAL/src/crt0.o
 .data          0x0009211c     0xc01c obj/default/src/image_bare.o
                0x0009211c                test_ppm_1
                0x0009511f                test_ppm_2
                0x00098122                test_ppm_3
                0x0009b125                test_ppm_4
                0x0009e128                image_sequence
 .data          0x0009e138        0x0 /opt/altera/13.0sp1/nios2eds/bin/gnu/H-i686-pc-linux-gnu/bin/../lib/gcc/nios2-elf/4.1.2/mno-hw-mul/libgcc.a(_addsub_df.o)
 .data          0x0009e138        0x0 /opt/altera/13.0sp1/nios2eds/bin/gnu/H-i686-pc-linux-gnu/bin/../lib/gcc/nios2-elf/4.1.2/mno-hw-mul/libgcc.a(_mul_df.o)
 .data          0x0009e138        0x0 /opt/altera/13.0sp1/nios2eds/bin/gnu/H-i686-pc-linux-gnu/bin/../lib/gcc/nios2-elf/4.1.2/mno-hw-mul/libgcc.a(_si_to_df.o)
 .data          0x0009e138        0x0 /opt/altera/13.0sp1/nios2eds/bin/gnu/H-i686-pc-linux-gnu/bin/../lib/gcc/nios2-elf/4.1.2/mno-hw-mul/libgcc.a(_df_to_sf.o)
 .data          0x0009e138        0x0 /opt/altera/13.0sp1/nios2eds/bin/gnu/H-i686-pc-linux-gnu/bin/../lib/gcc/nios2-elf/4.1.2/mno-hw-mul/libgcc.a(_thenan_df.o)
 .data          0x0009e138        0x0 /opt/altera/13.0sp1/nios2eds/bin/gnu/H-i686-pc-linux-gnu/bin/../lib/gcc/nios2-elf/4.1.2/mno-hw-mul/libgcc.a(lib2-divmod.o)
 .data          0x0009e138        0x0 /opt/altera/13.0sp1/nios2eds/bin/gnu/H-i686-pc-linux-gnu/bin/../lib/gcc/nios2-elf/4.1.2/mno-hw-mul/libgcc.a(lib2-mul.o)
 .data          0x0009e138        0x0 /opt/altera/13.0sp1/nios2eds/bin/gnu/H-i686-pc-linux-gnu/bin/../lib/gcc/nios2-elf/4.1.2/mno-hw-mul/libgcc.a(_muldi3.o)
 .data          0x0009e138        0x0 /opt/altera/13.0sp1/nios2eds/bin/gnu/H-i686-pc-linux-gnu/bin/../lib/gcc/nios2-elf/4.1.2/mno-hw-mul/libgcc.a(_clzsi2.o)
 .data          0x0009e138        0x0 /opt/altera/13.0sp1/nios2eds/bin/gnu/H-i686-pc-linux-gnu/bin/../lib/gcc/nios2-elf/4.1.2/mno-hw-mul/libgcc.a(_make_sf.o)
 .data          0x0009e138        0x0 /opt/altera/13.0sp1/nios2eds/bin/gnu/H-i686-pc-linux-gnu/bin/../lib/gcc/nios2-elf/4.1.2/mno-hw-mul/libgcc.a(_pack_df.o)
 .data          0x0009e138        0x0 /opt/altera/13.0sp1/nios2eds/bin/gnu/H-i686-pc-linux-gnu/bin/../lib/gcc/nios2-elf/4.1.2/mno-hw-mul/libgcc.a(_unpack_df.o)
 .data          0x0009e138        0x0 /opt/altera/13.0sp1/nios2eds/bin/gnu/H-i686-pc-linux-gnu/bin/../lib/gcc/nios2-elf/4.1.2/mno-hw-mul/libgcc.a(_clz.o)
 .data          0x0009e138        0x0 /opt/altera/13.0sp1/nios2eds/bin/gnu/H-i686-pc-linux-gnu/bin/../lib/gcc/nios2-elf/4.1.2/mno-hw-mul/libgcc.a(_pack_sf.o)
 .data          0x0009e138        0x0 /opt/altera/13.0sp1/nios2eds/bin/gnu/H-i686-pc-linux-gnu/bin/../lib/gcc/nios2-elf/4.1.2/../../../../nios2-elf/lib/mno-hw-mul/libc.a(lib_a-malloc.o)
 .data          0x0009e138      0x408 /opt/altera/13.0sp1/nios2eds/bin/gnu/H-i686-pc-linux-gnu/bin/../lib/gcc/nios2-elf/4.1.2/../../../../nios2-elf/lib/mno-hw-mul/libc.a(lib_a-mallocr.o)
                0x0009e138                __malloc_av_
 .data          0x0009e540        0x0 /opt/altera/13.0sp1/nios2eds/bin/gnu/H-i686-pc-linux-gnu/bin/../lib/gcc/nios2-elf/4.1.2/../../../../nios2-elf/lib/mno-hw-mul/libc.a(lib_a-memcpy.o)
 .data          0x0009e540        0x0 /opt/altera/13.0sp1/nios2eds/bin/gnu/H-i686-pc-linux-gnu/bin/../lib/gcc/nios2-elf/4.1.2/../../../../nios2-elf/lib/mno-hw-mul/libc.a(lib_a-putchar.o)
 .data          0x0009e540        0x0 /opt/altera/13.0sp1/nios2eds/bin/gnu/H-i686-pc-linux-gnu/bin/../lib/gcc/nios2-elf/4.1.2/../../../../nios2-elf/lib/mno-hw-mul/libc.a(lib_a-puts.o)
 .data          0x0009e540        0x0 /opt/altera/13.0sp1/nios2eds/bin/gnu/H-i686-pc-linux-gnu/bin/../lib/gcc/nios2-elf/4.1.2/../../../../nios2-elf/lib/mno-hw-mul/libc.a(lib_a-sbrkr.o)
 .data          0x0009e540        0x0 /opt/altera/13.0sp1/nios2eds/bin/gnu/H-i686-pc-linux-gnu/bin/../lib/gcc/nios2-elf/4.1.2/../../../../nios2-elf/lib/mno-hw-mul/libc.a(lib_a-strlen.o)
 .data          0x0009e540        0x0 /opt/altera/13.0sp1/nios2eds/bin/gnu/H-i686-pc-linux-gnu/bin/../lib/gcc/nios2-elf/4.1.2/../../../../nios2-elf/lib/mno-hw-mul/libc.a(lib_a-freer.o)
 .data          0x0009e540        0x0 /opt/altera/13.0sp1/nios2eds/bin/gnu/H-i686-pc-linux-gnu/bin/../lib/gcc/nios2-elf/4.1.2/../../../../nios2-elf/lib/mno-hw-mul/libc.a(lib_a-fvwrite.o)
 .data          0x0009e540      0x400 /opt/altera/13.0sp1/nios2eds/bin/gnu/H-i686-pc-linux-gnu/bin/../lib/gcc/nios2-elf/4.1.2/../../../../nios2-elf/lib/mno-hw-mul/libc.a(lib_a-impure.o)
 .data          0x0009e940        0x0 /opt/altera/13.0sp1/nios2eds/bin/gnu/H-i686-pc-linux-gnu/bin/../lib/gcc/nios2-elf/4.1.2/../../../../nios2-elf/lib/mno-hw-mul/libc.a(lib_a-int_errno.o)
 .data          0x0009e940        0x0 /opt/altera/13.0sp1/nios2eds/bin/gnu/H-i686-pc-linux-gnu/bin/../lib/gcc/nios2-elf/4.1.2/../../../../nios2-elf/lib/mno-hw-mul/libc.a(lib_a-memchr.o)
 .data          0x0009e940        0x0 /opt/altera/13.0sp1/nios2eds/bin/gnu/H-i686-pc-linux-gnu/bin/../lib/gcc/nios2-elf/4.1.2/../../../../nios2-elf/lib/mno-hw-mul/libc.a(lib_a-memmove.o)
 .data          0x0009e940        0x0 /opt/altera/13.0sp1/nios2eds/bin/gnu/H-i686-pc-linux-gnu/bin/../lib/gcc/nios2-elf/4.1.2/../../../../nios2-elf/lib/mno-hw-mul/libc.a(lib_a-putc.o)
 .data          0x0009e940        0x0 /opt/altera/13.0sp1/nios2eds/bin/gnu/H-i686-pc-linux-gnu/bin/../lib/gcc/nios2-elf/4.1.2/../../../../nios2-elf/lib/mno-hw-mul/libc.a(lib_a-reallocr.o)
 .data          0x0009e940        0x0 /opt/altera/13.0sp1/nios2eds/bin/gnu/H-i686-pc-linux-gnu/bin/../lib/gcc/nios2-elf/4.1.2/../../../../nios2-elf/lib/mno-hw-mul/libc.a(lib_a-wbuf.o)
 .data          0x0009e940        0x0 /opt/altera/13.0sp1/nios2eds/bin/gnu/H-i686-pc-linux-gnu/bin/../lib/gcc/nios2-elf/4.1.2/../../../../nios2-elf/lib/mno-hw-mul/libc.a(lib_a-wsetup.o)
 .data          0x0009e940        0x0 /opt/altera/13.0sp1/nios2eds/bin/gnu/H-i686-pc-linux-gnu/bin/../lib/gcc/nios2-elf/4.1.2/../../../../nios2-elf/lib/mno-hw-mul/libc.a(lib_a-fflush.o)
 .data          0x0009e940        0x0 /opt/altera/13.0sp1/nios2eds/bin/gnu/H-i686-pc-linux-gnu/bin/../lib/gcc/nios2-elf/4.1.2/../../../../nios2-elf/lib/mno-hw-mul/libc.a(lib_a-findfp.o)
 .data          0x0009e940        0x0 /opt/altera/13.0sp1/nios2eds/bin/gnu/H-i686-pc-linux-gnu/bin/../lib/gcc/nios2-elf/4.1.2/../../../../nios2-elf/lib/mno-hw-mul/libc.a(lib_a-fwalk.o)
 .data          0x0009e940        0x0 /opt/altera/13.0sp1/nios2eds/bin/gnu/H-i686-pc-linux-gnu/bin/../lib/gcc/nios2-elf/4.1.2/../../../../nios2-elf/lib/mno-hw-mul/libc.a(lib_a-makebuf.o)
 .data          0x0009e940        0x0 /opt/altera/13.0sp1/nios2eds/bin/gnu/H-i686-pc-linux-gnu/bin/../lib/gcc/nios2-elf/4.1.2/../../../../nios2-elf/lib/mno-hw-mul/libc.a(lib_a-memset.o)
 .data          0x0009e940        0x0 /opt/altera/13.0sp1/nios2eds/bin/gnu/H-i686-pc-linux-gnu/bin/../lib/gcc/nios2-elf/4.1.2/../../../../nios2-elf/lib/mno-hw-mul/libc.a(lib_a-stdio.o)
 .data          0x0009e940        0x0 /opt/altera/13.0sp1/nios2eds/bin/gnu/H-i686-pc-linux-gnu/bin/../lib/gcc/nios2-elf/4.1.2/../../../../nios2-elf/lib/mno-hw-mul/libc.a(lib_a-writer.o)
 .data          0x0009e940        0x0 /opt/altera/13.0sp1/nios2eds/bin/gnu/H-i686-pc-linux-gnu/bin/../lib/gcc/nios2-elf/4.1.2/../../../../nios2-elf/lib/mno-hw-mul/libc.a(lib_a-closer.o)
 .data          0x0009e940        0x0 /opt/altera/13.0sp1/nios2eds/bin/gnu/H-i686-pc-linux-gnu/bin/../lib/gcc/nios2-elf/4.1.2/../../../../nios2-elf/lib/mno-hw-mul/libc.a(lib_a-fclose.o)
 .data          0x0009e940        0x0 /opt/altera/13.0sp1/nios2eds/bin/gnu/H-i686-pc-linux-gnu/bin/../lib/gcc/nios2-elf/4.1.2/../../../../nios2-elf/lib/mno-hw-mul/libc.a(lib_a-fstatr.o)
 .data          0x0009e940        0x0 /opt/altera/13.0sp1/nios2eds/bin/gnu/H-i686-pc-linux-gnu/bin/../lib/gcc/nios2-elf/4.1.2/../../../../nios2-elf/lib/mno-hw-mul/libc.a(lib_a-isattyr.o)
 .data          0x0009e940        0x0 /opt/altera/13.0sp1/nios2eds/bin/gnu/H-i686-pc-linux-gnu/bin/../lib/gcc/nios2-elf/4.1.2/../../../../nios2-elf/lib/mno-hw-mul/libc.a(lib_a-lseekr.o)
 .data          0x0009e940        0x0 /opt/altera/13.0sp1/nios2eds/bin/gnu/H-i686-pc-linux-gnu/bin/../lib/gcc/nios2-elf/4.1.2/../../../../nios2-elf/lib/mno-hw-mul/libc.a(lib_a-readr.o)
 .data          0x0009e940        0x0 ../../bsp/mpsoc_hello_ucosii//libucosii_bsp.a(alt_close.o)
 .data          0x0009e940      0x1a8 ../../bsp/mpsoc_hello_ucosii//libucosii_bsp.a(alt_dev.o)
                0x0009e940                alt_dev_null
                0x0009e968                alt_fd_list
 .data          0x0009eae8        0x0 ../../bsp/mpsoc_hello_ucosii//libucosii_bsp.a(alt_errno.o)
 .data          0x0009eae8        0x0 ../../bsp/mpsoc_hello_ucosii//libucosii_bsp.a(alt_fstat.o)
 .data          0x0009eae8        0x0 ../../bsp/mpsoc_hello_ucosii//libucosii_bsp.a(alt_isatty.o)
 .data          0x0009eae8        0x0 ../../bsp/mpsoc_hello_ucosii//libucosii_bsp.a(alt_load.o)
 .data          0x0009eae8        0x0 ../../bsp/mpsoc_hello_ucosii//libucosii_bsp.a(alt_lseek.o)
 .data          0x0009eae8        0x0 ../../bsp/mpsoc_hello_ucosii//libucosii_bsp.a(alt_main.o)
 .data          0x0009eae8        0x0 ../../bsp/mpsoc_hello_ucosii//libucosii_bsp.a(alt_read.o)
 .data          0x0009eae8        0x0 ../../bsp/mpsoc_hello_ucosii//libucosii_bsp.a(alt_release_fd.o)
 .data          0x0009eae8        0x0 ../../bsp/mpsoc_hello_ucosii//libucosii_bsp.a(alt_sbrk.o)
 .data          0x0009eae8        0x0 ../../bsp/mpsoc_hello_ucosii//libucosii_bsp.a(alt_write.o)
 .data          0x0009eae8        0x0 ../../bsp/mpsoc_hello_ucosii//libucosii_bsp.a(alt_env_lock.o)
 .data          0x0009eae8        0x0 ../../bsp/mpsoc_hello_ucosii//libucosii_bsp.a(alt_malloc_lock.o)
 .data          0x0009eae8        0x0 ../../bsp/mpsoc_hello_ucosii//libucosii_bsp.a(os_core.o)
 .data          0x0009eae8        0x0 ../../bsp/mpsoc_hello_ucosii//libucosii_bsp.a(os_dbg.o)
 .data          0x0009eae8        0x0 ../../bsp/mpsoc_hello_ucosii//libucosii_bsp.a(os_flag.o)
 .data          0x0009eae8        0x0 ../../bsp/mpsoc_hello_ucosii//libucosii_bsp.a(os_mem.o)
 .data          0x0009eae8        0x0 ../../bsp/mpsoc_hello_ucosii//libucosii_bsp.a(os_q.o)
 .data          0x0009eae8        0x0 ../../bsp/mpsoc_hello_ucosii//libucosii_bsp.a(os_sem.o)
 .data          0x0009eae8        0x0 ../../bsp/mpsoc_hello_ucosii//libucosii_bsp.a(os_task.o)
 .data          0x0009eae8        0x0 ../../bsp/mpsoc_hello_ucosii//libucosii_bsp.a(os_time.o)
 .data          0x0009eae8        0x0 ../../bsp/mpsoc_hello_ucosii//libucosii_bsp.a(os_tmr.o)
 .data          0x0009eae8     0x1154 ../../bsp/mpsoc_hello_ucosii//libucosii_bsp.a(alt_sys_init.o)
 .data          0x0009fc3c        0x0 ../../bsp/mpsoc_hello_ucosii//libucosii_bsp.a(altera_avalon_jtag_uart_fd.o)
 .data          0x0009fc3c        0x0 ../../bsp/mpsoc_hello_ucosii//libucosii_bsp.a(altera_avalon_jtag_uart_init.o)
 .data          0x0009fc3c        0x0 ../../bsp/mpsoc_hello_ucosii//libucosii_bsp.a(altera_avalon_jtag_uart_ioctl.o)
 .data          0x0009fc3c        0x0 ../../bsp/mpsoc_hello_ucosii//libucosii_bsp.a(altera_avalon_jtag_uart_read.o)
 .data          0x0009fc3c        0x0 ../../bsp/mpsoc_hello_ucosii//libucosii_bsp.a(altera_avalon_jtag_uart_write.o)
 .data          0x0009fc3c        0x0 ../../bsp/mpsoc_hello_ucosii//libucosii_bsp.a(altera_avalon_mutex.o)
 .data          0x0009fc3c        0x0 ../../bsp/mpsoc_hello_ucosii//libucosii_bsp.a(altera_avalon_timer_sc.o)
 .data          0x0009fc3c        0x0 ../../bsp/mpsoc_hello_ucosii//libucosii_bsp.a(perf_print_formatted_report.o)
 .data          0x0009fc3c        0x0 ../../bsp/mpsoc_hello_ucosii//libucosii_bsp.a(alt_alarm_start.o)
 .data          0x0009fc3c        0x0 ../../bsp/mpsoc_hello_ucosii//libucosii_bsp.a(alt_dcache_flush_all.o)
 .data          0x0009fc3c        0x0 ../../bsp/mpsoc_hello_ucosii//libucosii_bsp.a(alt_dev_llist_insert.o)
 .data          0x0009fc3c        0x0 ../../bsp/mpsoc_hello_ucosii//libucosii_bsp.a(alt_do_ctors.o)
 .data          0x0009fc3c        0x0 ../../bsp/mpsoc_hello_ucosii//libucosii_bsp.a(alt_do_dtors.o)
 .data          0x0009fc3c        0x0 ../../bsp/mpsoc_hello_ucosii//libucosii_bsp.a(alt_find_dev.o)
 .data          0x0009fc3c        0x0 ../../bsp/mpsoc_hello_ucosii//libucosii_bsp.a(alt_icache_flush_all.o)
 .data          0x0009fc3c        0x0 ../../bsp/mpsoc_hello_ucosii//libucosii_bsp.a(alt_io_redirect.o)
 .data          0x0009fc3c        0x0 ../../bsp/mpsoc_hello_ucosii//libucosii_bsp.a(alt_irq_register.o)
 .data          0x0009fc3c        0x0 ../../bsp/mpsoc_hello_ucosii//libucosii_bsp.a(alt_irq_vars.o)
 .data          0x0009fc3c        0x0 ../../bsp/mpsoc_hello_ucosii//libucosii_bsp.a(alt_open.o)
 .data          0x0009fc3c        0x0 ../../bsp/mpsoc_hello_ucosii//libucosii_bsp.a(alt_tick.o)
 .data          0x0009fc3c        0x0 ../../bsp/mpsoc_hello_ucosii//libucosii_bsp.a(altera_nios2_qsys_irq.o)
 .data          0x0009fc3c        0x0 ../../bsp/mpsoc_hello_ucosii//libucosii_bsp.a(os_cpu_a.o)
 .data          0x0009fc3c        0x0 ../../bsp/mpsoc_hello_ucosii//libucosii_bsp.a(os_cpu_c.o)
 .data          0x0009fc3c        0x0 ../../bsp/mpsoc_hello_ucosii//libucosii_bsp.a(altera_avalon_performance_counter.o)
 .data          0x0009fc3c        0x0 ../../bsp/mpsoc_hello_ucosii//libucosii_bsp.a(alt_find_file.o)
 .data          0x0009fc3c        0x0 ../../bsp/mpsoc_hello_ucosii//libucosii_bsp.a(alt_get_fd.o)
 .data          0x0009fc3c        0x0 ../../bsp/mpsoc_hello_ucosii//libucosii_bsp.a(alt_irq_entry.o)
 .data          0x0009fc3c        0x0 ../../bsp/mpsoc_hello_ucosii//libucosii_bsp.a(alt_irq_handler.o)
 .data          0x0009fc3c        0x0 ../../bsp/mpsoc_hello_ucosii//libucosii_bsp.a(alt_exception_entry.o)
 .data          0x0009fc3c        0x0 /opt/altera/13.0sp1/nios2eds/bin/gnu/H-i686-pc-linux-gnu/bin/../lib/gcc/nios2-elf/4.1.2/../../../../nios2-elf/lib/mno-hw-mul/libc.a(lib_a-atexit.o)
 .data          0x0009fc3c        0x0 /opt/altera/13.0sp1/nios2eds/bin/gnu/H-i686-pc-linux-gnu/bin/../lib/gcc/nios2-elf/4.1.2/../../../../nios2-elf/lib/mno-hw-mul/libc.a(lib_a-exit.o)
 .data          0x0009fc3c        0x0 /opt/altera/13.0sp1/nios2eds/bin/gnu/H-i686-pc-linux-gnu/bin/../lib/gcc/nios2-elf/4.1.2/../../../../nios2-elf/lib/mno-hw-mul/libc.a(lib_a-memcmp.o)
 .data          0x0009fc3c        0x0 /opt/altera/13.0sp1/nios2eds/bin/gnu/H-i686-pc-linux-gnu/bin/../lib/gcc/nios2-elf/4.1.2/../../../../nios2-elf/lib/mno-hw-mul/libc.a(lib_a-printf.o)
 .data          0x0009fc3c        0x0 /opt/altera/13.0sp1/nios2eds/bin/gnu/H-i686-pc-linux-gnu/bin/../lib/gcc/nios2-elf/4.1.2/../../../../nios2-elf/lib/mno-hw-mul/libc.a(lib_a-vfprintf.o)
 .data          0x0009fc3c        0x0 /opt/altera/13.0sp1/nios2eds/bin/gnu/H-i686-pc-linux-gnu/bin/../lib/gcc/nios2-elf/4.1.2/../../../../nios2-elf/lib/mno-hw-mul/libc.a(lib_a-__atexit.o)
 .data          0x0009fc3c        0x0 /opt/altera/13.0sp1/nios2eds/bin/gnu/H-i686-pc-linux-gnu/bin/../lib/gcc/nios2-elf/4.1.2/../../../../nios2-elf/lib/mno-hw-mul/libc.a(lib_a-__call_atexit.o)
 .data          0x0009fc3c        0x0 /opt/altera/13.0sp1/nios2eds/bin/gnu/H-i686-pc-linux-gnu/bin/../lib/gcc/nios2-elf/4.1.2/../../../../nios2-elf/lib/mno-hw-mul/libc.a(lib_a-dtoa.o)
 .data          0x0009fc3c        0xc /opt/altera/13.0sp1/nios2eds/bin/gnu/H-i686-pc-linux-gnu/bin/../lib/gcc/nios2-elf/4.1.2/../../../../nios2-elf/lib/mno-hw-mul/libc.a(lib_a-locale.o)
                0x0009fc3c                __lc_ctype
 .data          0x0009fc48        0x0 /opt/altera/13.0sp1/nios2eds/bin/gnu/H-i686-pc-linux-gnu/bin/../lib/gcc/nios2-elf/4.1.2/../../../../nios2-elf/lib/mno-hw-mul/libc.a(lib_a-mprec.o)
 .data          0x0009fc48        0x0 /opt/altera/13.0sp1/nios2eds/bin/gnu/H-i686-pc-linux-gnu/bin/../lib/gcc/nios2-elf/4.1.2/../../../../nios2-elf/lib/mno-hw-mul/libc.a(lib_a-s_isinfd.o)
 .data          0x0009fc48        0x0 /opt/altera/13.0sp1/nios2eds/bin/gnu/H-i686-pc-linux-gnu/bin/../lib/gcc/nios2-elf/4.1.2/../../../../nios2-elf/lib/mno-hw-mul/libc.a(lib_a-s_isnand.o)
 .data          0x0009fc48        0x0 /opt/altera/13.0sp1/nios2eds/bin/gnu/H-i686-pc-linux-gnu/bin/../lib/gcc/nios2-elf/4.1.2/../../../../nios2-elf/lib/mno-hw-mul/libc.a(lib_a-strcmp.o)
 .data          0x0009fc48        0x0 /opt/altera/13.0sp1/nios2eds/bin/gnu/H-i686-pc-linux-gnu/bin/../lib/gcc/nios2-elf/4.1.2/../../../../nios2-elf/lib/mno-hw-mul/libc.a(lib_a-callocr.o)
 .data          0x0009fc48        0x0 /opt/altera/13.0sp1/nios2eds/bin/gnu/H-i686-pc-linux-gnu/bin/../lib/gcc/nios2-elf/4.1.2/mno-hw-mul/libgcc.a(_fixunsdfsi.o)
 .data          0x0009fc48        0x0 /opt/altera/13.0sp1/nios2eds/bin/gnu/H-i686-pc-linux-gnu/bin/../lib/gcc/nios2-elf/4.1.2/mno-hw-mul/libgcc.a(_floatundidf.o)
 .data          0x0009fc48        0x0 /opt/altera/13.0sp1/nios2eds/bin/gnu/H-i686-pc-linux-gnu/bin/../lib/gcc/nios2-elf/4.1.2/mno-hw-mul/libgcc.a(_udivdi3.o)
 .data          0x0009fc48        0x0 /opt/altera/13.0sp1/nios2eds/bin/gnu/H-i686-pc-linux-gnu/bin/../lib/gcc/nios2-elf/4.1.2/mno-hw-mul/libgcc.a(_umoddi3.o)
 .data          0x0009fc48        0x0 /opt/altera/13.0sp1/nios2eds/bin/gnu/H-i686-pc-linux-gnu/bin/../lib/gcc/nios2-elf/4.1.2/mno-hw-mul/libgcc.a(_div_df.o)
 .data          0x0009fc48        0x0 /opt/altera/13.0sp1/nios2eds/bin/gnu/H-i686-pc-linux-gnu/bin/../lib/gcc/nios2-elf/4.1.2/mno-hw-mul/libgcc.a(_eq_df.o)
 .data          0x0009fc48        0x0 /opt/altera/13.0sp1/nios2eds/bin/gnu/H-i686-pc-linux-gnu/bin/../lib/gcc/nios2-elf/4.1.2/mno-hw-mul/libgcc.a(_ne_df.o)
 .data          0x0009fc48        0x0 /opt/altera/13.0sp1/nios2eds/bin/gnu/H-i686-pc-linux-gnu/bin/../lib/gcc/nios2-elf/4.1.2/mno-hw-mul/libgcc.a(_gt_df.o)
 .data          0x0009fc48        0x0 /opt/altera/13.0sp1/nios2eds/bin/gnu/H-i686-pc-linux-gnu/bin/../lib/gcc/nios2-elf/4.1.2/mno-hw-mul/libgcc.a(_ge_df.o)
 .data          0x0009fc48        0x0 /opt/altera/13.0sp1/nios2eds/bin/gnu/H-i686-pc-linux-gnu/bin/../lib/gcc/nios2-elf/4.1.2/mno-hw-mul/libgcc.a(_lt_df.o)
 .data          0x0009fc48        0x0 /opt/altera/13.0sp1/nios2eds/bin/gnu/H-i686-pc-linux-gnu/bin/../lib/gcc/nios2-elf/4.1.2/mno-hw-mul/libgcc.a(_df_to_si.o)
 .data          0x0009fc48        0x0 /opt/altera/13.0sp1/nios2eds/bin/gnu/H-i686-pc-linux-gnu/bin/../lib/gcc/nios2-elf/4.1.2/mno-hw-mul/libgcc.a(_usi_to_df.o)
 .data          0x0009fc48        0x0 /opt/altera/13.0sp1/nios2eds/bin/gnu/H-i686-pc-linux-gnu/bin/../lib/gcc/nios2-elf/4.1.2/mno-hw-mul/libgcc.a(_fpcmp_parts_df.o)
 .data          0x0009fc48        0x0 ../../bsp/mpsoc_hello_ucosii//libucosii_bsp.a(alt_exit.o)
                0x000a7c48                _gp = ABSOLUTE ((. + 0x8000))
                0x000a7c48                PROVIDE (gp, _gp)
 *(.rwdata .rwdata.*)
 *(.sdata .sdata.* .gnu.linkonce.s.*)
 .sdata         0x0009fc48        0x1 obj/default/src/image_bare.o
                0x0009fc48                sequence_length
 *fill*         0x0009fc49        0x3 00
 .sdata         0x0009fc4c        0x8 /opt/altera/13.0sp1/nios2eds/bin/gnu/H-i686-pc-linux-gnu/bin/../lib/gcc/nios2-elf/4.1.2/../../../../nios2-elf/lib/mno-hw-mul/libc.a(lib_a-mallocr.o)
                0x0009fc4c                __malloc_trim_threshold
                0x0009fc50                __malloc_sbrk_base
 .sdata         0x0009fc54        0x8 /opt/altera/13.0sp1/nios2eds/bin/gnu/H-i686-pc-linux-gnu/bin/../lib/gcc/nios2-elf/4.1.2/../../../../nios2-elf/lib/mno-hw-mul/libc.a(lib_a-impure.o)
                0x0009fc54                _impure_ptr
                0x0009fc58                _global_impure_ptr
 .sdata         0x0009fc5c       0x14 ../../bsp/mpsoc_hello_ucosii//libucosii_bsp.a(alt_dev.o)
                0x0009fc5c                alt_fs_list
                0x0009fc64                alt_dev_list
                0x0009fc6c                alt_max_fd
 .sdata         0x0009fc70        0x4 ../../bsp/mpsoc_hello_ucosii//libucosii_bsp.a(alt_errno.o)
                0x0009fc70                alt_errno
 .sdata         0x0009fc74        0x4 ../../bsp/mpsoc_hello_ucosii//libucosii_bsp.a(alt_sbrk.o)
 .sdata         0x0009fc78        0x4 ../../bsp/mpsoc_hello_ucosii//libucosii_bsp.a(alt_env_lock.o)
 .sdata         0x0009fc7c        0x4 ../../bsp/mpsoc_hello_ucosii//libucosii_bsp.a(alt_malloc_lock.o)
 .sdata         0x0009fc80       0x74 ../../bsp/mpsoc_hello_ucosii//libucosii_bsp.a(os_dbg.o)
                0x0009fc80                OSDebugEn
                0x0009fc84                OSEndiannessTest
                0x0009fc88                OSEventEn
                0x0009fc8a                OSEventMax
                0x0009fc8c                OSEventNameSize
                0x0009fc8e                OSEventSize
                0x0009fc90                OSEventTblSize
                0x0009fc92                OSEventMultiEn
                0x0009fc94                OSFlagEn
                0x0009fc96                OSFlagGrpSize
                0x0009fc98                OSFlagNodeSize
                0x0009fc9a                OSFlagWidth
                0x0009fc9c                OSFlagMax
                0x0009fc9e                OSFlagNameSize
                0x0009fca0                OSLowestPrio
                0x0009fca2                OSMboxEn
                0x0009fca4                OSMemEn
                0x0009fca6                OSMemMax
                0x0009fca8                OSMemNameSize
                0x0009fcaa                OSMemSize
                0x0009fcac                OSMemTblSize
                0x0009fcae                OSMutexEn
                0x0009fcb0                OSPtrSize
                0x0009fcb2                OSQEn
                0x0009fcb4                OSQMax
                0x0009fcb6                OSQSize
                0x0009fcb8                OSRdyTblSize
                0x0009fcba                OSSemEn
                0x0009fcbc                OSStkWidth
                0x0009fcbe                OSTaskCreateEn
                0x0009fcc0                OSTaskCreateExtEn
                0x0009fcc2                OSTaskDelEn
                0x0009fcc4                OSTaskIdleStkSize
                0x0009fcc6                OSTaskProfileEn
                0x0009fcc8                OSTaskMax
                0x0009fcca                OSTaskNameSize
                0x0009fccc                OSTaskStatEn
                0x0009fcce                OSTaskStatStkSize
                0x0009fcd0                OSTaskStatStkChkEn
                0x0009fcd2                OSTaskSwHookEn
                0x0009fcd4                OSTCBPrioTblMax
                0x0009fcd6                OSTCBSize
                0x0009fcd8                OSTicksPerSec
                0x0009fcda                OSTimeTickHookEn
                0x0009fcdc                OSVersionNbr
                0x0009fcde                OSTmrEn
                0x0009fce0                OSTmrCfgMax
                0x0009fce2                OSTmrCfgNameSize
                0x0009fce4                OSTmrCfgWheelSize
                0x0009fce6                OSTmrCfgTicksPerSec
                0x0009fce8                OSTmrSize
                0x0009fcea                OSTmrTblSize
                0x0009fcec                OSTmrWheelSize
                0x0009fcee                OSTmrWheelTblSize
                0x0009fcf0                OSDataSize
 .sdata         0x0009fcf4        0x8 ../../bsp/mpsoc_hello_ucosii//libucosii_bsp.a(altera_avalon_mutex.o)
                0x0009fcf4                alt_mutex_list
 .sdata         0x0009fcfc        0x4 ../../bsp/mpsoc_hello_ucosii//libucosii_bsp.a(alt_irq_vars.o)
                0x0009fcfc                alt_priority_mask
 .sdata         0x0009fd00        0x8 ../../bsp/mpsoc_hello_ucosii//libucosii_bsp.a(alt_tick.o)
                0x0009fd00                alt_alarm_list
 .sdata         0x0009fd08        0x8 /opt/altera/13.0sp1/nios2eds/bin/gnu/H-i686-pc-linux-gnu/bin/../lib/gcc/nios2-elf/4.1.2/../../../../nios2-elf/lib/mno-hw-mul/libc.a(lib_a-locale.o)
                0x0009fd08                __mb_cur_max
 *(.sdata2 .sdata2.* .gnu.linkonce.s2.*)
                0x0009fd10                . = ALIGN (0x4)
                0x0009fd10                _edata = ABSOLUTE (.)
                0x0009fd10                PROVIDE (edata, ABSOLUTE (.))
                0x0009fd10                PROVIDE (__ram_rwdata_end, ABSOLUTE (.))
                0x0009fd10                PROVIDE (__flash_rwdata_start, LOADADDR (.rwdata))

.bss            0x000ad904     0x40e0
                0x000ad904                __bss_start = ABSOLUTE (.)
                0x000ad904                PROVIDE (__sbss_start, ABSOLUTE (.))
                0x000ad904                PROVIDE (___sbss_start, ABSOLUTE (.))
 *(.dynsbss)
 *(.sbss .sbss.* .gnu.linkonce.sb.*)
 .sbss          0x000ad904        0xc /opt/altera/13.0sp1/nios2eds/bin/gnu/H-i686-pc-linux-gnu/bin/../lib/gcc/nios2-elf/4.1.2/../../../../nios2-elf/lib/mno-hw-mul/libc.a(lib_a-mallocr.o)
                0x000ad904                __malloc_top_pad
                0x000ad908                __malloc_max_sbrked_mem
                0x000ad90c                __malloc_max_total_mem
 .sbss          0x000ad910        0x4 /opt/altera/13.0sp1/nios2eds/bin/gnu/H-i686-pc-linux-gnu/bin/../lib/gcc/nios2-elf/4.1.2/../../../../nios2-elf/lib/mno-hw-mul/libc.a(lib_a-int_errno.o)
                0x000ad910                errno
 .sbss          0x000ad914        0x4 ../../bsp/mpsoc_hello_ucosii//libucosii_bsp.a(alt_dev.o)
                0x000ad914                alt_fd_list_lock
 .sbss          0x000ad918        0xc ../../bsp/mpsoc_hello_ucosii//libucosii_bsp.a(alt_main.o)
                0x000ad918                alt_argc
                0x000ad91c                alt_argv
                0x000ad920                alt_envp
 .sbss          0x000ad924        0x8 ../../bsp/mpsoc_hello_ucosii//libucosii_bsp.a(alt_env_lock.o)
                0x000ad928                alt_envsem
 .sbss          0x000ad92c        0x8 ../../bsp/mpsoc_hello_ucosii//libucosii_bsp.a(alt_malloc_lock.o)
                0x000ad930                alt_heapsem
 .sbss          0x000ad934       0x68 ../../bsp/mpsoc_hello_ucosii//libucosii_bsp.a(os_core.o)
                0x000ad934                OSTmrFreeList
                0x000ad938                OSLockNesting
                0x000ad93c                OSTmrSemSignal
                0x000ad940                OSRunning
                0x000ad944                OSIdleCtr
                0x000ad948                OSTmrUsed
                0x000ad94a                OSPrioHighRdy
                0x000ad94b                OSPrioCur
                0x000ad94c                OSTCBList
                0x000ad950                OSTickStepState
                0x000ad954                OSCtxSwCtr
                0x000ad958                OSTmrFree
                0x000ad95c                OSIdleCtrMax
                0x000ad960                OSTCBFreeList
                0x000ad964                OSCPUUsage
                0x000ad965                OSTaskCtr
                0x000ad968                OSMemFreeList
                0x000ad96c                OSTCBHighRdy
                0x000ad970                OSQFreeList
                0x000ad974                OSRdyGrp
                0x000ad975                OSRdyTbl
                0x000ad978                OSEventFreeList
                0x000ad97c                OSIntNesting
                0x000ad980                OSTCBCur
                0x000ad984                OSTmrTime
                0x000ad988                OSTime
                0x000ad98c                OSTmrSem
                0x000ad990                OSFlagFreeList
                0x000ad994                OSStatRdy
                0x000ad998                OSIdleCtrRun
 .sbss          0x000ad99c        0x4 ../../bsp/mpsoc_hello_ucosii//libucosii_bsp.a(alt_irq_vars.o)
                0x000ad99c                alt_irq_active
 .sbss          0x000ad9a0        0x8 ../../bsp/mpsoc_hello_ucosii//libucosii_bsp.a(alt_tick.o)
                0x000ad9a0                _alt_tick_rate
                0x000ad9a4                _alt_nticks
 .sbss          0x000ad9a8        0x2 ../../bsp/mpsoc_hello_ucosii//libucosii_bsp.a(os_cpu_c.o)
 *fill*         0x000ad9aa        0x2 00
 .sbss          0x000ad9ac        0xc /opt/altera/13.0sp1/nios2eds/bin/gnu/H-i686-pc-linux-gnu/bin/../lib/gcc/nios2-elf/4.1.2/../../../../nios2-elf/lib/mno-hw-mul/libc.a(lib_a-locale.o)
                0x000ad9ac                __nlocale_changed
                0x000ad9b0                __mlocale_changed
                0x000ad9b4                _PathLocale
 *(.sbss2 .sbss2.* .gnu.linkonce.sb2.*)
 *(.scommon)
                0x000ad9b8                PROVIDE (__sbss_end, ABSOLUTE (.))
                0x000ad9b8                PROVIDE (___sbss_end, ABSOLUTE (.))
 *(.dynbss)
 *(.bss .bss.* .gnu.linkonce.b.*)
 .bss           0x000ad9b8        0x0 ../../bsp/mpsoc_hello_ucosii//obj/HAL/src/crt0.o
 .bss           0x000ad9b8        0x0 obj/default/src/image_bare.o
 .bss           0x000ad9b8        0x0 /opt/altera/13.0sp1/nios2eds/bin/gnu/H-i686-pc-linux-gnu/bin/../lib/gcc/nios2-elf/4.1.2/mno-hw-mul/libgcc.a(_addsub_df.o)
 .bss           0x000ad9b8        0x0 /opt/altera/13.0sp1/nios2eds/bin/gnu/H-i686-pc-linux-gnu/bin/../lib/gcc/nios2-elf/4.1.2/mno-hw-mul/libgcc.a(_mul_df.o)
 .bss           0x000ad9b8        0x0 /opt/altera/13.0sp1/nios2eds/bin/gnu/H-i686-pc-linux-gnu/bin/../lib/gcc/nios2-elf/4.1.2/mno-hw-mul/libgcc.a(_si_to_df.o)
 .bss           0x000ad9b8        0x0 /opt/altera/13.0sp1/nios2eds/bin/gnu/H-i686-pc-linux-gnu/bin/../lib/gcc/nios2-elf/4.1.2/mno-hw-mul/libgcc.a(_df_to_sf.o)
 .bss           0x000ad9b8        0x0 /opt/altera/13.0sp1/nios2eds/bin/gnu/H-i686-pc-linux-gnu/bin/../lib/gcc/nios2-elf/4.1.2/mno-hw-mul/libgcc.a(_thenan_df.o)
 .bss           0x000ad9b8        0x0 /opt/altera/13.0sp1/nios2eds/bin/gnu/H-i686-pc-linux-gnu/bin/../lib/gcc/nios2-elf/4.1.2/mno-hw-mul/libgcc.a(lib2-divmod.o)
 .bss           0x000ad9b8        0x0 /opt/altera/13.0sp1/nios2eds/bin/gnu/H-i686-pc-linux-gnu/bin/../lib/gcc/nios2-elf/4.1.2/mno-hw-mul/libgcc.a(lib2-mul.o)
 .bss           0x000ad9b8        0x0 /opt/altera/13.0sp1/nios2eds/bin/gnu/H-i686-pc-linux-gnu/bin/../lib/gcc/nios2-elf/4.1.2/mno-hw-mul/libgcc.a(_muldi3.o)
 .bss           0x000ad9b8        0x0 /opt/altera/13.0sp1/nios2eds/bin/gnu/H-i686-pc-linux-gnu/bin/../lib/gcc/nios2-elf/4.1.2/mno-hw-mul/libgcc.a(_clzsi2.o)
 .bss           0x000ad9b8        0x0 /opt/altera/13.0sp1/nios2eds/bin/gnu/H-i686-pc-linux-gnu/bin/../lib/gcc/nios2-elf/4.1.2/mno-hw-mul/libgcc.a(_make_sf.o)
 .bss           0x000ad9b8        0x0 /opt/altera/13.0sp1/nios2eds/bin/gnu/H-i686-pc-linux-gnu/bin/../lib/gcc/nios2-elf/4.1.2/mno-hw-mul/libgcc.a(_pack_df.o)
 .bss           0x000ad9b8        0x0 /opt/altera/13.0sp1/nios2eds/bin/gnu/H-i686-pc-linux-gnu/bin/../lib/gcc/nios2-elf/4.1.2/mno-hw-mul/libgcc.a(_unpack_df.o)
 .bss           0x000ad9b8        0x0 /opt/altera/13.0sp1/nios2eds/bin/gnu/H-i686-pc-linux-gnu/bin/../lib/gcc/nios2-elf/4.1.2/mno-hw-mul/libgcc.a(_clz.o)
 .bss           0x000ad9b8        0x0 /opt/altera/13.0sp1/nios2eds/bin/gnu/H-i686-pc-linux-gnu/bin/../lib/gcc/nios2-elf/4.1.2/mno-hw-mul/libgcc.a(_pack_sf.o)
 .bss           0x000ad9b8        0x0 /opt/altera/13.0sp1/nios2eds/bin/gnu/H-i686-pc-linux-gnu/bin/../lib/gcc/nios2-elf/4.1.2/../../../../nios2-elf/lib/mno-hw-mul/libc.a(lib_a-malloc.o)
 .bss           0x000ad9b8       0x28 /opt/altera/13.0sp1/nios2eds/bin/gnu/H-i686-pc-linux-gnu/bin/../lib/gcc/nios2-elf/4.1.2/../../../../nios2-elf/lib/mno-hw-mul/libc.a(lib_a-mallocr.o)
                0x000ad9b8                __malloc_current_mallinfo
 .bss           0x000ad9e0        0x0 /opt/altera/13.0sp1/nios2eds/bin/gnu/H-i686-pc-linux-gnu/bin/../lib/gcc/nios2-elf/4.1.2/../../../../nios2-elf/lib/mno-hw-mul/libc.a(lib_a-memcpy.o)
 .bss           0x000ad9e0        0x0 /opt/altera/13.0sp1/nios2eds/bin/gnu/H-i686-pc-linux-gnu/bin/../lib/gcc/nios2-elf/4.1.2/../../../../nios2-elf/lib/mno-hw-mul/libc.a(lib_a-putchar.o)
 .bss           0x000ad9e0        0x0 /opt/altera/13.0sp1/nios2eds/bin/gnu/H-i686-pc-linux-gnu/bin/../lib/gcc/nios2-elf/4.1.2/../../../../nios2-elf/lib/mno-hw-mul/libc.a(lib_a-puts.o)
 .bss           0x000ad9e0        0x0 /opt/altera/13.0sp1/nios2eds/bin/gnu/H-i686-pc-linux-gnu/bin/../lib/gcc/nios2-elf/4.1.2/../../../../nios2-elf/lib/mno-hw-mul/libc.a(lib_a-sbrkr.o)
 .bss           0x000ad9e0        0x0 /opt/altera/13.0sp1/nios2eds/bin/gnu/H-i686-pc-linux-gnu/bin/../lib/gcc/nios2-elf/4.1.2/../../../../nios2-elf/lib/mno-hw-mul/libc.a(lib_a-strlen.o)
 .bss           0x000ad9e0        0x0 /opt/altera/13.0sp1/nios2eds/bin/gnu/H-i686-pc-linux-gnu/bin/../lib/gcc/nios2-elf/4.1.2/../../../../nios2-elf/lib/mno-hw-mul/libc.a(lib_a-freer.o)
 .bss           0x000ad9e0        0x0 /opt/altera/13.0sp1/nios2eds/bin/gnu/H-i686-pc-linux-gnu/bin/../lib/gcc/nios2-elf/4.1.2/../../../../nios2-elf/lib/mno-hw-mul/libc.a(lib_a-fvwrite.o)
 .bss           0x000ad9e0        0x0 /opt/altera/13.0sp1/nios2eds/bin/gnu/H-i686-pc-linux-gnu/bin/../lib/gcc/nios2-elf/4.1.2/../../../../nios2-elf/lib/mno-hw-mul/libc.a(lib_a-impure.o)
 .bss           0x000ad9e0        0x0 /opt/altera/13.0sp1/nios2eds/bin/gnu/H-i686-pc-linux-gnu/bin/../lib/gcc/nios2-elf/4.1.2/../../../../nios2-elf/lib/mno-hw-mul/libc.a(lib_a-int_errno.o)
 .bss           0x000ad9e0        0x0 /opt/altera/13.0sp1/nios2eds/bin/gnu/H-i686-pc-linux-gnu/bin/../lib/gcc/nios2-elf/4.1.2/../../../../nios2-elf/lib/mno-hw-mul/libc.a(lib_a-memchr.o)
 .bss           0x000ad9e0        0x0 /opt/altera/13.0sp1/nios2eds/bin/gnu/H-i686-pc-linux-gnu/bin/../lib/gcc/nios2-elf/4.1.2/../../../../nios2-elf/lib/mno-hw-mul/libc.a(lib_a-memmove.o)
 .bss           0x000ad9e0        0x0 /opt/altera/13.0sp1/nios2eds/bin/gnu/H-i686-pc-linux-gnu/bin/../lib/gcc/nios2-elf/4.1.2/../../../../nios2-elf/lib/mno-hw-mul/libc.a(lib_a-putc.o)
 .bss           0x000ad9e0        0x0 /opt/altera/13.0sp1/nios2eds/bin/gnu/H-i686-pc-linux-gnu/bin/../lib/gcc/nios2-elf/4.1.2/../../../../nios2-elf/lib/mno-hw-mul/libc.a(lib_a-reallocr.o)
 .bss           0x000ad9e0        0x0 /opt/altera/13.0sp1/nios2eds/bin/gnu/H-i686-pc-linux-gnu/bin/../lib/gcc/nios2-elf/4.1.2/../../../../nios2-elf/lib/mno-hw-mul/libc.a(lib_a-wbuf.o)
 .bss           0x000ad9e0        0x0 /opt/altera/13.0sp1/nios2eds/bin/gnu/H-i686-pc-linux-gnu/bin/../lib/gcc/nios2-elf/4.1.2/../../../../nios2-elf/lib/mno-hw-mul/libc.a(lib_a-wsetup.o)
 .bss           0x000ad9e0        0x0 /opt/altera/13.0sp1/nios2eds/bin/gnu/H-i686-pc-linux-gnu/bin/../lib/gcc/nios2-elf/4.1.2/../../../../nios2-elf/lib/mno-hw-mul/libc.a(lib_a-fflush.o)
 .bss           0x000ad9e0        0x0 /opt/altera/13.0sp1/nios2eds/bin/gnu/H-i686-pc-linux-gnu/bin/../lib/gcc/nios2-elf/4.1.2/../../../../nios2-elf/lib/mno-hw-mul/libc.a(lib_a-findfp.o)
 .bss           0x000ad9e0        0x0 /opt/altera/13.0sp1/nios2eds/bin/gnu/H-i686-pc-linux-gnu/bin/../lib/gcc/nios2-elf/4.1.2/../../../../nios2-elf/lib/mno-hw-mul/libc.a(lib_a-fwalk.o)
 .bss           0x000ad9e0        0x0 /opt/altera/13.0sp1/nios2eds/bin/gnu/H-i686-pc-linux-gnu/bin/../lib/gcc/nios2-elf/4.1.2/../../../../nios2-elf/lib/mno-hw-mul/libc.a(lib_a-makebuf.o)
 .bss           0x000ad9e0        0x0 /opt/altera/13.0sp1/nios2eds/bin/gnu/H-i686-pc-linux-gnu/bin/../lib/gcc/nios2-elf/4.1.2/../../../../nios2-elf/lib/mno-hw-mul/libc.a(lib_a-memset.o)
 .bss           0x000ad9e0        0x0 /opt/altera/13.0sp1/nios2eds/bin/gnu/H-i686-pc-linux-gnu/bin/../lib/gcc/nios2-elf/4.1.2/../../../../nios2-elf/lib/mno-hw-mul/libc.a(lib_a-stdio.o)
 .bss           0x000ad9e0        0x0 /opt/altera/13.0sp1/nios2eds/bin/gnu/H-i686-pc-linux-gnu/bin/../lib/gcc/nios2-elf/4.1.2/../../../../nios2-elf/lib/mno-hw-mul/libc.a(lib_a-writer.o)
 .bss           0x000ad9e0        0x0 /opt/altera/13.0sp1/nios2eds/bin/gnu/H-i686-pc-linux-gnu/bin/../lib/gcc/nios2-elf/4.1.2/../../../../nios2-elf/lib/mno-hw-mul/libc.a(lib_a-closer.o)
 .bss           0x000ad9e0        0x0 /opt/altera/13.0sp1/nios2eds/bin/gnu/H-i686-pc-linux-gnu/bin/../lib/gcc/nios2-elf/4.1.2/../../../../nios2-elf/lib/mno-hw-mul/libc.a(lib_a-fclose.o)
 .bss           0x000ad9e0        0x0 /opt/altera/13.0sp1/nios2eds/bin/gnu/H-i686-pc-linux-gnu/bin/../lib/gcc/nios2-elf/4.1.2/../../../../nios2-elf/lib/mno-hw-mul/libc.a(lib_a-fstatr.o)
 .bss           0x000ad9e0        0x0 /opt/altera/13.0sp1/nios2eds/bin/gnu/H-i686-pc-linux-gnu/bin/../lib/gcc/nios2-elf/4.1.2/../../../../nios2-elf/lib/mno-hw-mul/libc.a(lib_a-isattyr.o)
 .bss           0x000ad9e0        0x0 /opt/altera/13.0sp1/nios2eds/bin/gnu/H-i686-pc-linux-gnu/bin/../lib/gcc/nios2-elf/4.1.2/../../../../nios2-elf/lib/mno-hw-mul/libc.a(lib_a-lseekr.o)
 .bss           0x000ad9e0        0x0 /opt/altera/13.0sp1/nios2eds/bin/gnu/H-i686-pc-linux-gnu/bin/../lib/gcc/nios2-elf/4.1.2/../../../../nios2-elf/lib/mno-hw-mul/libc.a(lib_a-readr.o)
 .bss           0x000ad9e0        0x0 ../../bsp/mpsoc_hello_ucosii//libucosii_bsp.a(alt_close.o)
 .bss           0x000ad9e0        0x0 ../../bsp/mpsoc_hello_ucosii//libucosii_bsp.a(alt_dev.o)
 .bss           0x000ad9e0        0x0 ../../bsp/mpsoc_hello_ucosii//libucosii_bsp.a(alt_errno.o)
 .bss           0x000ad9e0        0x0 ../../bsp/mpsoc_hello_ucosii//libucosii_bsp.a(alt_fstat.o)
 .bss           0x000ad9e0        0x0 ../../bsp/mpsoc_hello_ucosii//libucosii_bsp.a(alt_isatty.o)
 .bss           0x000ad9e0        0x0 ../../bsp/mpsoc_hello_ucosii//libucosii_bsp.a(alt_load.o)
 .bss           0x000ad9e0        0x0 ../../bsp/mpsoc_hello_ucosii//libucosii_bsp.a(alt_lseek.o)
 .bss           0x000ad9e0        0x0 ../../bsp/mpsoc_hello_ucosii//libucosii_bsp.a(alt_main.o)
 .bss           0x000ad9e0        0x0 ../../bsp/mpsoc_hello_ucosii//libucosii_bsp.a(alt_read.o)
 .bss           0x000ad9e0        0x0 ../../bsp/mpsoc_hello_ucosii//libucosii_bsp.a(alt_release_fd.o)
 .bss           0x000ad9e0        0x0 ../../bsp/mpsoc_hello_ucosii//libucosii_bsp.a(alt_sbrk.o)
 .bss           0x000ad9e0        0x0 ../../bsp/mpsoc_hello_ucosii//libucosii_bsp.a(alt_write.o)
 .bss           0x000ad9e0        0x0 ../../bsp/mpsoc_hello_ucosii//libucosii_bsp.a(alt_env_lock.o)
 .bss           0x000ad9e0        0x0 ../../bsp/mpsoc_hello_ucosii//libucosii_bsp.a(alt_malloc_lock.o)
 .bss           0x000ad9e0        0x0 ../../bsp/mpsoc_hello_ucosii//libucosii_bsp.a(os_core.o)
 .bss           0x000ad9e0        0x0 ../../bsp/mpsoc_hello_ucosii//libucosii_bsp.a(os_dbg.o)
 .bss           0x000ad9e0        0x0 ../../bsp/mpsoc_hello_ucosii//libucosii_bsp.a(os_flag.o)
 .bss           0x000ad9e0        0x0 ../../bsp/mpsoc_hello_ucosii//libucosii_bsp.a(os_mem.o)
 .bss           0x000ad9e0        0x0 ../../bsp/mpsoc_hello_ucosii//libucosii_bsp.a(os_q.o)
 .bss           0x000ad9e0        0x0 ../../bsp/mpsoc_hello_ucosii//libucosii_bsp.a(os_sem.o)
 .bss           0x000ad9e0        0x0 ../../bsp/mpsoc_hello_ucosii//libucosii_bsp.a(os_task.o)
 .bss           0x000ad9e0        0x0 ../../bsp/mpsoc_hello_ucosii//libucosii_bsp.a(os_time.o)
 .bss           0x000ad9e0        0x0 ../../bsp/mpsoc_hello_ucosii//libucosii_bsp.a(os_tmr.o)
 .bss           0x000ad9e0        0x0 ../../bsp/mpsoc_hello_ucosii//libucosii_bsp.a(alt_sys_init.o)
 .bss           0x000ad9e0        0x0 ../../bsp/mpsoc_hello_ucosii//libucosii_bsp.a(altera_avalon_jtag_uart_fd.o)
 .bss           0x000ad9e0        0x0 ../../bsp/mpsoc_hello_ucosii//libucosii_bsp.a(altera_avalon_jtag_uart_init.o)
 .bss           0x000ad9e0        0x0 ../../bsp/mpsoc_hello_ucosii//libucosii_bsp.a(altera_avalon_jtag_uart_ioctl.o)
 .bss           0x000ad9e0        0x0 ../../bsp/mpsoc_hello_ucosii//libucosii_bsp.a(altera_avalon_jtag_uart_read.o)
 .bss           0x000ad9e0        0x0 ../../bsp/mpsoc_hello_ucosii//libucosii_bsp.a(altera_avalon_jtag_uart_write.o)
 .bss           0x000ad9e0        0x0 ../../bsp/mpsoc_hello_ucosii//libucosii_bsp.a(altera_avalon_mutex.o)
 .bss           0x000ad9e0        0x0 ../../bsp/mpsoc_hello_ucosii//libucosii_bsp.a(altera_avalon_timer_sc.o)
 .bss           0x000ad9e0        0x0 ../../bsp/mpsoc_hello_ucosii//libucosii_bsp.a(perf_print_formatted_report.o)
 .bss           0x000ad9e0        0x0 ../../bsp/mpsoc_hello_ucosii//libucosii_bsp.a(alt_alarm_start.o)
 .bss           0x000ad9e0        0x0 ../../bsp/mpsoc_hello_ucosii//libucosii_bsp.a(alt_dcache_flush_all.o)
 .bss           0x000ad9e0        0x0 ../../bsp/mpsoc_hello_ucosii//libucosii_bsp.a(alt_dev_llist_insert.o)
 .bss           0x000ad9e0        0x0 ../../bsp/mpsoc_hello_ucosii//libucosii_bsp.a(alt_do_ctors.o)
 .bss           0x000ad9e0        0x0 ../../bsp/mpsoc_hello_ucosii//libucosii_bsp.a(alt_do_dtors.o)
 .bss           0x000ad9e0        0x0 ../../bsp/mpsoc_hello_ucosii//libucosii_bsp.a(alt_find_dev.o)
 .bss           0x000ad9e0        0x0 ../../bsp/mpsoc_hello_ucosii//libucosii_bsp.a(alt_icache_flush_all.o)
 .bss           0x000ad9e0        0x0 ../../bsp/mpsoc_hello_ucosii//libucosii_bsp.a(alt_io_redirect.o)
 .bss           0x000ad9e0        0x0 ../../bsp/mpsoc_hello_ucosii//libucosii_bsp.a(alt_irq_register.o)
 .bss           0x000ad9e0        0x0 ../../bsp/mpsoc_hello_ucosii//libucosii_bsp.a(alt_irq_vars.o)
 .bss           0x000ad9e0        0x0 ../../bsp/mpsoc_hello_ucosii//libucosii_bsp.a(alt_open.o)
 .bss           0x000ad9e0        0x0 ../../bsp/mpsoc_hello_ucosii//libucosii_bsp.a(alt_tick.o)
 .bss           0x000ad9e0        0x0 ../../bsp/mpsoc_hello_ucosii//libucosii_bsp.a(altera_nios2_qsys_irq.o)
 .bss           0x000ad9e0        0x0 ../../bsp/mpsoc_hello_ucosii//libucosii_bsp.a(os_cpu_a.o)
 .bss           0x000ad9e0        0x0 ../../bsp/mpsoc_hello_ucosii//libucosii_bsp.a(os_cpu_c.o)
 .bss           0x000ad9e0        0x0 ../../bsp/mpsoc_hello_ucosii//libucosii_bsp.a(altera_avalon_performance_counter.o)
 .bss           0x000ad9e0        0x0 ../../bsp/mpsoc_hello_ucosii//libucosii_bsp.a(alt_find_file.o)
 .bss           0x000ad9e0        0x0 ../../bsp/mpsoc_hello_ucosii//libucosii_bsp.a(alt_get_fd.o)
 .bss           0x000ad9e0        0x0 ../../bsp/mpsoc_hello_ucosii//libucosii_bsp.a(alt_irq_entry.o)
 .bss           0x000ad9e0        0x0 ../../bsp/mpsoc_hello_ucosii//libucosii_bsp.a(alt_irq_handler.o)
 .bss           0x000ad9e0        0x0 ../../bsp/mpsoc_hello_ucosii//libucosii_bsp.a(alt_exception_entry.o)
 .bss           0x000ad9e0        0x0 /opt/altera/13.0sp1/nios2eds/bin/gnu/H-i686-pc-linux-gnu/bin/../lib/gcc/nios2-elf/4.1.2/../../../../nios2-elf/lib/mno-hw-mul/libc.a(lib_a-atexit.o)
 .bss           0x000ad9e0        0x0 /opt/altera/13.0sp1/nios2eds/bin/gnu/H-i686-pc-linux-gnu/bin/../lib/gcc/nios2-elf/4.1.2/../../../../nios2-elf/lib/mno-hw-mul/libc.a(lib_a-exit.o)
 .bss           0x000ad9e0        0x0 /opt/altera/13.0sp1/nios2eds/bin/gnu/H-i686-pc-linux-gnu/bin/../lib/gcc/nios2-elf/4.1.2/../../../../nios2-elf/lib/mno-hw-mul/libc.a(lib_a-memcmp.o)
 .bss           0x000ad9e0        0x0 /opt/altera/13.0sp1/nios2eds/bin/gnu/H-i686-pc-linux-gnu/bin/../lib/gcc/nios2-elf/4.1.2/../../../../nios2-elf/lib/mno-hw-mul/libc.a(lib_a-printf.o)
 .bss           0x000ad9e0        0x0 /opt/altera/13.0sp1/nios2eds/bin/gnu/H-i686-pc-linux-gnu/bin/../lib/gcc/nios2-elf/4.1.2/../../../../nios2-elf/lib/mno-hw-mul/libc.a(lib_a-vfprintf.o)
 .bss           0x000ad9e0        0x0 /opt/altera/13.0sp1/nios2eds/bin/gnu/H-i686-pc-linux-gnu/bin/../lib/gcc/nios2-elf/4.1.2/../../../../nios2-elf/lib/mno-hw-mul/libc.a(lib_a-__atexit.o)
 .bss           0x000ad9e0        0x0 /opt/altera/13.0sp1/nios2eds/bin/gnu/H-i686-pc-linux-gnu/bin/../lib/gcc/nios2-elf/4.1.2/../../../../nios2-elf/lib/mno-hw-mul/libc.a(lib_a-__call_atexit.o)
 .bss           0x000ad9e0        0x0 /opt/altera/13.0sp1/nios2eds/bin/gnu/H-i686-pc-linux-gnu/bin/../lib/gcc/nios2-elf/4.1.2/../../../../nios2-elf/lib/mno-hw-mul/libc.a(lib_a-dtoa.o)
 .bss           0x000ad9e0        0x0 /opt/altera/13.0sp1/nios2eds/bin/gnu/H-i686-pc-linux-gnu/bin/../lib/gcc/nios2-elf/4.1.2/../../../../nios2-elf/lib/mno-hw-mul/libc.a(lib_a-locale.o)
 .bss           0x000ad9e0        0x0 /opt/altera/13.0sp1/nios2eds/bin/gnu/H-i686-pc-linux-gnu/bin/../lib/gcc/nios2-elf/4.1.2/../../../../nios2-elf/lib/mno-hw-mul/libc.a(lib_a-mprec.o)
 .bss           0x000ad9e0        0x0 /opt/altera/13.0sp1/nios2eds/bin/gnu/H-i686-pc-linux-gnu/bin/../lib/gcc/nios2-elf/4.1.2/../../../../nios2-elf/lib/mno-hw-mul/libc.a(lib_a-s_isinfd.o)
 .bss           0x000ad9e0        0x0 /opt/altera/13.0sp1/nios2eds/bin/gnu/H-i686-pc-linux-gnu/bin/../lib/gcc/nios2-elf/4.1.2/../../../../nios2-elf/lib/mno-hw-mul/libc.a(lib_a-s_isnand.o)
 .bss           0x000ad9e0        0x0 /opt/altera/13.0sp1/nios2eds/bin/gnu/H-i686-pc-linux-gnu/bin/../lib/gcc/nios2-elf/4.1.2/../../../../nios2-elf/lib/mno-hw-mul/libc.a(lib_a-strcmp.o)
 .bss           0x000ad9e0        0x0 /opt/altera/13.0sp1/nios2eds/bin/gnu/H-i686-pc-linux-gnu/bin/../lib/gcc/nios2-elf/4.1.2/../../../../nios2-elf/lib/mno-hw-mul/libc.a(lib_a-callocr.o)
 .bss           0x000ad9e0        0x0 /opt/altera/13.0sp1/nios2eds/bin/gnu/H-i686-pc-linux-gnu/bin/../lib/gcc/nios2-elf/4.1.2/mno-hw-mul/libgcc.a(_fixunsdfsi.o)
 .bss           0x000ad9e0        0x0 /opt/altera/13.0sp1/nios2eds/bin/gnu/H-i686-pc-linux-gnu/bin/../lib/gcc/nios2-elf/4.1.2/mno-hw-mul/libgcc.a(_floatundidf.o)
 .bss           0x000ad9e0        0x0 /opt/altera/13.0sp1/nios2eds/bin/gnu/H-i686-pc-linux-gnu/bin/../lib/gcc/nios2-elf/4.1.2/mno-hw-mul/libgcc.a(_udivdi3.o)
 .bss           0x000ad9e0        0x0 /opt/altera/13.0sp1/nios2eds/bin/gnu/H-i686-pc-linux-gnu/bin/../lib/gcc/nios2-elf/4.1.2/mno-hw-mul/libgcc.a(_umoddi3.o)
 .bss           0x000ad9e0        0x0 /opt/altera/13.0sp1/nios2eds/bin/gnu/H-i686-pc-linux-gnu/bin/../lib/gcc/nios2-elf/4.1.2/mno-hw-mul/libgcc.a(_div_df.o)
 .bss           0x000ad9e0        0x0 /opt/altera/13.0sp1/nios2eds/bin/gnu/H-i686-pc-linux-gnu/bin/../lib/gcc/nios2-elf/4.1.2/mno-hw-mul/libgcc.a(_eq_df.o)
 .bss           0x000ad9e0        0x0 /opt/altera/13.0sp1/nios2eds/bin/gnu/H-i686-pc-linux-gnu/bin/../lib/gcc/nios2-elf/4.1.2/mno-hw-mul/libgcc.a(_ne_df.o)
 .bss           0x000ad9e0        0x0 /opt/altera/13.0sp1/nios2eds/bin/gnu/H-i686-pc-linux-gnu/bin/../lib/gcc/nios2-elf/4.1.2/mno-hw-mul/libgcc.a(_gt_df.o)
 .bss           0x000ad9e0        0x0 /opt/altera/13.0sp1/nios2eds/bin/gnu/H-i686-pc-linux-gnu/bin/../lib/gcc/nios2-elf/4.1.2/mno-hw-mul/libgcc.a(_ge_df.o)
 .bss           0x000ad9e0        0x0 /opt/altera/13.0sp1/nios2eds/bin/gnu/H-i686-pc-linux-gnu/bin/../lib/gcc/nios2-elf/4.1.2/mno-hw-mul/libgcc.a(_lt_df.o)
 .bss           0x000ad9e0        0x0 /opt/altera/13.0sp1/nios2eds/bin/gnu/H-i686-pc-linux-gnu/bin/../lib/gcc/nios2-elf/4.1.2/mno-hw-mul/libgcc.a(_df_to_si.o)
 .bss           0x000ad9e0        0x0 /opt/altera/13.0sp1/nios2eds/bin/gnu/H-i686-pc-linux-gnu/bin/../lib/gcc/nios2-elf/4.1.2/mno-hw-mul/libgcc.a(_usi_to_df.o)
 .bss           0x000ad9e0        0x0 /opt/altera/13.0sp1/nios2eds/bin/gnu/H-i686-pc-linux-gnu/bin/../lib/gcc/nios2-elf/4.1.2/mno-hw-mul/libgcc.a(_fpcmp_parts_df.o)
 .bss           0x000ad9e0        0x0 ../../bsp/mpsoc_hello_ucosii//libucosii_bsp.a(alt_exit.o)
 *(COMMON)
 COMMON         0x000ad9e0     0x3d74 ../../bsp/mpsoc_hello_ucosii//libucosii_bsp.a(os_core.o)
                0x000ad9e0                OSTmrWheelTbl
                0x000ad9f0                OSFlagTbl
                0x000add60                OSTmrTbl
                0x000ae0a0                OSMemTbl
                0x000aecd0                OSTaskStatStk
                0x000af4d0                OSQTbl
                0x000af6b0                OSTmrTaskStk
                0x000afeb0                OSTaskIdleStk
                0x000b06b0                OSEventTbl
                0x000b11f0                OSTCBTbl
                0x000b1700                OSTCBPrioTbl
 COMMON         0x000b1754      0x100 ../../bsp/mpsoc_hello_ucosii//libucosii_bsp.a(alt_irq_handler.o)
                0x000b1754                alt_irq
 COMMON         0x000b1854      0x190 /opt/altera/13.0sp1/nios2eds/bin/gnu/H-i686-pc-linux-gnu/bin/../lib/gcc/nios2-elf/4.1.2/../../../../nios2-elf/lib/mno-hw-mul/libc.a(lib_a-atexit.o)
                0x000b1854                _atexit0
                0x000b19e4                . = ALIGN (0x4)
                0x000b19e4                __bss_end = ABSOLUTE (.)

.sram           0x000b19e4        0x0
                0x000b19e4                PROVIDE (_alt_partition_sram_start, ABSOLUTE (.))
 *(.sram. sram.*)
                0x000b19e4                . = ALIGN (0x4)
                0x000b19e4                PROVIDE (_alt_partition_sram_end, ABSOLUTE (.))
                0x000b19e4                _end = ABSOLUTE (.)
                0x000b19e4                end = ABSOLUTE (.)
                0x000b19e4                __alt_stack_base = ABSOLUTE (.)
                0x000b19e4                PROVIDE (_alt_partition_sram_load_addr, LOADADDR (.sram))

.shared_onchip  0x00102000        0x0 load address 0x000b19e4
                0x00102000                PROVIDE (_alt_partition_shared_onchip_start, ABSOLUTE (.))
 *(.shared_onchip. shared_onchip.*)
                0x00102000                . = ALIGN (0x4)
                0x00102000                PROVIDE (_alt_partition_shared_onchip_end, ABSOLUTE (.))
                0x000b19e4                PROVIDE (_alt_partition_shared_onchip_load_addr, LOADADDR (.shared_onchip))

.sdram          0x01000000        0x0 load address 0x000b19e4
                0x01000000                PROVIDE (_alt_partition_sdram_start, ABSOLUTE (.))
 *(.sdram. sdram.*)
                0x01000000                . = ALIGN (0x4)
                0x01000000                PROVIDE (_alt_partition_sdram_end, ABSOLUTE (.))
                0x000b19e4                PROVIDE (_alt_partition_sdram_load_addr, LOADADDR (.sdram))

.stab
 *(.stab)

.stabstr
 *(.stabstr)

.stab.excl
 *(.stab.excl)

.stab.exclstr
 *(.stab.exclstr)

.stab.index
 *(.stab.index)

.stab.indexstr
 *(.stab.indexstr)

.comment        0x00000000       0x26
 *(.comment)
 .comment       0x00000000       0x26 obj/default/src/image_bare.o
                                 0x27 (size before relaxing)
 .comment       0x00000000       0x27 /opt/altera/13.0sp1/nios2eds/bin/gnu/H-i686-pc-linux-gnu/bin/../lib/gcc/nios2-elf/4.1.2/mno-hw-mul/libgcc.a(_addsub_df.o)
 .comment       0x00000000       0x27 /opt/altera/13.0sp1/nios2eds/bin/gnu/H-i686-pc-linux-gnu/bin/../lib/gcc/nios2-elf/4.1.2/mno-hw-mul/libgcc.a(_mul_df.o)
 .comment       0x00000000       0x27 /opt/altera/13.0sp1/nios2eds/bin/gnu/H-i686-pc-linux-gnu/bin/../lib/gcc/nios2-elf/4.1.2/mno-hw-mul/libgcc.a(_si_to_df.o)
 .comment       0x00000000       0x27 /opt/altera/13.0sp1/nios2eds/bin/gnu/H-i686-pc-linux-gnu/bin/../lib/gcc/nios2-elf/4.1.2/mno-hw-mul/libgcc.a(_df_to_sf.o)
 .comment       0x00000000       0x27 /opt/altera/13.0sp1/nios2eds/bin/gnu/H-i686-pc-linux-gnu/bin/../lib/gcc/nios2-elf/4.1.2/mno-hw-mul/libgcc.a(_thenan_df.o)
 .comment       0x00000000       0x27 /opt/altera/13.0sp1/nios2eds/bin/gnu/H-i686-pc-linux-gnu/bin/../lib/gcc/nios2-elf/4.1.2/mno-hw-mul/libgcc.a(lib2-divmod.o)
 .comment       0x00000000       0x27 /opt/altera/13.0sp1/nios2eds/bin/gnu/H-i686-pc-linux-gnu/bin/../lib/gcc/nios2-elf/4.1.2/mno-hw-mul/libgcc.a(lib2-mul.o)
 .comment       0x00000000       0x27 /opt/altera/13.0sp1/nios2eds/bin/gnu/H-i686-pc-linux-gnu/bin/../lib/gcc/nios2-elf/4.1.2/mno-hw-mul/libgcc.a(_muldi3.o)
 .comment       0x00000000       0x27 /opt/altera/13.0sp1/nios2eds/bin/gnu/H-i686-pc-linux-gnu/bin/../lib/gcc/nios2-elf/4.1.2/mno-hw-mul/libgcc.a(_clzsi2.o)
 .comment       0x00000000       0x27 /opt/altera/13.0sp1/nios2eds/bin/gnu/H-i686-pc-linux-gnu/bin/../lib/gcc/nios2-elf/4.1.2/mno-hw-mul/libgcc.a(_make_sf.o)
 .comment       0x00000000       0x27 /opt/altera/13.0sp1/nios2eds/bin/gnu/H-i686-pc-linux-gnu/bin/../lib/gcc/nios2-elf/4.1.2/mno-hw-mul/libgcc.a(_pack_df.o)
 .comment       0x00000000       0x27 /opt/altera/13.0sp1/nios2eds/bin/gnu/H-i686-pc-linux-gnu/bin/../lib/gcc/nios2-elf/4.1.2/mno-hw-mul/libgcc.a(_unpack_df.o)
 .comment       0x00000000       0x27 /opt/altera/13.0sp1/nios2eds/bin/gnu/H-i686-pc-linux-gnu/bin/../lib/gcc/nios2-elf/4.1.2/mno-hw-mul/libgcc.a(_clz.o)
 .comment       0x00000000       0x27 /opt/altera/13.0sp1/nios2eds/bin/gnu/H-i686-pc-linux-gnu/bin/../lib/gcc/nios2-elf/4.1.2/mno-hw-mul/libgcc.a(_pack_sf.o)
 .comment       0x00000000       0x27 /opt/altera/13.0sp1/nios2eds/bin/gnu/H-i686-pc-linux-gnu/bin/../lib/gcc/nios2-elf/4.1.2/../../../../nios2-elf/lib/mno-hw-mul/libc.a(lib_a-malloc.o)
 .comment       0x00000000       0x27 /opt/altera/13.0sp1/nios2eds/bin/gnu/H-i686-pc-linux-gnu/bin/../lib/gcc/nios2-elf/4.1.2/../../../../nios2-elf/lib/mno-hw-mul/libc.a(lib_a-mallocr.o)
 .comment       0x00000000       0x27 /opt/altera/13.0sp1/nios2eds/bin/gnu/H-i686-pc-linux-gnu/bin/../lib/gcc/nios2-elf/4.1.2/../../../../nios2-elf/lib/mno-hw-mul/libc.a(lib_a-memcpy.o)
 .comment       0x00000000       0x27 /opt/altera/13.0sp1/nios2eds/bin/gnu/H-i686-pc-linux-gnu/bin/../lib/gcc/nios2-elf/4.1.2/../../../../nios2-elf/lib/mno-hw-mul/libc.a(lib_a-putchar.o)
 .comment       0x00000000       0x27 /opt/altera/13.0sp1/nios2eds/bin/gnu/H-i686-pc-linux-gnu/bin/../lib/gcc/nios2-elf/4.1.2/../../../../nios2-elf/lib/mno-hw-mul/libc.a(lib_a-puts.o)
 .comment       0x00000000       0x27 /opt/altera/13.0sp1/nios2eds/bin/gnu/H-i686-pc-linux-gnu/bin/../lib/gcc/nios2-elf/4.1.2/../../../../nios2-elf/lib/mno-hw-mul/libc.a(lib_a-sbrkr.o)
 .comment       0x00000000       0x27 /opt/altera/13.0sp1/nios2eds/bin/gnu/H-i686-pc-linux-gnu/bin/../lib/gcc/nios2-elf/4.1.2/../../../../nios2-elf/lib/mno-hw-mul/libc.a(lib_a-strlen.o)
 .comment       0x00000000       0x27 /opt/altera/13.0sp1/nios2eds/bin/gnu/H-i686-pc-linux-gnu/bin/../lib/gcc/nios2-elf/4.1.2/../../../../nios2-elf/lib/mno-hw-mul/libc.a(lib_a-freer.o)
 .comment       0x00000000       0x27 /opt/altera/13.0sp1/nios2eds/bin/gnu/H-i686-pc-linux-gnu/bin/../lib/gcc/nios2-elf/4.1.2/../../../../nios2-elf/lib/mno-hw-mul/libc.a(lib_a-fvwrite.o)
 .comment       0x00000000       0x27 /opt/altera/13.0sp1/nios2eds/bin/gnu/H-i686-pc-linux-gnu/bin/../lib/gcc/nios2-elf/4.1.2/../../../../nios2-elf/lib/mno-hw-mul/libc.a(lib_a-impure.o)
 .comment       0x00000000       0x27 /opt/altera/13.0sp1/nios2eds/bin/gnu/H-i686-pc-linux-gnu/bin/../lib/gcc/nios2-elf/4.1.2/../../../../nios2-elf/lib/mno-hw-mul/libc.a(lib_a-int_errno.o)
 .comment       0x00000000       0x27 /opt/altera/13.0sp1/nios2eds/bin/gnu/H-i686-pc-linux-gnu/bin/../lib/gcc/nios2-elf/4.1.2/../../../../nios2-elf/lib/mno-hw-mul/libc.a(lib_a-memchr.o)
 .comment       0x00000000       0x27 /opt/altera/13.0sp1/nios2eds/bin/gnu/H-i686-pc-linux-gnu/bin/../lib/gcc/nios2-elf/4.1.2/../../../../nios2-elf/lib/mno-hw-mul/libc.a(lib_a-memmove.o)
 .comment       0x00000000       0x27 /opt/altera/13.0sp1/nios2eds/bin/gnu/H-i686-pc-linux-gnu/bin/../lib/gcc/nios2-elf/4.1.2/../../../../nios2-elf/lib/mno-hw-mul/libc.a(lib_a-putc.o)
 .comment       0x00000000       0x27 /opt/altera/13.0sp1/nios2eds/bin/gnu/H-i686-pc-linux-gnu/bin/../lib/gcc/nios2-elf/4.1.2/../../../../nios2-elf/lib/mno-hw-mul/libc.a(lib_a-reallocr.o)
 .comment       0x00000000       0x27 /opt/altera/13.0sp1/nios2eds/bin/gnu/H-i686-pc-linux-gnu/bin/../lib/gcc/nios2-elf/4.1.2/../../../../nios2-elf/lib/mno-hw-mul/libc.a(lib_a-wbuf.o)
 .comment       0x00000000       0x27 /opt/altera/13.0sp1/nios2eds/bin/gnu/H-i686-pc-linux-gnu/bin/../lib/gcc/nios2-elf/4.1.2/../../../../nios2-elf/lib/mno-hw-mul/libc.a(lib_a-wsetup.o)
 .comment       0x00000000       0x27 /opt/altera/13.0sp1/nios2eds/bin/gnu/H-i686-pc-linux-gnu/bin/../lib/gcc/nios2-elf/4.1.2/../../../../nios2-elf/lib/mno-hw-mul/libc.a(lib_a-fflush.o)
 .comment       0x00000000       0x27 /opt/altera/13.0sp1/nios2eds/bin/gnu/H-i686-pc-linux-gnu/bin/../lib/gcc/nios2-elf/4.1.2/../../../../nios2-elf/lib/mno-hw-mul/libc.a(lib_a-findfp.o)
 .comment       0x00000000       0x27 /opt/altera/13.0sp1/nios2eds/bin/gnu/H-i686-pc-linux-gnu/bin/../lib/gcc/nios2-elf/4.1.2/../../../../nios2-elf/lib/mno-hw-mul/libc.a(lib_a-fwalk.o)
 .comment       0x00000000       0x27 /opt/altera/13.0sp1/nios2eds/bin/gnu/H-i686-pc-linux-gnu/bin/../lib/gcc/nios2-elf/4.1.2/../../../../nios2-elf/lib/mno-hw-mul/libc.a(lib_a-makebuf.o)
 .comment       0x00000000       0x27 /opt/altera/13.0sp1/nios2eds/bin/gnu/H-i686-pc-linux-gnu/bin/../lib/gcc/nios2-elf/4.1.2/../../../../nios2-elf/lib/mno-hw-mul/libc.a(lib_a-memset.o)
 .comment       0x00000000       0x27 /opt/altera/13.0sp1/nios2eds/bin/gnu/H-i686-pc-linux-gnu/bin/../lib/gcc/nios2-elf/4.1.2/../../../../nios2-elf/lib/mno-hw-mul/libc.a(lib_a-stdio.o)
 .comment       0x00000000       0x27 /opt/altera/13.0sp1/nios2eds/bin/gnu/H-i686-pc-linux-gnu/bin/../lib/gcc/nios2-elf/4.1.2/../../../../nios2-elf/lib/mno-hw-mul/libc.a(lib_a-writer.o)
 .comment       0x00000000       0x27 /opt/altera/13.0sp1/nios2eds/bin/gnu/H-i686-pc-linux-gnu/bin/../lib/gcc/nios2-elf/4.1.2/../../../../nios2-elf/lib/mno-hw-mul/libc.a(lib_a-closer.o)
 .comment       0x00000000       0x27 /opt/altera/13.0sp1/nios2eds/bin/gnu/H-i686-pc-linux-gnu/bin/../lib/gcc/nios2-elf/4.1.2/../../../../nios2-elf/lib/mno-hw-mul/libc.a(lib_a-fclose.o)
 .comment       0x00000000       0x27 /opt/altera/13.0sp1/nios2eds/bin/gnu/H-i686-pc-linux-gnu/bin/../lib/gcc/nios2-elf/4.1.2/../../../../nios2-elf/lib/mno-hw-mul/libc.a(lib_a-fstatr.o)
 .comment       0x00000000       0x27 /opt/altera/13.0sp1/nios2eds/bin/gnu/H-i686-pc-linux-gnu/bin/../lib/gcc/nios2-elf/4.1.2/../../../../nios2-elf/lib/mno-hw-mul/libc.a(lib_a-isattyr.o)
 .comment       0x00000000       0x27 /opt/altera/13.0sp1/nios2eds/bin/gnu/H-i686-pc-linux-gnu/bin/../lib/gcc/nios2-elf/4.1.2/../../../../nios2-elf/lib/mno-hw-mul/libc.a(lib_a-lseekr.o)
 .comment       0x00000000       0x27 /opt/altera/13.0sp1/nios2eds/bin/gnu/H-i686-pc-linux-gnu/bin/../lib/gcc/nios2-elf/4.1.2/../../../../nios2-elf/lib/mno-hw-mul/libc.a(lib_a-readr.o)
 .comment       0x00000000       0x27 ../../bsp/mpsoc_hello_ucosii//libucosii_bsp.a(alt_close.o)
 .comment       0x00000000       0x27 ../../bsp/mpsoc_hello_ucosii//libucosii_bsp.a(alt_dev.o)
 .comment       0x00000000       0x27 ../../bsp/mpsoc_hello_ucosii//libucosii_bsp.a(alt_errno.o)
 .comment       0x00000000       0x27 ../../bsp/mpsoc_hello_ucosii//libucosii_bsp.a(alt_fstat.o)
 .comment       0x00000000       0x27 ../../bsp/mpsoc_hello_ucosii//libucosii_bsp.a(alt_isatty.o)
 .comment       0x00000000       0x27 ../../bsp/mpsoc_hello_ucosii//libucosii_bsp.a(alt_load.o)
 .comment       0x00000000       0x27 ../../bsp/mpsoc_hello_ucosii//libucosii_bsp.a(alt_lseek.o)
 .comment       0x00000000       0x27 ../../bsp/mpsoc_hello_ucosii//libucosii_bsp.a(alt_main.o)
 .comment       0x00000000       0x27 ../../bsp/mpsoc_hello_ucosii//libucosii_bsp.a(alt_read.o)
 .comment       0x00000000       0x27 ../../bsp/mpsoc_hello_ucosii//libucosii_bsp.a(alt_release_fd.o)
 .comment       0x00000000       0x27 ../../bsp/mpsoc_hello_ucosii//libucosii_bsp.a(alt_sbrk.o)
 .comment       0x00000000       0x27 ../../bsp/mpsoc_hello_ucosii//libucosii_bsp.a(alt_write.o)
 .comment       0x00000000       0x27 ../../bsp/mpsoc_hello_ucosii//libucosii_bsp.a(alt_env_lock.o)
 .comment       0x00000000       0x27 ../../bsp/mpsoc_hello_ucosii//libucosii_bsp.a(alt_malloc_lock.o)
 .comment       0x00000000       0x27 ../../bsp/mpsoc_hello_ucosii//libucosii_bsp.a(os_core.o)
 .comment       0x00000000       0x27 ../../bsp/mpsoc_hello_ucosii//libucosii_bsp.a(os_dbg.o)
 .comment       0x00000000       0x27 ../../bsp/mpsoc_hello_ucosii//libucosii_bsp.a(os_flag.o)
 .comment       0x00000000       0x27 ../../bsp/mpsoc_hello_ucosii//libucosii_bsp.a(os_mem.o)
 .comment       0x00000000       0x27 ../../bsp/mpsoc_hello_ucosii//libucosii_bsp.a(os_q.o)
 .comment       0x00000000       0x27 ../../bsp/mpsoc_hello_ucosii//libucosii_bsp.a(os_sem.o)
 .comment       0x00000000       0x27 ../../bsp/mpsoc_hello_ucosii//libucosii_bsp.a(os_task.o)
 .comment       0x00000000       0x27 ../../bsp/mpsoc_hello_ucosii//libucosii_bsp.a(os_time.o)
 .comment       0x00000000       0x27 ../../bsp/mpsoc_hello_ucosii//libucosii_bsp.a(os_tmr.o)
 .comment       0x00000000       0x27 ../../bsp/mpsoc_hello_ucosii//libucosii_bsp.a(alt_sys_init.o)
 .comment       0x00000000       0x27 ../../bsp/mpsoc_hello_ucosii//libucosii_bsp.a(altera_avalon_jtag_uart_fd.o)
 .comment       0x00000000       0x27 ../../bsp/mpsoc_hello_ucosii//libucosii_bsp.a(altera_avalon_jtag_uart_init.o)
 .comment       0x00000000       0x27 ../../bsp/mpsoc_hello_ucosii//libucosii_bsp.a(altera_avalon_jtag_uart_ioctl.o)
 .comment       0x00000000       0x27 ../../bsp/mpsoc_hello_ucosii//libucosii_bsp.a(altera_avalon_jtag_uart_read.o)
 .comment       0x00000000       0x27 ../../bsp/mpsoc_hello_ucosii//libucosii_bsp.a(altera_avalon_jtag_uart_write.o)
 .comment       0x00000000       0x27 ../../bsp/mpsoc_hello_ucosii//libucosii_bsp.a(altera_avalon_mutex.o)
 .comment       0x00000000       0x27 ../../bsp/mpsoc_hello_ucosii//libucosii_bsp.a(altera_avalon_timer_sc.o)
 .comment       0x00000000       0x27 ../../bsp/mpsoc_hello_ucosii//libucosii_bsp.a(perf_print_formatted_report.o)
 .comment       0x00000000       0x27 ../../bsp/mpsoc_hello_ucosii//libucosii_bsp.a(alt_alarm_start.o)
 .comment       0x00000000       0x27 ../../bsp/mpsoc_hello_ucosii//libucosii_bsp.a(alt_dcache_flush_all.o)
 .comment       0x00000000       0x27 ../../bsp/mpsoc_hello_ucosii//libucosii_bsp.a(alt_dev_llist_insert.o)
 .comment       0x00000000       0x27 ../../bsp/mpsoc_hello_ucosii//libucosii_bsp.a(alt_do_ctors.o)
 .comment       0x00000000       0x27 ../../bsp/mpsoc_hello_ucosii//libucosii_bsp.a(alt_do_dtors.o)
 .comment       0x00000000       0x27 ../../bsp/mpsoc_hello_ucosii//libucosii_bsp.a(alt_find_dev.o)
 .comment       0x00000000       0x27 ../../bsp/mpsoc_hello_ucosii//libucosii_bsp.a(alt_icache_flush_all.o)
 .comment       0x00000000       0x27 ../../bsp/mpsoc_hello_ucosii//libucosii_bsp.a(alt_io_redirect.o)
 .comment       0x00000000       0x27 ../../bsp/mpsoc_hello_ucosii//libucosii_bsp.a(alt_irq_register.o)
 .comment       0x00000000       0x27 ../../bsp/mpsoc_hello_ucosii//libucosii_bsp.a(alt_irq_vars.o)
 .comment       0x00000000       0x27 ../../bsp/mpsoc_hello_ucosii//libucosii_bsp.a(alt_open.o)
 .comment       0x00000000       0x27 ../../bsp/mpsoc_hello_ucosii//libucosii_bsp.a(alt_tick.o)
 .comment       0x00000000       0x27 ../../bsp/mpsoc_hello_ucosii//libucosii_bsp.a(altera_nios2_qsys_irq.o)
 .comment       0x00000000       0x27 ../../bsp/mpsoc_hello_ucosii//libucosii_bsp.a(os_cpu_c.o)
 .comment       0x00000000       0x27 ../../bsp/mpsoc_hello_ucosii//libucosii_bsp.a(altera_avalon_performance_counter.o)
 .comment       0x00000000       0x27 ../../bsp/mpsoc_hello_ucosii//libucosii_bsp.a(alt_find_file.o)
 .comment       0x00000000       0x27 ../../bsp/mpsoc_hello_ucosii//libucosii_bsp.a(alt_get_fd.o)
 .comment       0x00000000       0x27 ../../bsp/mpsoc_hello_ucosii//libucosii_bsp.a(alt_irq_handler.o)
 .comment       0x00000000       0x27 /opt/altera/13.0sp1/nios2eds/bin/gnu/H-i686-pc-linux-gnu/bin/../lib/gcc/nios2-elf/4.1.2/../../../../nios2-elf/lib/mno-hw-mul/libc.a(lib_a-atexit.o)
 .comment       0x00000000       0x27 /opt/altera/13.0sp1/nios2eds/bin/gnu/H-i686-pc-linux-gnu/bin/../lib/gcc/nios2-elf/4.1.2/../../../../nios2-elf/lib/mno-hw-mul/libc.a(lib_a-exit.o)
 .comment       0x00000000       0x27 /opt/altera/13.0sp1/nios2eds/bin/gnu/H-i686-pc-linux-gnu/bin/../lib/gcc/nios2-elf/4.1.2/../../../../nios2-elf/lib/mno-hw-mul/libc.a(lib_a-memcmp.o)
 .comment       0x00000000       0x27 /opt/altera/13.0sp1/nios2eds/bin/gnu/H-i686-pc-linux-gnu/bin/../lib/gcc/nios2-elf/4.1.2/../../../../nios2-elf/lib/mno-hw-mul/libc.a(lib_a-printf.o)
 .comment       0x00000000       0x27 /opt/altera/13.0sp1/nios2eds/bin/gnu/H-i686-pc-linux-gnu/bin/../lib/gcc/nios2-elf/4.1.2/../../../../nios2-elf/lib/mno-hw-mul/libc.a(lib_a-vfprintf.o)
 .comment       0x00000000       0x27 /opt/altera/13.0sp1/nios2eds/bin/gnu/H-i686-pc-linux-gnu/bin/../lib/gcc/nios2-elf/4.1.2/../../../../nios2-elf/lib/mno-hw-mul/libc.a(lib_a-__atexit.o)
 .comment       0x00000000       0x27 /opt/altera/13.0sp1/nios2eds/bin/gnu/H-i686-pc-linux-gnu/bin/../lib/gcc/nios2-elf/4.1.2/../../../../nios2-elf/lib/mno-hw-mul/libc.a(lib_a-__call_atexit.o)
 .comment       0x00000000       0x27 /opt/altera/13.0sp1/nios2eds/bin/gnu/H-i686-pc-linux-gnu/bin/../lib/gcc/nios2-elf/4.1.2/../../../../nios2-elf/lib/mno-hw-mul/libc.a(lib_a-dtoa.o)
 .comment       0x00000000       0x27 /opt/altera/13.0sp1/nios2eds/bin/gnu/H-i686-pc-linux-gnu/bin/../lib/gcc/nios2-elf/4.1.2/../../../../nios2-elf/lib/mno-hw-mul/libc.a(lib_a-locale.o)
 .comment       0x00000000       0x27 /opt/altera/13.0sp1/nios2eds/bin/gnu/H-i686-pc-linux-gnu/bin/../lib/gcc/nios2-elf/4.1.2/../../../../nios2-elf/lib/mno-hw-mul/libc.a(lib_a-mprec.o)
 .comment       0x00000000       0x27 /opt/altera/13.0sp1/nios2eds/bin/gnu/H-i686-pc-linux-gnu/bin/../lib/gcc/nios2-elf/4.1.2/../../../../nios2-elf/lib/mno-hw-mul/libc.a(lib_a-s_isinfd.o)
 .comment       0x00000000       0x27 /opt/altera/13.0sp1/nios2eds/bin/gnu/H-i686-pc-linux-gnu/bin/../lib/gcc/nios2-elf/4.1.2/../../../../nios2-elf/lib/mno-hw-mul/libc.a(lib_a-s_isnand.o)
 .comment       0x00000000       0x27 /opt/altera/13.0sp1/nios2eds/bin/gnu/H-i686-pc-linux-gnu/bin/../lib/gcc/nios2-elf/4.1.2/../../../../nios2-elf/lib/mno-hw-mul/libc.a(lib_a-strcmp.o)
 .comment       0x00000000       0x27 /opt/altera/13.0sp1/nios2eds/bin/gnu/H-i686-pc-linux-gnu/bin/../lib/gcc/nios2-elf/4.1.2/../../../../nios2-elf/lib/mno-hw-mul/libc.a(lib_a-callocr.o)
 .comment       0x00000000       0x27 /opt/altera/13.0sp1/nios2eds/bin/gnu/H-i686-pc-linux-gnu/bin/../lib/gcc/nios2-elf/4.1.2/mno-hw-mul/libgcc.a(_fixunsdfsi.o)
 .comment       0x00000000       0x27 /opt/altera/13.0sp1/nios2eds/bin/gnu/H-i686-pc-linux-gnu/bin/../lib/gcc/nios2-elf/4.1.2/mno-hw-mul/libgcc.a(_floatundidf.o)
 .comment       0x00000000       0x27 /opt/altera/13.0sp1/nios2eds/bin/gnu/H-i686-pc-linux-gnu/bin/../lib/gcc/nios2-elf/4.1.2/mno-hw-mul/libgcc.a(_udivdi3.o)
 .comment       0x00000000       0x27 /opt/altera/13.0sp1/nios2eds/bin/gnu/H-i686-pc-linux-gnu/bin/../lib/gcc/nios2-elf/4.1.2/mno-hw-mul/libgcc.a(_umoddi3.o)
 .comment       0x00000000       0x27 /opt/altera/13.0sp1/nios2eds/bin/gnu/H-i686-pc-linux-gnu/bin/../lib/gcc/nios2-elf/4.1.2/mno-hw-mul/libgcc.a(_div_df.o)
 .comment       0x00000000       0x27 /opt/altera/13.0sp1/nios2eds/bin/gnu/H-i686-pc-linux-gnu/bin/../lib/gcc/nios2-elf/4.1.2/mno-hw-mul/libgcc.a(_eq_df.o)
 .comment       0x00000000       0x27 /opt/altera/13.0sp1/nios2eds/bin/gnu/H-i686-pc-linux-gnu/bin/../lib/gcc/nios2-elf/4.1.2/mno-hw-mul/libgcc.a(_ne_df.o)
 .comment       0x00000000       0x27 /opt/altera/13.0sp1/nios2eds/bin/gnu/H-i686-pc-linux-gnu/bin/../lib/gcc/nios2-elf/4.1.2/mno-hw-mul/libgcc.a(_gt_df.o)
 .comment       0x00000000       0x27 /opt/altera/13.0sp1/nios2eds/bin/gnu/H-i686-pc-linux-gnu/bin/../lib/gcc/nios2-elf/4.1.2/mno-hw-mul/libgcc.a(_ge_df.o)
 .comment       0x00000000       0x27 /opt/altera/13.0sp1/nios2eds/bin/gnu/H-i686-pc-linux-gnu/bin/../lib/gcc/nios2-elf/4.1.2/mno-hw-mul/libgcc.a(_lt_df.o)
 .comment       0x00000000       0x27 /opt/altera/13.0sp1/nios2eds/bin/gnu/H-i686-pc-linux-gnu/bin/../lib/gcc/nios2-elf/4.1.2/mno-hw-mul/libgcc.a(_df_to_si.o)
 .comment       0x00000000       0x27 /opt/altera/13.0sp1/nios2eds/bin/gnu/H-i686-pc-linux-gnu/bin/../lib/gcc/nios2-elf/4.1.2/mno-hw-mul/libgcc.a(_usi_to_df.o)
 .comment       0x00000000       0x27 /opt/altera/13.0sp1/nios2eds/bin/gnu/H-i686-pc-linux-gnu/bin/../lib/gcc/nios2-elf/4.1.2/mno-hw-mul/libgcc.a(_fpcmp_parts_df.o)
 .comment       0x00000000       0x27 ../../bsp/mpsoc_hello_ucosii//libucosii_bsp.a(alt_exit.o)

.debug
 *(.debug)

.line
 *(.line)

.debug_srcinfo
 *(.debug_srcinfo)

.debug_sfnames
 *(.debug_sfnames)

.debug_aranges  0x00000000      0xf58
 *(.debug_aranges)
 .debug_aranges
                0x00000000       0x28 ../../bsp/mpsoc_hello_ucosii//obj/HAL/src/crt0.o
 .debug_aranges
                0x00000028       0x20 obj/default/src/image_bare.o
 .debug_aranges
                0x00000048       0x20 /opt/altera/13.0sp1/nios2eds/bin/gnu/H-i686-pc-linux-gnu/bin/../lib/gcc/nios2-elf/4.1.2/mno-hw-mul/libgcc.a(_addsub_df.o)
 .debug_aranges
                0x00000068       0x20 /opt/altera/13.0sp1/nios2eds/bin/gnu/H-i686-pc-linux-gnu/bin/../lib/gcc/nios2-elf/4.1.2/mno-hw-mul/libgcc.a(_mul_df.o)
 .debug_aranges
                0x00000088       0x20 /opt/altera/13.0sp1/nios2eds/bin/gnu/H-i686-pc-linux-gnu/bin/../lib/gcc/nios2-elf/4.1.2/mno-hw-mul/libgcc.a(_si_to_df.o)
 .debug_aranges
                0x000000a8       0x20 /opt/altera/13.0sp1/nios2eds/bin/gnu/H-i686-pc-linux-gnu/bin/../lib/gcc/nios2-elf/4.1.2/mno-hw-mul/libgcc.a(_df_to_sf.o)
 .debug_aranges
                0x000000c8       0x20 /opt/altera/13.0sp1/nios2eds/bin/gnu/H-i686-pc-linux-gnu/bin/../lib/gcc/nios2-elf/4.1.2/mno-hw-mul/libgcc.a(lib2-divmod.o)
 .debug_aranges
                0x000000e8       0x20 /opt/altera/13.0sp1/nios2eds/bin/gnu/H-i686-pc-linux-gnu/bin/../lib/gcc/nios2-elf/4.1.2/mno-hw-mul/libgcc.a(lib2-mul.o)
 .debug_aranges
                0x00000108       0x20 /opt/altera/13.0sp1/nios2eds/bin/gnu/H-i686-pc-linux-gnu/bin/../lib/gcc/nios2-elf/4.1.2/mno-hw-mul/libgcc.a(_muldi3.o)
 .debug_aranges
                0x00000128       0x20 /opt/altera/13.0sp1/nios2eds/bin/gnu/H-i686-pc-linux-gnu/bin/../lib/gcc/nios2-elf/4.1.2/mno-hw-mul/libgcc.a(_clzsi2.o)
 .debug_aranges
                0x00000148       0x20 /opt/altera/13.0sp1/nios2eds/bin/gnu/H-i686-pc-linux-gnu/bin/../lib/gcc/nios2-elf/4.1.2/mno-hw-mul/libgcc.a(_make_sf.o)
 .debug_aranges
                0x00000168       0x20 /opt/altera/13.0sp1/nios2eds/bin/gnu/H-i686-pc-linux-gnu/bin/../lib/gcc/nios2-elf/4.1.2/mno-hw-mul/libgcc.a(_pack_df.o)
 .debug_aranges
                0x00000188       0x20 /opt/altera/13.0sp1/nios2eds/bin/gnu/H-i686-pc-linux-gnu/bin/../lib/gcc/nios2-elf/4.1.2/mno-hw-mul/libgcc.a(_unpack_df.o)
 .debug_aranges
                0x000001a8       0x20 /opt/altera/13.0sp1/nios2eds/bin/gnu/H-i686-pc-linux-gnu/bin/../lib/gcc/nios2-elf/4.1.2/mno-hw-mul/libgcc.a(_pack_sf.o)
 .debug_aranges
                0x000001c8       0x20 /opt/altera/13.0sp1/nios2eds/bin/gnu/H-i686-pc-linux-gnu/bin/../lib/gcc/nios2-elf/4.1.2/../../../../nios2-elf/lib/mno-hw-mul/libc.a(lib_a-malloc.o)
 .debug_aranges
                0x000001e8       0x20 /opt/altera/13.0sp1/nios2eds/bin/gnu/H-i686-pc-linux-gnu/bin/../lib/gcc/nios2-elf/4.1.2/../../../../nios2-elf/lib/mno-hw-mul/libc.a(lib_a-mallocr.o)
 .debug_aranges
                0x00000208       0x20 /opt/altera/13.0sp1/nios2eds/bin/gnu/H-i686-pc-linux-gnu/bin/../lib/gcc/nios2-elf/4.1.2/../../../../nios2-elf/lib/mno-hw-mul/libc.a(lib_a-memcpy.o)
 .debug_aranges
                0x00000228       0x20 /opt/altera/13.0sp1/nios2eds/bin/gnu/H-i686-pc-linux-gnu/bin/../lib/gcc/nios2-elf/4.1.2/../../../../nios2-elf/lib/mno-hw-mul/libc.a(lib_a-putchar.o)
 .debug_aranges
                0x00000248       0x20 /opt/altera/13.0sp1/nios2eds/bin/gnu/H-i686-pc-linux-gnu/bin/../lib/gcc/nios2-elf/4.1.2/../../../../nios2-elf/lib/mno-hw-mul/libc.a(lib_a-puts.o)
 .debug_aranges
                0x00000268       0x20 /opt/altera/13.0sp1/nios2eds/bin/gnu/H-i686-pc-linux-gnu/bin/../lib/gcc/nios2-elf/4.1.2/../../../../nios2-elf/lib/mno-hw-mul/libc.a(lib_a-sbrkr.o)
 .debug_aranges
                0x00000288       0x20 /opt/altera/13.0sp1/nios2eds/bin/gnu/H-i686-pc-linux-gnu/bin/../lib/gcc/nios2-elf/4.1.2/../../../../nios2-elf/lib/mno-hw-mul/libc.a(lib_a-strlen.o)
 .debug_aranges
                0x000002a8       0x20 /opt/altera/13.0sp1/nios2eds/bin/gnu/H-i686-pc-linux-gnu/bin/../lib/gcc/nios2-elf/4.1.2/../../../../nios2-elf/lib/mno-hw-mul/libc.a(lib_a-freer.o)
 .debug_aranges
                0x000002c8       0x20 /opt/altera/13.0sp1/nios2eds/bin/gnu/H-i686-pc-linux-gnu/bin/../lib/gcc/nios2-elf/4.1.2/../../../../nios2-elf/lib/mno-hw-mul/libc.a(lib_a-fvwrite.o)
 .debug_aranges
                0x000002e8       0x20 /opt/altera/13.0sp1/nios2eds/bin/gnu/H-i686-pc-linux-gnu/bin/../lib/gcc/nios2-elf/4.1.2/../../../../nios2-elf/lib/mno-hw-mul/libc.a(lib_a-memchr.o)
 .debug_aranges
                0x00000308       0x20 /opt/altera/13.0sp1/nios2eds/bin/gnu/H-i686-pc-linux-gnu/bin/../lib/gcc/nios2-elf/4.1.2/../../../../nios2-elf/lib/mno-hw-mul/libc.a(lib_a-memmove.o)
 .debug_aranges
                0x00000328       0x20 /opt/altera/13.0sp1/nios2eds/bin/gnu/H-i686-pc-linux-gnu/bin/../lib/gcc/nios2-elf/4.1.2/../../../../nios2-elf/lib/mno-hw-mul/libc.a(lib_a-putc.o)
 .debug_aranges
                0x00000348       0x20 /opt/altera/13.0sp1/nios2eds/bin/gnu/H-i686-pc-linux-gnu/bin/../lib/gcc/nios2-elf/4.1.2/../../../../nios2-elf/lib/mno-hw-mul/libc.a(lib_a-reallocr.o)
 .debug_aranges
                0x00000368       0x20 /opt/altera/13.0sp1/nios2eds/bin/gnu/H-i686-pc-linux-gnu/bin/../lib/gcc/nios2-elf/4.1.2/../../../../nios2-elf/lib/mno-hw-mul/libc.a(lib_a-wbuf.o)
 .debug_aranges
                0x00000388       0x20 /opt/altera/13.0sp1/nios2eds/bin/gnu/H-i686-pc-linux-gnu/bin/../lib/gcc/nios2-elf/4.1.2/../../../../nios2-elf/lib/mno-hw-mul/libc.a(lib_a-wsetup.o)
 .debug_aranges
                0x000003a8       0x20 /opt/altera/13.0sp1/nios2eds/bin/gnu/H-i686-pc-linux-gnu/bin/../lib/gcc/nios2-elf/4.1.2/../../../../nios2-elf/lib/mno-hw-mul/libc.a(lib_a-fflush.o)
 .debug_aranges
                0x000003c8       0x20 /opt/altera/13.0sp1/nios2eds/bin/gnu/H-i686-pc-linux-gnu/bin/../lib/gcc/nios2-elf/4.1.2/../../../../nios2-elf/lib/mno-hw-mul/libc.a(lib_a-findfp.o)
 .debug_aranges
                0x000003e8       0x20 /opt/altera/13.0sp1/nios2eds/bin/gnu/H-i686-pc-linux-gnu/bin/../lib/gcc/nios2-elf/4.1.2/../../../../nios2-elf/lib/mno-hw-mul/libc.a(lib_a-fwalk.o)
 .debug_aranges
                0x00000408       0x20 /opt/altera/13.0sp1/nios2eds/bin/gnu/H-i686-pc-linux-gnu/bin/../lib/gcc/nios2-elf/4.1.2/../../../../nios2-elf/lib/mno-hw-mul/libc.a(lib_a-makebuf.o)
 .debug_aranges
                0x00000428       0x20 /opt/altera/13.0sp1/nios2eds/bin/gnu/H-i686-pc-linux-gnu/bin/../lib/gcc/nios2-elf/4.1.2/../../../../nios2-elf/lib/mno-hw-mul/libc.a(lib_a-memset.o)
 .debug_aranges
                0x00000448       0x20 /opt/altera/13.0sp1/nios2eds/bin/gnu/H-i686-pc-linux-gnu/bin/../lib/gcc/nios2-elf/4.1.2/../../../../nios2-elf/lib/mno-hw-mul/libc.a(lib_a-stdio.o)
 .debug_aranges
                0x00000468       0x20 /opt/altera/13.0sp1/nios2eds/bin/gnu/H-i686-pc-linux-gnu/bin/../lib/gcc/nios2-elf/4.1.2/../../../../nios2-elf/lib/mno-hw-mul/libc.a(lib_a-writer.o)
 .debug_aranges
                0x00000488       0x20 /opt/altera/13.0sp1/nios2eds/bin/gnu/H-i686-pc-linux-gnu/bin/../lib/gcc/nios2-elf/4.1.2/../../../../nios2-elf/lib/mno-hw-mul/libc.a(lib_a-closer.o)
 .debug_aranges
                0x000004a8       0x20 /opt/altera/13.0sp1/nios2eds/bin/gnu/H-i686-pc-linux-gnu/bin/../lib/gcc/nios2-elf/4.1.2/../../../../nios2-elf/lib/mno-hw-mul/libc.a(lib_a-fclose.o)
 .debug_aranges
                0x000004c8       0x20 /opt/altera/13.0sp1/nios2eds/bin/gnu/H-i686-pc-linux-gnu/bin/../lib/gcc/nios2-elf/4.1.2/../../../../nios2-elf/lib/mno-hw-mul/libc.a(lib_a-fstatr.o)
 .debug_aranges
                0x000004e8       0x20 /opt/altera/13.0sp1/nios2eds/bin/gnu/H-i686-pc-linux-gnu/bin/../lib/gcc/nios2-elf/4.1.2/../../../../nios2-elf/lib/mno-hw-mul/libc.a(lib_a-isattyr.o)
 .debug_aranges
                0x00000508       0x20 /opt/altera/13.0sp1/nios2eds/bin/gnu/H-i686-pc-linux-gnu/bin/../lib/gcc/nios2-elf/4.1.2/../../../../nios2-elf/lib/mno-hw-mul/libc.a(lib_a-lseekr.o)
 .debug_aranges
                0x00000528       0x20 /opt/altera/13.0sp1/nios2eds/bin/gnu/H-i686-pc-linux-gnu/bin/../lib/gcc/nios2-elf/4.1.2/../../../../nios2-elf/lib/mno-hw-mul/libc.a(lib_a-readr.o)
 .debug_aranges
                0x00000548       0x20 ../../bsp/mpsoc_hello_ucosii//libucosii_bsp.a(alt_close.o)
 .debug_aranges
                0x00000568       0x20 ../../bsp/mpsoc_hello_ucosii//libucosii_bsp.a(alt_dev.o)
 .debug_aranges
                0x00000588       0x20 ../../bsp/mpsoc_hello_ucosii//libucosii_bsp.a(alt_fstat.o)
 .debug_aranges
                0x000005a8       0x20 ../../bsp/mpsoc_hello_ucosii//libucosii_bsp.a(alt_isatty.o)
 .debug_aranges
                0x000005c8       0x20 ../../bsp/mpsoc_hello_ucosii//libucosii_bsp.a(alt_load.o)
 .debug_aranges
                0x000005e8       0x20 ../../bsp/mpsoc_hello_ucosii//libucosii_bsp.a(alt_lseek.o)
 .debug_aranges
                0x00000608       0x20 ../../bsp/mpsoc_hello_ucosii//libucosii_bsp.a(alt_main.o)
 .debug_aranges
                0x00000628       0x20 ../../bsp/mpsoc_hello_ucosii//libucosii_bsp.a(alt_read.o)
 .debug_aranges
                0x00000648       0x20 ../../bsp/mpsoc_hello_ucosii//libucosii_bsp.a(alt_release_fd.o)
 .debug_aranges
                0x00000668       0x20 ../../bsp/mpsoc_hello_ucosii//libucosii_bsp.a(alt_sbrk.o)
 .debug_aranges
                0x00000688       0x20 ../../bsp/mpsoc_hello_ucosii//libucosii_bsp.a(alt_write.o)
 .debug_aranges
                0x000006a8       0x20 ../../bsp/mpsoc_hello_ucosii//libucosii_bsp.a(alt_env_lock.o)
 .debug_aranges
                0x000006c8       0x20 ../../bsp/mpsoc_hello_ucosii//libucosii_bsp.a(alt_malloc_lock.o)
 .debug_aranges
                0x000006e8       0x20 ../../bsp/mpsoc_hello_ucosii//libucosii_bsp.a(os_core.o)
 .debug_aranges
                0x00000708       0x20 ../../bsp/mpsoc_hello_ucosii//libucosii_bsp.a(os_dbg.o)
 .debug_aranges
                0x00000728       0x20 ../../bsp/mpsoc_hello_ucosii//libucosii_bsp.a(os_flag.o)
 .debug_aranges
                0x00000748       0x20 ../../bsp/mpsoc_hello_ucosii//libucosii_bsp.a(os_mem.o)
 .debug_aranges
                0x00000768       0x20 ../../bsp/mpsoc_hello_ucosii//libucosii_bsp.a(os_q.o)
 .debug_aranges
                0x00000788       0x20 ../../bsp/mpsoc_hello_ucosii//libucosii_bsp.a(os_sem.o)
 .debug_aranges
                0x000007a8       0x20 ../../bsp/mpsoc_hello_ucosii//libucosii_bsp.a(os_task.o)
 .debug_aranges
                0x000007c8       0x20 ../../bsp/mpsoc_hello_ucosii//libucosii_bsp.a(os_time.o)
 .debug_aranges
                0x000007e8       0x20 ../../bsp/mpsoc_hello_ucosii//libucosii_bsp.a(os_tmr.o)
 .debug_aranges
                0x00000808       0x20 ../../bsp/mpsoc_hello_ucosii//libucosii_bsp.a(alt_sys_init.o)
 .debug_aranges
                0x00000828       0x20 ../../bsp/mpsoc_hello_ucosii//libucosii_bsp.a(altera_avalon_jtag_uart_fd.o)
 .debug_aranges
                0x00000848       0x20 ../../bsp/mpsoc_hello_ucosii//libucosii_bsp.a(altera_avalon_jtag_uart_init.o)
 .debug_aranges
                0x00000868       0x20 ../../bsp/mpsoc_hello_ucosii//libucosii_bsp.a(altera_avalon_jtag_uart_ioctl.o)
 .debug_aranges
                0x00000888       0x20 ../../bsp/mpsoc_hello_ucosii//libucosii_bsp.a(altera_avalon_jtag_uart_read.o)
 .debug_aranges
                0x000008a8       0x20 ../../bsp/mpsoc_hello_ucosii//libucosii_bsp.a(altera_avalon_jtag_uart_write.o)
 .debug_aranges
                0x000008c8       0x20 ../../bsp/mpsoc_hello_ucosii//libucosii_bsp.a(altera_avalon_mutex.o)
 .debug_aranges
                0x000008e8       0x20 ../../bsp/mpsoc_hello_ucosii//libucosii_bsp.a(altera_avalon_timer_sc.o)
 .debug_aranges
                0x00000908       0x20 ../../bsp/mpsoc_hello_ucosii//libucosii_bsp.a(perf_print_formatted_report.o)
 .debug_aranges
                0x00000928       0x20 ../../bsp/mpsoc_hello_ucosii//libucosii_bsp.a(alt_alarm_start.o)
 .debug_aranges
                0x00000948       0x20 ../../bsp/mpsoc_hello_ucosii//libucosii_bsp.a(alt_dcache_flush_all.o)
 .debug_aranges
                0x00000968       0x20 ../../bsp/mpsoc_hello_ucosii//libucosii_bsp.a(alt_dev_llist_insert.o)
 .debug_aranges
                0x00000988       0x20 ../../bsp/mpsoc_hello_ucosii//libucosii_bsp.a(alt_do_ctors.o)
 .debug_aranges
                0x000009a8       0x20 ../../bsp/mpsoc_hello_ucosii//libucosii_bsp.a(alt_do_dtors.o)
 .debug_aranges
                0x000009c8       0x20 ../../bsp/mpsoc_hello_ucosii//libucosii_bsp.a(alt_find_dev.o)
 .debug_aranges
                0x000009e8       0x20 ../../bsp/mpsoc_hello_ucosii//libucosii_bsp.a(alt_icache_flush_all.o)
 .debug_aranges
                0x00000a08       0x20 ../../bsp/mpsoc_hello_ucosii//libucosii_bsp.a(alt_io_redirect.o)
 .debug_aranges
                0x00000a28       0x20 ../../bsp/mpsoc_hello_ucosii//libucosii_bsp.a(alt_irq_register.o)
 .debug_aranges
                0x00000a48       0x20 ../../bsp/mpsoc_hello_ucosii//libucosii_bsp.a(alt_open.o)
 .debug_aranges
                0x00000a68       0x20 ../../bsp/mpsoc_hello_ucosii//libucosii_bsp.a(alt_tick.o)
 .debug_aranges
                0x00000a88       0x20 ../../bsp/mpsoc_hello_ucosii//libucosii_bsp.a(altera_nios2_qsys_irq.o)
 .debug_aranges
                0x00000aa8       0x20 ../../bsp/mpsoc_hello_ucosii//libucosii_bsp.a(os_cpu_a.o)
 .debug_aranges
                0x00000ac8       0x20 ../../bsp/mpsoc_hello_ucosii//libucosii_bsp.a(os_cpu_c.o)
 .debug_aranges
                0x00000ae8       0x20 ../../bsp/mpsoc_hello_ucosii//libucosii_bsp.a(altera_avalon_performance_counter.o)
 .debug_aranges
                0x00000b08       0x20 ../../bsp/mpsoc_hello_ucosii//libucosii_bsp.a(alt_find_file.o)
 .debug_aranges
                0x00000b28       0x20 ../../bsp/mpsoc_hello_ucosii//libucosii_bsp.a(alt_get_fd.o)
 .debug_aranges
                0x00000b48       0x30 ../../bsp/mpsoc_hello_ucosii//libucosii_bsp.a(alt_irq_entry.o)
 .debug_aranges
                0x00000b78       0x28 ../../bsp/mpsoc_hello_ucosii//libucosii_bsp.a(alt_irq_handler.o)
 .debug_aranges
                0x00000ba0       0x38 ../../bsp/mpsoc_hello_ucosii//libucosii_bsp.a(alt_exception_entry.o)
 .debug_aranges
                0x00000bd8       0x20 /opt/altera/13.0sp1/nios2eds/bin/gnu/H-i686-pc-linux-gnu/bin/../lib/gcc/nios2-elf/4.1.2/../../../../nios2-elf/lib/mno-hw-mul/libc.a(lib_a-atexit.o)
 .debug_aranges
                0x00000bf8       0x20 /opt/altera/13.0sp1/nios2eds/bin/gnu/H-i686-pc-linux-gnu/bin/../lib/gcc/nios2-elf/4.1.2/../../../../nios2-elf/lib/mno-hw-mul/libc.a(lib_a-exit.o)
 .debug_aranges
                0x00000c18       0x20 /opt/altera/13.0sp1/nios2eds/bin/gnu/H-i686-pc-linux-gnu/bin/../lib/gcc/nios2-elf/4.1.2/../../../../nios2-elf/lib/mno-hw-mul/libc.a(lib_a-memcmp.o)
 .debug_aranges
                0x00000c38       0x20 /opt/altera/13.0sp1/nios2eds/bin/gnu/H-i686-pc-linux-gnu/bin/../lib/gcc/nios2-elf/4.1.2/../../../../nios2-elf/lib/mno-hw-mul/libc.a(lib_a-printf.o)
 .debug_aranges
                0x00000c58       0x20 /opt/altera/13.0sp1/nios2eds/bin/gnu/H-i686-pc-linux-gnu/bin/../lib/gcc/nios2-elf/4.1.2/../../../../nios2-elf/lib/mno-hw-mul/libc.a(lib_a-vfprintf.o)
 .debug_aranges
                0x00000c78       0x20 /opt/altera/13.0sp1/nios2eds/bin/gnu/H-i686-pc-linux-gnu/bin/../lib/gcc/nios2-elf/4.1.2/../../../../nios2-elf/lib/mno-hw-mul/libc.a(lib_a-__atexit.o)
 .debug_aranges
                0x00000c98       0x20 /opt/altera/13.0sp1/nios2eds/bin/gnu/H-i686-pc-linux-gnu/bin/../lib/gcc/nios2-elf/4.1.2/../../../../nios2-elf/lib/mno-hw-mul/libc.a(lib_a-__call_atexit.o)
 .debug_aranges
                0x00000cb8       0x20 /opt/altera/13.0sp1/nios2eds/bin/gnu/H-i686-pc-linux-gnu/bin/../lib/gcc/nios2-elf/4.1.2/../../../../nios2-elf/lib/mno-hw-mul/libc.a(lib_a-dtoa.o)
 .debug_aranges
                0x00000cd8       0x20 /opt/altera/13.0sp1/nios2eds/bin/gnu/H-i686-pc-linux-gnu/bin/../lib/gcc/nios2-elf/4.1.2/../../../../nios2-elf/lib/mno-hw-mul/libc.a(lib_a-locale.o)
 .debug_aranges
                0x00000cf8       0x20 /opt/altera/13.0sp1/nios2eds/bin/gnu/H-i686-pc-linux-gnu/bin/../lib/gcc/nios2-elf/4.1.2/../../../../nios2-elf/lib/mno-hw-mul/libc.a(lib_a-mprec.o)
 .debug_aranges
                0x00000d18       0x20 /opt/altera/13.0sp1/nios2eds/bin/gnu/H-i686-pc-linux-gnu/bin/../lib/gcc/nios2-elf/4.1.2/../../../../nios2-elf/lib/mno-hw-mul/libc.a(lib_a-s_isinfd.o)
 .debug_aranges
                0x00000d38       0x20 /opt/altera/13.0sp1/nios2eds/bin/gnu/H-i686-pc-linux-gnu/bin/../lib/gcc/nios2-elf/4.1.2/../../../../nios2-elf/lib/mno-hw-mul/libc.a(lib_a-s_isnand.o)
 .debug_aranges
                0x00000d58       0x20 /opt/altera/13.0sp1/nios2eds/bin/gnu/H-i686-pc-linux-gnu/bin/../lib/gcc/nios2-elf/4.1.2/../../../../nios2-elf/lib/mno-hw-mul/libc.a(lib_a-strcmp.o)
 .debug_aranges
                0x00000d78       0x20 /opt/altera/13.0sp1/nios2eds/bin/gnu/H-i686-pc-linux-gnu/bin/../lib/gcc/nios2-elf/4.1.2/../../../../nios2-elf/lib/mno-hw-mul/libc.a(lib_a-callocr.o)
 .debug_aranges
                0x00000d98       0x20 /opt/altera/13.0sp1/nios2eds/bin/gnu/H-i686-pc-linux-gnu/bin/../lib/gcc/nios2-elf/4.1.2/mno-hw-mul/libgcc.a(_fixunsdfsi.o)
 .debug_aranges
                0x00000db8       0x20 /opt/altera/13.0sp1/nios2eds/bin/gnu/H-i686-pc-linux-gnu/bin/../lib/gcc/nios2-elf/4.1.2/mno-hw-mul/libgcc.a(_floatundidf.o)
 .debug_aranges
                0x00000dd8       0x20 /opt/altera/13.0sp1/nios2eds/bin/gnu/H-i686-pc-linux-gnu/bin/../lib/gcc/nios2-elf/4.1.2/mno-hw-mul/libgcc.a(_udivdi3.o)
 .debug_aranges
                0x00000df8       0x20 /opt/altera/13.0sp1/nios2eds/bin/gnu/H-i686-pc-linux-gnu/bin/../lib/gcc/nios2-elf/4.1.2/mno-hw-mul/libgcc.a(_umoddi3.o)
 .debug_aranges
                0x00000e18       0x20 /opt/altera/13.0sp1/nios2eds/bin/gnu/H-i686-pc-linux-gnu/bin/../lib/gcc/nios2-elf/4.1.2/mno-hw-mul/libgcc.a(_div_df.o)
 .debug_aranges
                0x00000e38       0x20 /opt/altera/13.0sp1/nios2eds/bin/gnu/H-i686-pc-linux-gnu/bin/../lib/gcc/nios2-elf/4.1.2/mno-hw-mul/libgcc.a(_eq_df.o)
 .debug_aranges
                0x00000e58       0x20 /opt/altera/13.0sp1/nios2eds/bin/gnu/H-i686-pc-linux-gnu/bin/../lib/gcc/nios2-elf/4.1.2/mno-hw-mul/libgcc.a(_ne_df.o)
 .debug_aranges
                0x00000e78       0x20 /opt/altera/13.0sp1/nios2eds/bin/gnu/H-i686-pc-linux-gnu/bin/../lib/gcc/nios2-elf/4.1.2/mno-hw-mul/libgcc.a(_gt_df.o)
 .debug_aranges
                0x00000e98       0x20 /opt/altera/13.0sp1/nios2eds/bin/gnu/H-i686-pc-linux-gnu/bin/../lib/gcc/nios2-elf/4.1.2/mno-hw-mul/libgcc.a(_ge_df.o)
 .debug_aranges
                0x00000eb8       0x20 /opt/altera/13.0sp1/nios2eds/bin/gnu/H-i686-pc-linux-gnu/bin/../lib/gcc/nios2-elf/4.1.2/mno-hw-mul/libgcc.a(_lt_df.o)
 .debug_aranges
                0x00000ed8       0x20 /opt/altera/13.0sp1/nios2eds/bin/gnu/H-i686-pc-linux-gnu/bin/../lib/gcc/nios2-elf/4.1.2/mno-hw-mul/libgcc.a(_df_to_si.o)
 .debug_aranges
                0x00000ef8       0x20 /opt/altera/13.0sp1/nios2eds/bin/gnu/H-i686-pc-linux-gnu/bin/../lib/gcc/nios2-elf/4.1.2/mno-hw-mul/libgcc.a(_usi_to_df.o)
 .debug_aranges
                0x00000f18       0x20 /opt/altera/13.0sp1/nios2eds/bin/gnu/H-i686-pc-linux-gnu/bin/../lib/gcc/nios2-elf/4.1.2/mno-hw-mul/libgcc.a(_fpcmp_parts_df.o)
 .debug_aranges
                0x00000f38       0x20 ../../bsp/mpsoc_hello_ucosii//libucosii_bsp.a(alt_exit.o)

.debug_pubnames
                0x00000000     0x247e
 *(.debug_pubnames)
 .debug_pubnames
                0x00000000       0xef obj/default/src/image_bare.o
 .debug_pubnames
                0x000000ef       0x2c /opt/altera/13.0sp1/nios2eds/bin/gnu/H-i686-pc-linux-gnu/bin/../lib/gcc/nios2-elf/4.1.2/mno-hw-mul/libgcc.a(_addsub_df.o)
 .debug_pubnames
                0x0000011b       0x1f /opt/altera/13.0sp1/nios2eds/bin/gnu/H-i686-pc-linux-gnu/bin/../lib/gcc/nios2-elf/4.1.2/mno-hw-mul/libgcc.a(_mul_df.o)
 .debug_pubnames
                0x0000013a       0x22 /opt/altera/13.0sp1/nios2eds/bin/gnu/H-i686-pc-linux-gnu/bin/../lib/gcc/nios2-elf/4.1.2/mno-hw-mul/libgcc.a(_si_to_df.o)
 .debug_pubnames
                0x0000015c       0x23 /opt/altera/13.0sp1/nios2eds/bin/gnu/H-i686-pc-linux-gnu/bin/../lib/gcc/nios2-elf/4.1.2/mno-hw-mul/libgcc.a(_df_to_sf.o)
 .debug_pubnames
                0x0000017f       0x22 /opt/altera/13.0sp1/nios2eds/bin/gnu/H-i686-pc-linux-gnu/bin/../lib/gcc/nios2-elf/4.1.2/mno-hw-mul/libgcc.a(_thenan_df.o)
 .debug_pubnames
                0x000001a1       0x48 /opt/altera/13.0sp1/nios2eds/bin/gnu/H-i686-pc-linux-gnu/bin/../lib/gcc/nios2-elf/4.1.2/mno-hw-mul/libgcc.a(lib2-divmod.o)
 .debug_pubnames
                0x000001e9       0x1f /opt/altera/13.0sp1/nios2eds/bin/gnu/H-i686-pc-linux-gnu/bin/../lib/gcc/nios2-elf/4.1.2/mno-hw-mul/libgcc.a(lib2-mul.o)
 .debug_pubnames
                0x00000208       0x1f /opt/altera/13.0sp1/nios2eds/bin/gnu/H-i686-pc-linux-gnu/bin/../lib/gcc/nios2-elf/4.1.2/mno-hw-mul/libgcc.a(_muldi3.o)
 .debug_pubnames
                0x00000227       0x1f /opt/altera/13.0sp1/nios2eds/bin/gnu/H-i686-pc-linux-gnu/bin/../lib/gcc/nios2-elf/4.1.2/mno-hw-mul/libgcc.a(_clzsi2.o)
 .debug_pubnames
                0x00000246       0x20 /opt/altera/13.0sp1/nios2eds/bin/gnu/H-i686-pc-linux-gnu/bin/../lib/gcc/nios2-elf/4.1.2/mno-hw-mul/libgcc.a(_make_sf.o)
 .debug_pubnames
                0x00000266       0x1f /opt/altera/13.0sp1/nios2eds/bin/gnu/H-i686-pc-linux-gnu/bin/../lib/gcc/nios2-elf/4.1.2/mno-hw-mul/libgcc.a(_pack_df.o)
 .debug_pubnames
                0x00000285       0x21 /opt/altera/13.0sp1/nios2eds/bin/gnu/H-i686-pc-linux-gnu/bin/../lib/gcc/nios2-elf/4.1.2/mno-hw-mul/libgcc.a(_unpack_df.o)
 .debug_pubnames
                0x000002a6       0x20 /opt/altera/13.0sp1/nios2eds/bin/gnu/H-i686-pc-linux-gnu/bin/../lib/gcc/nios2-elf/4.1.2/mno-hw-mul/libgcc.a(_clz.o)
 .debug_pubnames
                0x000002c6       0x1f /opt/altera/13.0sp1/nios2eds/bin/gnu/H-i686-pc-linux-gnu/bin/../lib/gcc/nios2-elf/4.1.2/mno-hw-mul/libgcc.a(_pack_sf.o)
 .debug_pubnames
                0x000002e5       0x26 /opt/altera/13.0sp1/nios2eds/bin/gnu/H-i686-pc-linux-gnu/bin/../lib/gcc/nios2-elf/4.1.2/../../../../nios2-elf/lib/mno-hw-mul/libc.a(lib_a-malloc.o)
 .debug_pubnames
                0x0000030b       0xce /opt/altera/13.0sp1/nios2eds/bin/gnu/H-i686-pc-linux-gnu/bin/../lib/gcc/nios2-elf/4.1.2/../../../../nios2-elf/lib/mno-hw-mul/libc.a(lib_a-mallocr.o)
 .debug_pubnames
                0x000003d9       0x1d /opt/altera/13.0sp1/nios2eds/bin/gnu/H-i686-pc-linux-gnu/bin/../lib/gcc/nios2-elf/4.1.2/../../../../nios2-elf/lib/mno-hw-mul/libc.a(lib_a-memcpy.o)
 .debug_pubnames
                0x000003f6       0x2d /opt/altera/13.0sp1/nios2eds/bin/gnu/H-i686-pc-linux-gnu/bin/../lib/gcc/nios2-elf/4.1.2/../../../../nios2-elf/lib/mno-hw-mul/libc.a(lib_a-putchar.o)
 .debug_pubnames
                0x00000423       0x27 /opt/altera/13.0sp1/nios2eds/bin/gnu/H-i686-pc-linux-gnu/bin/../lib/gcc/nios2-elf/4.1.2/../../../../nios2-elf/lib/mno-hw-mul/libc.a(lib_a-puts.o)
 .debug_pubnames
                0x0000044a       0x1e /opt/altera/13.0sp1/nios2eds/bin/gnu/H-i686-pc-linux-gnu/bin/../lib/gcc/nios2-elf/4.1.2/../../../../nios2-elf/lib/mno-hw-mul/libc.a(lib_a-sbrkr.o)
 .debug_pubnames
                0x00000468       0x1d /opt/altera/13.0sp1/nios2eds/bin/gnu/H-i686-pc-linux-gnu/bin/../lib/gcc/nios2-elf/4.1.2/../../../../nios2-elf/lib/mno-hw-mul/libc.a(lib_a-strlen.o)
 .debug_pubnames
                0x00000485       0x31 /opt/altera/13.0sp1/nios2eds/bin/gnu/H-i686-pc-linux-gnu/bin/../lib/gcc/nios2-elf/4.1.2/../../../../nios2-elf/lib/mno-hw-mul/libc.a(lib_a-freer.o)
 .debug_pubnames
                0x000004b6       0x23 /opt/altera/13.0sp1/nios2eds/bin/gnu/H-i686-pc-linux-gnu/bin/../lib/gcc/nios2-elf/4.1.2/../../../../nios2-elf/lib/mno-hw-mul/libc.a(lib_a-fvwrite.o)
 .debug_pubnames
                0x000004d9       0x39 /opt/altera/13.0sp1/nios2eds/bin/gnu/H-i686-pc-linux-gnu/bin/../lib/gcc/nios2-elf/4.1.2/../../../../nios2-elf/lib/mno-hw-mul/libc.a(lib_a-impure.o)
 .debug_pubnames
                0x00000512       0x1c /opt/altera/13.0sp1/nios2eds/bin/gnu/H-i686-pc-linux-gnu/bin/../lib/gcc/nios2-elf/4.1.2/../../../../nios2-elf/lib/mno-hw-mul/libc.a(lib_a-int_errno.o)
 .debug_pubnames
                0x0000052e       0x1d /opt/altera/13.0sp1/nios2eds/bin/gnu/H-i686-pc-linux-gnu/bin/../lib/gcc/nios2-elf/4.1.2/../../../../nios2-elf/lib/mno-hw-mul/libc.a(lib_a-memchr.o)
 .debug_pubnames
                0x0000054b       0x1e /opt/altera/13.0sp1/nios2eds/bin/gnu/H-i686-pc-linux-gnu/bin/../lib/gcc/nios2-elf/4.1.2/../../../../nios2-elf/lib/mno-hw-mul/libc.a(lib_a-memmove.o)
 .debug_pubnames
                0x00000569       0x27 /opt/altera/13.0sp1/nios2eds/bin/gnu/H-i686-pc-linux-gnu/bin/../lib/gcc/nios2-elf/4.1.2/../../../../nios2-elf/lib/mno-hw-mul/libc.a(lib_a-putc.o)
 .debug_pubnames
                0x00000590       0x21 /opt/altera/13.0sp1/nios2eds/bin/gnu/H-i686-pc-linux-gnu/bin/../lib/gcc/nios2-elf/4.1.2/../../../../nios2-elf/lib/mno-hw-mul/libc.a(lib_a-reallocr.o)
 .debug_pubnames
                0x000005b1       0x2c /opt/altera/13.0sp1/nios2eds/bin/gnu/H-i686-pc-linux-gnu/bin/../lib/gcc/nios2-elf/4.1.2/../../../../nios2-elf/lib/mno-hw-mul/libc.a(lib_a-wbuf.o)
 .debug_pubnames
                0x000005dd       0x22 /opt/altera/13.0sp1/nios2eds/bin/gnu/H-i686-pc-linux-gnu/bin/../lib/gcc/nios2-elf/4.1.2/../../../../nios2-elf/lib/mno-hw-mul/libc.a(lib_a-wsetup.o)
 .debug_pubnames
                0x000005ff       0x2b /opt/altera/13.0sp1/nios2eds/bin/gnu/H-i686-pc-linux-gnu/bin/../lib/gcc/nios2-elf/4.1.2/../../../../nios2-elf/lib/mno-hw-mul/libc.a(lib_a-fflush.o)
 .debug_pubnames
                0x0000062a       0xdb /opt/altera/13.0sp1/nios2eds/bin/gnu/H-i686-pc-linux-gnu/bin/../lib/gcc/nios2-elf/4.1.2/../../../../nios2-elf/lib/mno-hw-mul/libc.a(lib_a-findfp.o)
 .debug_pubnames
                0x00000705       0x2e /opt/altera/13.0sp1/nios2eds/bin/gnu/H-i686-pc-linux-gnu/bin/../lib/gcc/nios2-elf/4.1.2/../../../../nios2-elf/lib/mno-hw-mul/libc.a(lib_a-fwalk.o)
 .debug_pubnames
                0x00000733       0x23 /opt/altera/13.0sp1/nios2eds/bin/gnu/H-i686-pc-linux-gnu/bin/../lib/gcc/nios2-elf/4.1.2/../../../../nios2-elf/lib/mno-hw-mul/libc.a(lib_a-makebuf.o)
 .debug_pubnames
                0x00000756       0x1d /opt/altera/13.0sp1/nios2eds/bin/gnu/H-i686-pc-linux-gnu/bin/../lib/gcc/nios2-elf/4.1.2/../../../../nios2-elf/lib/mno-hw-mul/libc.a(lib_a-memset.o)
 .debug_pubnames
                0x00000773       0x44 /opt/altera/13.0sp1/nios2eds/bin/gnu/H-i686-pc-linux-gnu/bin/../lib/gcc/nios2-elf/4.1.2/../../../../nios2-elf/lib/mno-hw-mul/libc.a(lib_a-stdio.o)
 .debug_pubnames
                0x000007b7       0x1f /opt/altera/13.0sp1/nios2eds/bin/gnu/H-i686-pc-linux-gnu/bin/../lib/gcc/nios2-elf/4.1.2/../../../../nios2-elf/lib/mno-hw-mul/libc.a(lib_a-writer.o)
 .debug_pubnames
                0x000007d6       0x1f /opt/altera/13.0sp1/nios2eds/bin/gnu/H-i686-pc-linux-gnu/bin/../lib/gcc/nios2-elf/4.1.2/../../../../nios2-elf/lib/mno-hw-mul/libc.a(lib_a-closer.o)
 .debug_pubnames
                0x000007f5       0x2b /opt/altera/13.0sp1/nios2eds/bin/gnu/H-i686-pc-linux-gnu/bin/../lib/gcc/nios2-elf/4.1.2/../../../../nios2-elf/lib/mno-hw-mul/libc.a(lib_a-fclose.o)
 .debug_pubnames
                0x00000820       0x1f /opt/altera/13.0sp1/nios2eds/bin/gnu/H-i686-pc-linux-gnu/bin/../lib/gcc/nios2-elf/4.1.2/../../../../nios2-elf/lib/mno-hw-mul/libc.a(lib_a-fstatr.o)
 .debug_pubnames
                0x0000083f       0x20 /opt/altera/13.0sp1/nios2eds/bin/gnu/H-i686-pc-linux-gnu/bin/../lib/gcc/nios2-elf/4.1.2/../../../../nios2-elf/lib/mno-hw-mul/libc.a(lib_a-isattyr.o)
 .debug_pubnames
                0x0000085f       0x1f /opt/altera/13.0sp1/nios2eds/bin/gnu/H-i686-pc-linux-gnu/bin/../lib/gcc/nios2-elf/4.1.2/../../../../nios2-elf/lib/mno-hw-mul/libc.a(lib_a-lseekr.o)
 .debug_pubnames
                0x0000087e       0x1e /opt/altera/13.0sp1/nios2eds/bin/gnu/H-i686-pc-linux-gnu/bin/../lib/gcc/nios2-elf/4.1.2/../../../../nios2-elf/lib/mno-hw-mul/libc.a(lib_a-readr.o)
 .debug_pubnames
                0x0000089c       0x1c ../../bsp/mpsoc_hello_ucosii//libucosii_bsp.a(alt_close.o)
 .debug_pubnames
                0x000008b8       0x78 ../../bsp/mpsoc_hello_ucosii//libucosii_bsp.a(alt_dev.o)
 .debug_pubnames
                0x00000930       0x20 ../../bsp/mpsoc_hello_ucosii//libucosii_bsp.a(alt_errno.o)
 .debug_pubnames
                0x00000950       0x1c ../../bsp/mpsoc_hello_ucosii//libucosii_bsp.a(alt_fstat.o)
 .debug_pubnames
                0x0000096c       0x1d ../../bsp/mpsoc_hello_ucosii//libucosii_bsp.a(alt_isatty.o)
 .debug_pubnames
                0x00000989       0x1f ../../bsp/mpsoc_hello_ucosii//libucosii_bsp.a(alt_load.o)
 .debug_pubnames
                0x000009a8       0x1c ../../bsp/mpsoc_hello_ucosii//libucosii_bsp.a(alt_lseek.o)
 .debug_pubnames
                0x000009c4       0x46 ../../bsp/mpsoc_hello_ucosii//libucosii_bsp.a(alt_main.o)
 .debug_pubnames
                0x00000a0a       0x1b ../../bsp/mpsoc_hello_ucosii//libucosii_bsp.a(alt_read.o)
 .debug_pubnames
                0x00000a25       0x25 ../../bsp/mpsoc_hello_ucosii//libucosii_bsp.a(alt_release_fd.o)
 .debug_pubnames
                0x00000a4a       0x1b ../../bsp/mpsoc_hello_ucosii//libucosii_bsp.a(alt_sbrk.o)
 .debug_pubnames
                0x00000a65       0x1c ../../bsp/mpsoc_hello_ucosii//libucosii_bsp.a(alt_write.o)
 .debug_pubnames
                0x00000a81       0x41 ../../bsp/mpsoc_hello_ucosii//libucosii_bsp.a(alt_env_lock.o)
 .debug_pubnames
                0x00000ac2       0x48 ../../bsp/mpsoc_hello_ucosii//libucosii_bsp.a(alt_malloc_lock.o)
 .debug_pubnames
                0x00000b0a      0x484 ../../bsp/mpsoc_hello_ucosii//libucosii_bsp.a(os_core.o)
 .debug_pubnames
                0x00000f8e      0x3c5 ../../bsp/mpsoc_hello_ucosii//libucosii_bsp.a(os_dbg.o)
 .debug_pubnames
                0x00001353       0xd0 ../../bsp/mpsoc_hello_ucosii//libucosii_bsp.a(os_flag.o)
 .debug_pubnames
                0x00001423       0x7c ../../bsp/mpsoc_hello_ucosii//libucosii_bsp.a(os_mem.o)
 .debug_pubnames
                0x0000149f       0xa9 ../../bsp/mpsoc_hello_ucosii//libucosii_bsp.a(os_q.o)
 .debug_pubnames
                0x00001548       0x8a ../../bsp/mpsoc_hello_ucosii//libucosii_bsp.a(os_sem.o)
 .debug_pubnames
                0x000015d2       0xe5 ../../bsp/mpsoc_hello_ucosii//libucosii_bsp.a(os_task.o)
 .debug_pubnames
                0x000016b7       0x62 ../../bsp/mpsoc_hello_ucosii//libucosii_bsp.a(os_time.o)
 .debug_pubnames
                0x00001719       0xa1 ../../bsp/mpsoc_hello_ucosii//libucosii_bsp.a(os_tmr.o)
 .debug_pubnames
                0x000017ba       0x34 ../../bsp/mpsoc_hello_ucosii//libucosii_bsp.a(alt_sys_init.o)
 .debug_pubnames
                0x000017ee       0xa5 ../../bsp/mpsoc_hello_ucosii//libucosii_bsp.a(altera_avalon_jtag_uart_fd.o)
 .debug_pubnames
                0x00001893       0x55 ../../bsp/mpsoc_hello_ucosii//libucosii_bsp.a(altera_avalon_jtag_uart_init.o)
 .debug_pubnames
                0x000018e8       0x34 ../../bsp/mpsoc_hello_ucosii//libucosii_bsp.a(altera_avalon_jtag_uart_ioctl.o)
 .debug_pubnames
                0x0000191c       0x33 ../../bsp/mpsoc_hello_ucosii//libucosii_bsp.a(altera_avalon_jtag_uart_read.o)
 .debug_pubnames
                0x0000194f       0x34 ../../bsp/mpsoc_hello_ucosii//libucosii_bsp.a(altera_avalon_jtag_uart_write.o)
 .debug_pubnames
                0x00001983       0xff ../../bsp/mpsoc_hello_ucosii//libucosii_bsp.a(altera_avalon_mutex.o)
 .debug_pubnames
                0x00001a82       0x2f ../../bsp/mpsoc_hello_ucosii//libucosii_bsp.a(altera_avalon_timer_sc.o)
 .debug_pubnames
                0x00001ab1       0x32 ../../bsp/mpsoc_hello_ucosii//libucosii_bsp.a(perf_print_formatted_report.o)
 .debug_pubnames
                0x00001ae3       0x26 ../../bsp/mpsoc_hello_ucosii//libucosii_bsp.a(alt_alarm_start.o)
 .debug_pubnames
                0x00001b09       0x2b ../../bsp/mpsoc_hello_ucosii//libucosii_bsp.a(alt_dcache_flush_all.o)
 .debug_pubnames
                0x00001b34       0x2b ../../bsp/mpsoc_hello_ucosii//libucosii_bsp.a(alt_dev_llist_insert.o)
 .debug_pubnames
                0x00001b5f       0x20 ../../bsp/mpsoc_hello_ucosii//libucosii_bsp.a(alt_do_ctors.o)
 .debug_pubnames
                0x00001b7f       0x20 ../../bsp/mpsoc_hello_ucosii//libucosii_bsp.a(alt_do_dtors.o)
 .debug_pubnames
                0x00001b9f       0x23 ../../bsp/mpsoc_hello_ucosii//libucosii_bsp.a(alt_find_dev.o)
 .debug_pubnames
                0x00001bc2       0x2b ../../bsp/mpsoc_hello_ucosii//libucosii_bsp.a(alt_icache_flush_all.o)
 .debug_pubnames
                0x00001bed       0x26 ../../bsp/mpsoc_hello_ucosii//libucosii_bsp.a(alt_io_redirect.o)
 .debug_pubnames
                0x00001c13       0x27 ../../bsp/mpsoc_hello_ucosii//libucosii_bsp.a(alt_irq_register.o)
 .debug_pubnames
                0x00001c3a       0x3b ../../bsp/mpsoc_hello_ucosii//libucosii_bsp.a(alt_irq_vars.o)
 .debug_pubnames
                0x00001c75       0x1b ../../bsp/mpsoc_hello_ucosii//libucosii_bsp.a(alt_open.o)
 .debug_pubnames
                0x00001c90       0x68 ../../bsp/mpsoc_hello_ucosii//libucosii_bsp.a(alt_tick.o)
 .debug_pubnames
                0x00001cf8       0x31 ../../bsp/mpsoc_hello_ucosii//libucosii_bsp.a(altera_nios2_qsys_irq.o)
 .debug_pubnames
                0x00001d29       0xcd ../../bsp/mpsoc_hello_ucosii//libucosii_bsp.a(os_cpu_c.o)
 .debug_pubnames
                0x00001df6       0x96 ../../bsp/mpsoc_hello_ucosii//libucosii_bsp.a(altera_avalon_performance_counter.o)
 .debug_pubnames
                0x00001e8c       0x24 ../../bsp/mpsoc_hello_ucosii//libucosii_bsp.a(alt_find_file.o)
 .debug_pubnames
                0x00001eb0       0x21 ../../bsp/mpsoc_hello_ucosii//libucosii_bsp.a(alt_get_fd.o)
 .debug_pubnames
                0x00001ed1       0x32 ../../bsp/mpsoc_hello_ucosii//libucosii_bsp.a(alt_irq_handler.o)
 .debug_pubnames
                0x00001f03       0x2a /opt/altera/13.0sp1/nios2eds/bin/gnu/H-i686-pc-linux-gnu/bin/../lib/gcc/nios2-elf/4.1.2/../../../../nios2-elf/lib/mno-hw-mul/libc.a(lib_a-atexit.o)
 .debug_pubnames
                0x00001f2d       0x1b /opt/altera/13.0sp1/nios2eds/bin/gnu/H-i686-pc-linux-gnu/bin/../lib/gcc/nios2-elf/4.1.2/../../../../nios2-elf/lib/mno-hw-mul/libc.a(lib_a-exit.o)
 .debug_pubnames
                0x00001f48       0x1d /opt/altera/13.0sp1/nios2eds/bin/gnu/H-i686-pc-linux-gnu/bin/../lib/gcc/nios2-elf/4.1.2/../../../../nios2-elf/lib/mno-hw-mul/libc.a(lib_a-memcmp.o)
 .debug_pubnames
                0x00001f65       0x2b /opt/altera/13.0sp1/nios2eds/bin/gnu/H-i686-pc-linux-gnu/bin/../lib/gcc/nios2-elf/4.1.2/../../../../nios2-elf/lib/mno-hw-mul/libc.a(lib_a-printf.o)
 .debug_pubnames
                0x00001f90       0x45 /opt/altera/13.0sp1/nios2eds/bin/gnu/H-i686-pc-linux-gnu/bin/../lib/gcc/nios2-elf/4.1.2/../../../../nios2-elf/lib/mno-hw-mul/libc.a(lib_a-vfprintf.o)
 .debug_pubnames
                0x00001fd5       0x2a /opt/altera/13.0sp1/nios2eds/bin/gnu/H-i686-pc-linux-gnu/bin/../lib/gcc/nios2-elf/4.1.2/../../../../nios2-elf/lib/mno-hw-mul/libc.a(lib_a-__atexit.o)
 .debug_pubnames
                0x00001fff       0x27 /opt/altera/13.0sp1/nios2eds/bin/gnu/H-i686-pc-linux-gnu/bin/../lib/gcc/nios2-elf/4.1.2/../../../../nios2-elf/lib/mno-hw-mul/libc.a(lib_a-__call_atexit.o)
 .debug_pubnames
                0x00002026       0x1e /opt/altera/13.0sp1/nios2eds/bin/gnu/H-i686-pc-linux-gnu/bin/../lib/gcc/nios2-elf/4.1.2/../../../../nios2-elf/lib/mno-hw-mul/libc.a(lib_a-dtoa.o)
 .debug_pubnames
                0x00002044       0xc3 /opt/altera/13.0sp1/nios2eds/bin/gnu/H-i686-pc-linux-gnu/bin/../lib/gcc/nios2-elf/4.1.2/../../../../nios2-elf/lib/mno-hw-mul/libc.a(lib_a-locale.o)
 .debug_pubnames
                0x00002107      0x13a /opt/altera/13.0sp1/nios2eds/bin/gnu/H-i686-pc-linux-gnu/bin/../lib/gcc/nios2-elf/4.1.2/../../../../nios2-elf/lib/mno-hw-mul/libc.a(lib_a-mprec.o)
 .debug_pubnames
                0x00002241       0x1f /opt/altera/13.0sp1/nios2eds/bin/gnu/H-i686-pc-linux-gnu/bin/../lib/gcc/nios2-elf/4.1.2/../../../../nios2-elf/lib/mno-hw-mul/libc.a(lib_a-s_isinfd.o)
 .debug_pubnames
                0x00002260       0x1f /opt/altera/13.0sp1/nios2eds/bin/gnu/H-i686-pc-linux-gnu/bin/../lib/gcc/nios2-elf/4.1.2/../../../../nios2-elf/lib/mno-hw-mul/libc.a(lib_a-s_isnand.o)
 .debug_pubnames
                0x0000227f       0x1d /opt/altera/13.0sp1/nios2eds/bin/gnu/H-i686-pc-linux-gnu/bin/../lib/gcc/nios2-elf/4.1.2/../../../../nios2-elf/lib/mno-hw-mul/libc.a(lib_a-strcmp.o)
 .debug_pubnames
                0x0000229c       0x20 /opt/altera/13.0sp1/nios2eds/bin/gnu/H-i686-pc-linux-gnu/bin/../lib/gcc/nios2-elf/4.1.2/../../../../nios2-elf/lib/mno-hw-mul/libc.a(lib_a-callocr.o)
 .debug_pubnames
                0x000022bc       0x23 /opt/altera/13.0sp1/nios2eds/bin/gnu/H-i686-pc-linux-gnu/bin/../lib/gcc/nios2-elf/4.1.2/mno-hw-mul/libgcc.a(_fixunsdfsi.o)
 .debug_pubnames
                0x000022df       0x24 /opt/altera/13.0sp1/nios2eds/bin/gnu/H-i686-pc-linux-gnu/bin/../lib/gcc/nios2-elf/4.1.2/mno-hw-mul/libgcc.a(_floatundidf.o)
 .debug_pubnames
                0x00002303       0x20 /opt/altera/13.0sp1/nios2eds/bin/gnu/H-i686-pc-linux-gnu/bin/../lib/gcc/nios2-elf/4.1.2/mno-hw-mul/libgcc.a(_udivdi3.o)
 .debug_pubnames
                0x00002323       0x20 /opt/altera/13.0sp1/nios2eds/bin/gnu/H-i686-pc-linux-gnu/bin/../lib/gcc/nios2-elf/4.1.2/mno-hw-mul/libgcc.a(_umoddi3.o)
 .debug_pubnames
                0x00002343       0x1f /opt/altera/13.0sp1/nios2eds/bin/gnu/H-i686-pc-linux-gnu/bin/../lib/gcc/nios2-elf/4.1.2/mno-hw-mul/libgcc.a(_div_df.o)
 .debug_pubnames
                0x00002362       0x1e /opt/altera/13.0sp1/nios2eds/bin/gnu/H-i686-pc-linux-gnu/bin/../lib/gcc/nios2-elf/4.1.2/mno-hw-mul/libgcc.a(_eq_df.o)
 .debug_pubnames
                0x00002380       0x1e /opt/altera/13.0sp1/nios2eds/bin/gnu/H-i686-pc-linux-gnu/bin/../lib/gcc/nios2-elf/4.1.2/mno-hw-mul/libgcc.a(_ne_df.o)
 .debug_pubnames
                0x0000239e       0x1e /opt/altera/13.0sp1/nios2eds/bin/gnu/H-i686-pc-linux-gnu/bin/../lib/gcc/nios2-elf/4.1.2/mno-hw-mul/libgcc.a(_gt_df.o)
 .debug_pubnames
                0x000023bc       0x1e /opt/altera/13.0sp1/nios2eds/bin/gnu/H-i686-pc-linux-gnu/bin/../lib/gcc/nios2-elf/4.1.2/mno-hw-mul/libgcc.a(_ge_df.o)
 .debug_pubnames
                0x000023da       0x1e /opt/altera/13.0sp1/nios2eds/bin/gnu/H-i686-pc-linux-gnu/bin/../lib/gcc/nios2-elf/4.1.2/mno-hw-mul/libgcc.a(_lt_df.o)
 .debug_pubnames
                0x000023f8       0x20 /opt/altera/13.0sp1/nios2eds/bin/gnu/H-i686-pc-linux-gnu/bin/../lib/gcc/nios2-elf/4.1.2/mno-hw-mul/libgcc.a(_df_to_si.o)
 .debug_pubnames
                0x00002418       0x24 /opt/altera/13.0sp1/nios2eds/bin/gnu/H-i686-pc-linux-gnu/bin/../lib/gcc/nios2-elf/4.1.2/mno-hw-mul/libgcc.a(_usi_to_df.o)
 .debug_pubnames
                0x0000243c       0x26 /opt/altera/13.0sp1/nios2eds/bin/gnu/H-i686-pc-linux-gnu/bin/../lib/gcc/nios2-elf/4.1.2/mno-hw-mul/libgcc.a(_fpcmp_parts_df.o)
 .debug_pubnames
                0x00002462       0x1c ../../bsp/mpsoc_hello_ucosii//libucosii_bsp.a(alt_exit.o)

.debug_info     0x00000000    0x2e057
 *(.debug_info .gnu.linkonce.wi.*)
 .debug_info    0x00000000       0x70 ../../bsp/mpsoc_hello_ucosii//obj/HAL/src/crt0.o
 .debug_info    0x00000070      0x5b8 obj/default/src/image_bare.o
 .debug_info    0x00000628      0x493 /opt/altera/13.0sp1/nios2eds/bin/gnu/H-i686-pc-linux-gnu/bin/../lib/gcc/nios2-elf/4.1.2/mno-hw-mul/libgcc.a(_addsub_df.o)
 .debug_info    0x00000abb      0x488 /opt/altera/13.0sp1/nios2eds/bin/gnu/H-i686-pc-linux-gnu/bin/../lib/gcc/nios2-elf/4.1.2/mno-hw-mul/libgcc.a(_mul_df.o)
 .debug_info    0x00000f43      0x218 /opt/altera/13.0sp1/nios2eds/bin/gnu/H-i686-pc-linux-gnu/bin/../lib/gcc/nios2-elf/4.1.2/mno-hw-mul/libgcc.a(_si_to_df.o)
 .debug_info    0x0000115b      0x261 /opt/altera/13.0sp1/nios2eds/bin/gnu/H-i686-pc-linux-gnu/bin/../lib/gcc/nios2-elf/4.1.2/mno-hw-mul/libgcc.a(_df_to_sf.o)
 .debug_info    0x000013bc      0x164 /opt/altera/13.0sp1/nios2eds/bin/gnu/H-i686-pc-linux-gnu/bin/../lib/gcc/nios2-elf/4.1.2/mno-hw-mul/libgcc.a(_thenan_df.o)
 .debug_info    0x00001520      0x21c /opt/altera/13.0sp1/nios2eds/bin/gnu/H-i686-pc-linux-gnu/bin/../lib/gcc/nios2-elf/4.1.2/mno-hw-mul/libgcc.a(lib2-divmod.o)
 .debug_info    0x0000173c       0xf3 /opt/altera/13.0sp1/nios2eds/bin/gnu/H-i686-pc-linux-gnu/bin/../lib/gcc/nios2-elf/4.1.2/mno-hw-mul/libgcc.a(lib2-mul.o)
 .debug_info    0x0000182f      0x210 /opt/altera/13.0sp1/nios2eds/bin/gnu/H-i686-pc-linux-gnu/bin/../lib/gcc/nios2-elf/4.1.2/mno-hw-mul/libgcc.a(_muldi3.o)
 .debug_info    0x00001a3f      0x130 /opt/altera/13.0sp1/nios2eds/bin/gnu/H-i686-pc-linux-gnu/bin/../lib/gcc/nios2-elf/4.1.2/mno-hw-mul/libgcc.a(_clzsi2.o)
 .debug_info    0x00001b6f      0x1d7 /opt/altera/13.0sp1/nios2eds/bin/gnu/H-i686-pc-linux-gnu/bin/../lib/gcc/nios2-elf/4.1.2/mno-hw-mul/libgcc.a(_make_sf.o)
 .debug_info    0x00001d46      0x2fc /opt/altera/13.0sp1/nios2eds/bin/gnu/H-i686-pc-linux-gnu/bin/../lib/gcc/nios2-elf/4.1.2/mno-hw-mul/libgcc.a(_pack_df.o)
 .debug_info    0x00002042      0x268 /opt/altera/13.0sp1/nios2eds/bin/gnu/H-i686-pc-linux-gnu/bin/../lib/gcc/nios2-elf/4.1.2/mno-hw-mul/libgcc.a(_unpack_df.o)
 .debug_info    0x000022aa       0xc9 /opt/altera/13.0sp1/nios2eds/bin/gnu/H-i686-pc-linux-gnu/bin/../lib/gcc/nios2-elf/4.1.2/mno-hw-mul/libgcc.a(_clz.o)
 .debug_info    0x00002373      0x2f2 /opt/altera/13.0sp1/nios2eds/bin/gnu/H-i686-pc-linux-gnu/bin/../lib/gcc/nios2-elf/4.1.2/mno-hw-mul/libgcc.a(_pack_sf.o)
 .debug_info    0x00002665      0x96e /opt/altera/13.0sp1/nios2eds/bin/gnu/H-i686-pc-linux-gnu/bin/../lib/gcc/nios2-elf/4.1.2/../../../../nios2-elf/lib/mno-hw-mul/libc.a(lib_a-malloc.o)
 .debug_info    0x00002fd3      0xcd0 /opt/altera/13.0sp1/nios2eds/bin/gnu/H-i686-pc-linux-gnu/bin/../lib/gcc/nios2-elf/4.1.2/../../../../nios2-elf/lib/mno-hw-mul/libc.a(lib_a-mallocr.o)
 .debug_info    0x00003ca3      0x106 /opt/altera/13.0sp1/nios2eds/bin/gnu/H-i686-pc-linux-gnu/bin/../lib/gcc/nios2-elf/4.1.2/../../../../nios2-elf/lib/mno-hw-mul/libc.a(lib_a-memcpy.o)
 .debug_info    0x00003da9      0x972 /opt/altera/13.0sp1/nios2eds/bin/gnu/H-i686-pc-linux-gnu/bin/../lib/gcc/nios2-elf/4.1.2/../../../../nios2-elf/lib/mno-hw-mul/libc.a(lib_a-putchar.o)
 .debug_info    0x0000471b      0xa25 /opt/altera/13.0sp1/nios2eds/bin/gnu/H-i686-pc-linux-gnu/bin/../lib/gcc/nios2-elf/4.1.2/../../../../nios2-elf/lib/mno-hw-mul/libc.a(lib_a-puts.o)
 .debug_info    0x00005140      0x962 /opt/altera/13.0sp1/nios2eds/bin/gnu/H-i686-pc-linux-gnu/bin/../lib/gcc/nios2-elf/4.1.2/../../../../nios2-elf/lib/mno-hw-mul/libc.a(lib_a-sbrkr.o)
 .debug_info    0x00005aa2       0xdb /opt/altera/13.0sp1/nios2eds/bin/gnu/H-i686-pc-linux-gnu/bin/../lib/gcc/nios2-elf/4.1.2/../../../../nios2-elf/lib/mno-hw-mul/libc.a(lib_a-strlen.o)
 .debug_info    0x00005b7d      0xbc9 /opt/altera/13.0sp1/nios2eds/bin/gnu/H-i686-pc-linux-gnu/bin/../lib/gcc/nios2-elf/4.1.2/../../../../nios2-elf/lib/mno-hw-mul/libc.a(lib_a-freer.o)
 .debug_info    0x00006746      0xa88 /opt/altera/13.0sp1/nios2eds/bin/gnu/H-i686-pc-linux-gnu/bin/../lib/gcc/nios2-elf/4.1.2/../../../../nios2-elf/lib/mno-hw-mul/libc.a(lib_a-fvwrite.o)
 .debug_info    0x000071ce      0x93d /opt/altera/13.0sp1/nios2eds/bin/gnu/H-i686-pc-linux-gnu/bin/../lib/gcc/nios2-elf/4.1.2/../../../../nios2-elf/lib/mno-hw-mul/libc.a(lib_a-impure.o)
 .debug_info    0x00007b0b       0x8c /opt/altera/13.0sp1/nios2eds/bin/gnu/H-i686-pc-linux-gnu/bin/../lib/gcc/nios2-elf/4.1.2/../../../../nios2-elf/lib/mno-hw-mul/libc.a(lib_a-int_errno.o)
 .debug_info    0x00007b97      0x138 /opt/altera/13.0sp1/nios2eds/bin/gnu/H-i686-pc-linux-gnu/bin/../lib/gcc/nios2-elf/4.1.2/../../../../nios2-elf/lib/mno-hw-mul/libc.a(lib_a-memchr.o)
 .debug_info    0x00007ccf      0x13e /opt/altera/13.0sp1/nios2eds/bin/gnu/H-i686-pc-linux-gnu/bin/../lib/gcc/nios2-elf/4.1.2/../../../../nios2-elf/lib/mno-hw-mul/libc.a(lib_a-memmove.o)
 .debug_info    0x00007e0d      0x9c1 /opt/altera/13.0sp1/nios2eds/bin/gnu/H-i686-pc-linux-gnu/bin/../lib/gcc/nios2-elf/4.1.2/../../../../nios2-elf/lib/mno-hw-mul/libc.a(lib_a-putc.o)
 .debug_info    0x000087ce      0xbd7 /opt/altera/13.0sp1/nios2eds/bin/gnu/H-i686-pc-linux-gnu/bin/../lib/gcc/nios2-elf/4.1.2/../../../../nios2-elf/lib/mno-hw-mul/libc.a(lib_a-reallocr.o)
 .debug_info    0x000093a5      0x9ae /opt/altera/13.0sp1/nios2eds/bin/gnu/H-i686-pc-linux-gnu/bin/../lib/gcc/nios2-elf/4.1.2/../../../../nios2-elf/lib/mno-hw-mul/libc.a(lib_a-wbuf.o)
 .debug_info    0x00009d53      0x95d /opt/altera/13.0sp1/nios2eds/bin/gnu/H-i686-pc-linux-gnu/bin/../lib/gcc/nios2-elf/4.1.2/../../../../nios2-elf/lib/mno-hw-mul/libc.a(lib_a-wsetup.o)
 .debug_info    0x0000a6b0      0x9fe /opt/altera/13.0sp1/nios2eds/bin/gnu/H-i686-pc-linux-gnu/bin/../lib/gcc/nios2-elf/4.1.2/../../../../nios2-elf/lib/mno-hw-mul/libc.a(lib_a-fflush.o)
 .debug_info    0x0000b0ae      0xb72 /opt/altera/13.0sp1/nios2eds/bin/gnu/H-i686-pc-linux-gnu/bin/../lib/gcc/nios2-elf/4.1.2/../../../../nios2-elf/lib/mno-hw-mul/libc.a(lib_a-findfp.o)
 .debug_info    0x0000bc20      0xaed /opt/altera/13.0sp1/nios2eds/bin/gnu/H-i686-pc-linux-gnu/bin/../lib/gcc/nios2-elf/4.1.2/../../../../nios2-elf/lib/mno-hw-mul/libc.a(lib_a-fwalk.o)
 .debug_info    0x0000c70d      0xb1a /opt/altera/13.0sp1/nios2eds/bin/gnu/H-i686-pc-linux-gnu/bin/../lib/gcc/nios2-elf/4.1.2/../../../../nios2-elf/lib/mno-hw-mul/libc.a(lib_a-makebuf.o)
 .debug_info    0x0000d227      0x113 /opt/altera/13.0sp1/nios2eds/bin/gnu/H-i686-pc-linux-gnu/bin/../lib/gcc/nios2-elf/4.1.2/../../../../nios2-elf/lib/mno-hw-mul/libc.a(lib_a-memset.o)
 .debug_info    0x0000d33a      0xaac /opt/altera/13.0sp1/nios2eds/bin/gnu/H-i686-pc-linux-gnu/bin/../lib/gcc/nios2-elf/4.1.2/../../../../nios2-elf/lib/mno-hw-mul/libc.a(lib_a-stdio.o)
 .debug_info    0x0000dde6      0x993 /opt/altera/13.0sp1/nios2eds/bin/gnu/H-i686-pc-linux-gnu/bin/../lib/gcc/nios2-elf/4.1.2/../../../../nios2-elf/lib/mno-hw-mul/libc.a(lib_a-writer.o)
 .debug_info    0x0000e779      0x958 /opt/altera/13.0sp1/nios2eds/bin/gnu/H-i686-pc-linux-gnu/bin/../lib/gcc/nios2-elf/4.1.2/../../../../nios2-elf/lib/mno-hw-mul/libc.a(lib_a-closer.o)
 .debug_info    0x0000f0d1      0x994 /opt/altera/13.0sp1/nios2eds/bin/gnu/H-i686-pc-linux-gnu/bin/../lib/gcc/nios2-elf/4.1.2/../../../../nios2-elf/lib/mno-hw-mul/libc.a(lib_a-fclose.o)
 .debug_info    0x0000fa65      0xafc /opt/altera/13.0sp1/nios2eds/bin/gnu/H-i686-pc-linux-gnu/bin/../lib/gcc/nios2-elf/4.1.2/../../../../nios2-elf/lib/mno-hw-mul/libc.a(lib_a-fstatr.o)
 .debug_info    0x00010561      0x958 /opt/altera/13.0sp1/nios2eds/bin/gnu/H-i686-pc-linux-gnu/bin/../lib/gcc/nios2-elf/4.1.2/../../../../nios2-elf/lib/mno-hw-mul/libc.a(lib_a-isattyr.o)
 .debug_info    0x00010eb9      0x981 /opt/altera/13.0sp1/nios2eds/bin/gnu/H-i686-pc-linux-gnu/bin/../lib/gcc/nios2-elf/4.1.2/../../../../nios2-elf/lib/mno-hw-mul/libc.a(lib_a-lseekr.o)
 .debug_info    0x0001183a      0x98c /opt/altera/13.0sp1/nios2eds/bin/gnu/H-i686-pc-linux-gnu/bin/../lib/gcc/nios2-elf/4.1.2/../../../../nios2-elf/lib/mno-hw-mul/libc.a(lib_a-readr.o)
 .debug_info    0x000121c6      0x3a1 ../../bsp/mpsoc_hello_ucosii//libucosii_bsp.a(alt_close.o)
 .debug_info    0x00012567      0x5f1 ../../bsp/mpsoc_hello_ucosii//libucosii_bsp.a(alt_dev.o)
 .debug_info    0x00012b58       0xab ../../bsp/mpsoc_hello_ucosii//libucosii_bsp.a(alt_errno.o)
 .debug_info    0x00012c03      0x52f ../../bsp/mpsoc_hello_ucosii//libucosii_bsp.a(alt_fstat.o)
 .debug_info    0x00013132      0x530 ../../bsp/mpsoc_hello_ucosii//libucosii_bsp.a(alt_isatty.o)
 .debug_info    0x00013662      0x12e ../../bsp/mpsoc_hello_ucosii//libucosii_bsp.a(alt_load.o)
 .debug_info    0x00013790      0x3da ../../bsp/mpsoc_hello_ucosii//libucosii_bsp.a(alt_lseek.o)
 .debug_info    0x00013b6a      0x299 ../../bsp/mpsoc_hello_ucosii//libucosii_bsp.a(alt_main.o)
 .debug_info    0x00013e03      0x553 ../../bsp/mpsoc_hello_ucosii//libucosii_bsp.a(alt_read.o)
 .debug_info    0x00014356      0x33d ../../bsp/mpsoc_hello_ucosii//libucosii_bsp.a(alt_release_fd.o)
 .debug_info    0x00014693      0x1cf ../../bsp/mpsoc_hello_ucosii//libucosii_bsp.a(alt_sbrk.o)
 .debug_info    0x00014862      0x55a ../../bsp/mpsoc_hello_ucosii//libucosii_bsp.a(alt_write.o)
 .debug_info    0x00014dbc      0xd75 ../../bsp/mpsoc_hello_ucosii//libucosii_bsp.a(alt_env_lock.o)
 .debug_info    0x00015b31      0xea8 ../../bsp/mpsoc_hello_ucosii//libucosii_bsp.a(alt_malloc_lock.o)
 .debug_info    0x000169d9     0x1997 ../../bsp/mpsoc_hello_ucosii//libucosii_bsp.a(os_core.o)
 .debug_info    0x00018370      0xd75 ../../bsp/mpsoc_hello_ucosii//libucosii_bsp.a(os_dbg.o)
 .debug_info    0x000190e5      0xeda ../../bsp/mpsoc_hello_ucosii//libucosii_bsp.a(os_flag.o)
 .debug_info    0x00019fbf      0x691 ../../bsp/mpsoc_hello_ucosii//libucosii_bsp.a(os_mem.o)
 .debug_info    0x0001a650      0xde6 ../../bsp/mpsoc_hello_ucosii//libucosii_bsp.a(os_q.o)
 .debug_info    0x0001b436      0xa3b ../../bsp/mpsoc_hello_ucosii//libucosii_bsp.a(os_sem.o)
 .debug_info    0x0001be71     0x10e6 ../../bsp/mpsoc_hello_ucosii//libucosii_bsp.a(os_task.o)
 .debug_info    0x0001cf57      0x731 ../../bsp/mpsoc_hello_ucosii//libucosii_bsp.a(os_time.o)
 .debug_info    0x0001d688      0x8ae ../../bsp/mpsoc_hello_ucosii//libucosii_bsp.a(os_tmr.o)
 .debug_info    0x0001df36      0x862 ../../bsp/mpsoc_hello_ucosii//libucosii_bsp.a(alt_sys_init.o)
 .debug_info    0x0001e798      0x6ff ../../bsp/mpsoc_hello_ucosii//libucosii_bsp.a(altera_avalon_jtag_uart_fd.o)
 .debug_info    0x0001ee97      0x6cd ../../bsp/mpsoc_hello_ucosii//libucosii_bsp.a(altera_avalon_jtag_uart_init.o)
 .debug_info    0x0001f564      0x428 ../../bsp/mpsoc_hello_ucosii//libucosii_bsp.a(altera_avalon_jtag_uart_ioctl.o)
 .debug_info    0x0001f98c      0x5c3 ../../bsp/mpsoc_hello_ucosii//libucosii_bsp.a(altera_avalon_jtag_uart_read.o)
 .debug_info    0x0001ff4f      0x5b2 ../../bsp/mpsoc_hello_ucosii//libucosii_bsp.a(altera_avalon_jtag_uart_write.o)
 .debug_info    0x00020501      0x514 ../../bsp/mpsoc_hello_ucosii//libucosii_bsp.a(altera_avalon_mutex.o)
 .debug_info    0x00020a15      0x247 ../../bsp/mpsoc_hello_ucosii//libucosii_bsp.a(altera_avalon_timer_sc.o)
 .debug_info    0x00020c5c      0x17a ../../bsp/mpsoc_hello_ucosii//libucosii_bsp.a(perf_print_formatted_report.o)
 .debug_info    0x00020dd6      0x2de ../../bsp/mpsoc_hello_ucosii//libucosii_bsp.a(alt_alarm_start.o)
 .debug_info    0x000210b4       0x8d ../../bsp/mpsoc_hello_ucosii//libucosii_bsp.a(alt_dcache_flush_all.o)
 .debug_info    0x00021141      0x1b7 ../../bsp/mpsoc_hello_ucosii//libucosii_bsp.a(alt_dev_llist_insert.o)
 .debug_info    0x000212f8       0x8d ../../bsp/mpsoc_hello_ucosii//libucosii_bsp.a(alt_do_ctors.o)
 .debug_info    0x00021385       0x8d ../../bsp/mpsoc_hello_ucosii//libucosii_bsp.a(alt_do_dtors.o)
 .debug_info    0x00021412      0x362 ../../bsp/mpsoc_hello_ucosii//libucosii_bsp.a(alt_find_dev.o)
 .debug_info    0x00021774       0x8d ../../bsp/mpsoc_hello_ucosii//libucosii_bsp.a(alt_icache_flush_all.o)
 .debug_info    0x00021801      0x548 ../../bsp/mpsoc_hello_ucosii//libucosii_bsp.a(alt_io_redirect.o)
 .debug_info    0x00021d49      0x321 ../../bsp/mpsoc_hello_ucosii//libucosii_bsp.a(alt_irq_register.o)
 .debug_info    0x0002206a       0x92 ../../bsp/mpsoc_hello_ucosii//libucosii_bsp.a(alt_irq_vars.o)
 .debug_info    0x000220fc      0x453 ../../bsp/mpsoc_hello_ucosii//libucosii_bsp.a(alt_open.o)
 .debug_info    0x0002254f      0x2c9 ../../bsp/mpsoc_hello_ucosii//libucosii_bsp.a(alt_tick.o)
 .debug_info    0x00022818       0xb7 ../../bsp/mpsoc_hello_ucosii//libucosii_bsp.a(altera_nios2_qsys_irq.o)
 .debug_info    0x000228cf       0x78 ../../bsp/mpsoc_hello_ucosii//libucosii_bsp.a(os_cpu_a.o)
 .debug_info    0x00022947      0xe0f ../../bsp/mpsoc_hello_ucosii//libucosii_bsp.a(os_cpu_c.o)
 .debug_info    0x00023756      0x165 ../../bsp/mpsoc_hello_ucosii//libucosii_bsp.a(altera_avalon_performance_counter.o)
 .debug_info    0x000238bb      0x360 ../../bsp/mpsoc_hello_ucosii//libucosii_bsp.a(alt_find_file.o)
 .debug_info    0x00023c1b      0x494 ../../bsp/mpsoc_hello_ucosii//libucosii_bsp.a(alt_get_fd.o)
 .debug_info    0x000240af       0x79 ../../bsp/mpsoc_hello_ucosii//libucosii_bsp.a(alt_irq_entry.o)
 .debug_info    0x00024128      0x1cb ../../bsp/mpsoc_hello_ucosii//libucosii_bsp.a(alt_irq_handler.o)
 .debug_info    0x000242f3       0x7f ../../bsp/mpsoc_hello_ucosii//libucosii_bsp.a(alt_exception_entry.o)
 .debug_info    0x00024372      0x181 /opt/altera/13.0sp1/nios2eds/bin/gnu/H-i686-pc-linux-gnu/bin/../lib/gcc/nios2-elf/4.1.2/../../../../nios2-elf/lib/mno-hw-mul/libc.a(lib_a-atexit.o)
 .debug_info    0x000244f3      0x93f /opt/altera/13.0sp1/nios2eds/bin/gnu/H-i686-pc-linux-gnu/bin/../lib/gcc/nios2-elf/4.1.2/../../../../nios2-elf/lib/mno-hw-mul/libc.a(lib_a-exit.o)
 .debug_info    0x00024e32      0x115 /opt/altera/13.0sp1/nios2eds/bin/gnu/H-i686-pc-linux-gnu/bin/../lib/gcc/nios2-elf/4.1.2/../../../../nios2-elf/lib/mno-hw-mul/libc.a(lib_a-memcmp.o)
 .debug_info    0x00024f47      0x9d1 /opt/altera/13.0sp1/nios2eds/bin/gnu/H-i686-pc-linux-gnu/bin/../lib/gcc/nios2-elf/4.1.2/../../../../nios2-elf/lib/mno-hw-mul/libc.a(lib_a-printf.o)
 .debug_info    0x00025918     0x10d5 /opt/altera/13.0sp1/nios2eds/bin/gnu/H-i686-pc-linux-gnu/bin/../lib/gcc/nios2-elf/4.1.2/../../../../nios2-elf/lib/mno-hw-mul/libc.a(lib_a-vfprintf.o)
 .debug_info    0x000269ed      0x99c /opt/altera/13.0sp1/nios2eds/bin/gnu/H-i686-pc-linux-gnu/bin/../lib/gcc/nios2-elf/4.1.2/../../../../nios2-elf/lib/mno-hw-mul/libc.a(lib_a-__atexit.o)
 .debug_info    0x00027389      0x9e2 /opt/altera/13.0sp1/nios2eds/bin/gnu/H-i686-pc-linux-gnu/bin/../lib/gcc/nios2-elf/4.1.2/../../../../nios2-elf/lib/mno-hw-mul/libc.a(lib_a-__call_atexit.o)
 .debug_info    0x00027d6b      0xd6f /opt/altera/13.0sp1/nios2eds/bin/gnu/H-i686-pc-linux-gnu/bin/../lib/gcc/nios2-elf/4.1.2/../../../../nios2-elf/lib/mno-hw-mul/libc.a(lib_a-dtoa.o)
 .debug_info    0x00028ada      0xb97 /opt/altera/13.0sp1/nios2eds/bin/gnu/H-i686-pc-linux-gnu/bin/../lib/gcc/nios2-elf/4.1.2/../../../../nios2-elf/lib/mno-hw-mul/libc.a(lib_a-locale.o)
 .debug_info    0x00029671     0x143b /opt/altera/13.0sp1/nios2eds/bin/gnu/H-i686-pc-linux-gnu/bin/../lib/gcc/nios2-elf/4.1.2/../../../../nios2-elf/lib/mno-hw-mul/libc.a(lib_a-mprec.o)
 .debug_info    0x0002aaac       0xd7 /opt/altera/13.0sp1/nios2eds/bin/gnu/H-i686-pc-linux-gnu/bin/../lib/gcc/nios2-elf/4.1.2/../../../../nios2-elf/lib/mno-hw-mul/libc.a(lib_a-s_isinfd.o)
 .debug_info    0x0002ab83       0xd5 /opt/altera/13.0sp1/nios2eds/bin/gnu/H-i686-pc-linux-gnu/bin/../lib/gcc/nios2-elf/4.1.2/../../../../nios2-elf/lib/mno-hw-mul/libc.a(lib_a-s_isnand.o)
 .debug_info    0x0002ac58       0xdd /opt/altera/13.0sp1/nios2eds/bin/gnu/H-i686-pc-linux-gnu/bin/../lib/gcc/nios2-elf/4.1.2/../../../../nios2-elf/lib/mno-hw-mul/libc.a(lib_a-strcmp.o)
 .debug_info    0x0002ad35      0xa1b /opt/altera/13.0sp1/nios2eds/bin/gnu/H-i686-pc-linux-gnu/bin/../lib/gcc/nios2-elf/4.1.2/../../../../nios2-elf/lib/mno-hw-mul/libc.a(lib_a-callocr.o)
 .debug_info    0x0002b750       0xce /opt/altera/13.0sp1/nios2eds/bin/gnu/H-i686-pc-linux-gnu/bin/../lib/gcc/nios2-elf/4.1.2/mno-hw-mul/libgcc.a(_fixunsdfsi.o)
 .debug_info    0x0002b81e       0xdc /opt/altera/13.0sp1/nios2eds/bin/gnu/H-i686-pc-linux-gnu/bin/../lib/gcc/nios2-elf/4.1.2/mno-hw-mul/libgcc.a(_floatundidf.o)
 .debug_info    0x0002b8fa      0x71c /opt/altera/13.0sp1/nios2eds/bin/gnu/H-i686-pc-linux-gnu/bin/../lib/gcc/nios2-elf/4.1.2/mno-hw-mul/libgcc.a(_udivdi3.o)
 .debug_info    0x0002c016      0x749 /opt/altera/13.0sp1/nios2eds/bin/gnu/H-i686-pc-linux-gnu/bin/../lib/gcc/nios2-elf/4.1.2/mno-hw-mul/libgcc.a(_umoddi3.o)
 .debug_info    0x0002c75f      0x39b /opt/altera/13.0sp1/nios2eds/bin/gnu/H-i686-pc-linux-gnu/bin/../lib/gcc/nios2-elf/4.1.2/mno-hw-mul/libgcc.a(_div_df.o)
 .debug_info    0x0002cafa      0x29d /opt/altera/13.0sp1/nios2eds/bin/gnu/H-i686-pc-linux-gnu/bin/../lib/gcc/nios2-elf/4.1.2/mno-hw-mul/libgcc.a(_eq_df.o)
 .debug_info    0x0002cd97      0x29d /opt/altera/13.0sp1/nios2eds/bin/gnu/H-i686-pc-linux-gnu/bin/../lib/gcc/nios2-elf/4.1.2/mno-hw-mul/libgcc.a(_ne_df.o)
 .debug_info    0x0002d034      0x29d /opt/altera/13.0sp1/nios2eds/bin/gnu/H-i686-pc-linux-gnu/bin/../lib/gcc/nios2-elf/4.1.2/mno-hw-mul/libgcc.a(_gt_df.o)
 .debug_info    0x0002d2d1      0x29d /opt/altera/13.0sp1/nios2eds/bin/gnu/H-i686-pc-linux-gnu/bin/../lib/gcc/nios2-elf/4.1.2/mno-hw-mul/libgcc.a(_ge_df.o)
 .debug_info    0x0002d56e      0x29d /opt/altera/13.0sp1/nios2eds/bin/gnu/H-i686-pc-linux-gnu/bin/../lib/gcc/nios2-elf/4.1.2/mno-hw-mul/libgcc.a(_lt_df.o)
 .debug_info    0x0002d80b      0x2cd /opt/altera/13.0sp1/nios2eds/bin/gnu/H-i686-pc-linux-gnu/bin/../lib/gcc/nios2-elf/4.1.2/mno-hw-mul/libgcc.a(_df_to_si.o)
 .debug_info    0x0002dad8      0x213 /opt/altera/13.0sp1/nios2eds/bin/gnu/H-i686-pc-linux-gnu/bin/../lib/gcc/nios2-elf/4.1.2/mno-hw-mul/libgcc.a(_usi_to_df.o)
 .debug_info    0x0002dceb      0x21b /opt/altera/13.0sp1/nios2eds/bin/gnu/H-i686-pc-linux-gnu/bin/../lib/gcc/nios2-elf/4.1.2/mno-hw-mul/libgcc.a(_fpcmp_parts_df.o)
 .debug_info    0x0002df06      0x151 ../../bsp/mpsoc_hello_ucosii//libucosii_bsp.a(alt_exit.o)

.debug_abbrev   0x00000000     0xa961
 *(.debug_abbrev)
 .debug_abbrev  0x00000000       0x12 ../../bsp/mpsoc_hello_ucosii//obj/HAL/src/crt0.o
 .debug_abbrev  0x00000012      0x120 obj/default/src/image_bare.o
 .debug_abbrev  0x00000132      0x1d2 /opt/altera/13.0sp1/nios2eds/bin/gnu/H-i686-pc-linux-gnu/bin/../lib/gcc/nios2-elf/4.1.2/mno-hw-mul/libgcc.a(_addsub_df.o)
 .debug_abbrev  0x00000304      0x204 /opt/altera/13.0sp1/nios2eds/bin/gnu/H-i686-pc-linux-gnu/bin/../lib/gcc/nios2-elf/4.1.2/mno-hw-mul/libgcc.a(_mul_df.o)
 .debug_abbrev  0x00000508      0x13f /opt/altera/13.0sp1/nios2eds/bin/gnu/H-i686-pc-linux-gnu/bin/../lib/gcc/nios2-elf/4.1.2/mno-hw-mul/libgcc.a(_si_to_df.o)
 .debug_abbrev  0x00000647      0x137 /opt/altera/13.0sp1/nios2eds/bin/gnu/H-i686-pc-linux-gnu/bin/../lib/gcc/nios2-elf/4.1.2/mno-hw-mul/libgcc.a(_df_to_sf.o)
 .debug_abbrev  0x0000077e       0xba /opt/altera/13.0sp1/nios2eds/bin/gnu/H-i686-pc-linux-gnu/bin/../lib/gcc/nios2-elf/4.1.2/mno-hw-mul/libgcc.a(_thenan_df.o)
 .debug_abbrev  0x00000838       0xe0 /opt/altera/13.0sp1/nios2eds/bin/gnu/H-i686-pc-linux-gnu/bin/../lib/gcc/nios2-elf/4.1.2/mno-hw-mul/libgcc.a(lib2-divmod.o)
 .debug_abbrev  0x00000918       0x7b /opt/altera/13.0sp1/nios2eds/bin/gnu/H-i686-pc-linux-gnu/bin/../lib/gcc/nios2-elf/4.1.2/mno-hw-mul/libgcc.a(lib2-mul.o)
 .debug_abbrev  0x00000993       0xfb /opt/altera/13.0sp1/nios2eds/bin/gnu/H-i686-pc-linux-gnu/bin/../lib/gcc/nios2-elf/4.1.2/mno-hw-mul/libgcc.a(_muldi3.o)
 .debug_abbrev  0x00000a8e       0xb9 /opt/altera/13.0sp1/nios2eds/bin/gnu/H-i686-pc-linux-gnu/bin/../lib/gcc/nios2-elf/4.1.2/mno-hw-mul/libgcc.a(_clzsi2.o)
 .debug_abbrev  0x00000b47      0x100 /opt/altera/13.0sp1/nios2eds/bin/gnu/H-i686-pc-linux-gnu/bin/../lib/gcc/nios2-elf/4.1.2/mno-hw-mul/libgcc.a(_make_sf.o)
 .debug_abbrev  0x00000c47      0x1b1 /opt/altera/13.0sp1/nios2eds/bin/gnu/H-i686-pc-linux-gnu/bin/../lib/gcc/nios2-elf/4.1.2/mno-hw-mul/libgcc.a(_pack_df.o)
 .debug_abbrev  0x00000df8      0x149 /opt/altera/13.0sp1/nios2eds/bin/gnu/H-i686-pc-linux-gnu/bin/../lib/gcc/nios2-elf/4.1.2/mno-hw-mul/libgcc.a(_unpack_df.o)
 .debug_abbrev  0x00000f41       0x61 /opt/altera/13.0sp1/nios2eds/bin/gnu/H-i686-pc-linux-gnu/bin/../lib/gcc/nios2-elf/4.1.2/mno-hw-mul/libgcc.a(_clz.o)
 .debug_abbrev  0x00000fa2      0x1aa /opt/altera/13.0sp1/nios2eds/bin/gnu/H-i686-pc-linux-gnu/bin/../lib/gcc/nios2-elf/4.1.2/mno-hw-mul/libgcc.a(_pack_sf.o)
 .debug_abbrev  0x0000114c      0x187 /opt/altera/13.0sp1/nios2eds/bin/gnu/H-i686-pc-linux-gnu/bin/../lib/gcc/nios2-elf/4.1.2/../../../../nios2-elf/lib/mno-hw-mul/libc.a(lib_a-malloc.o)
 .debug_abbrev  0x000012d3      0x216 /opt/altera/13.0sp1/nios2eds/bin/gnu/H-i686-pc-linux-gnu/bin/../lib/gcc/nios2-elf/4.1.2/../../../../nios2-elf/lib/mno-hw-mul/libc.a(lib_a-mallocr.o)
 .debug_abbrev  0x000014e9       0xb5 /opt/altera/13.0sp1/nios2eds/bin/gnu/H-i686-pc-linux-gnu/bin/../lib/gcc/nios2-elf/4.1.2/../../../../nios2-elf/lib/mno-hw-mul/libc.a(lib_a-memcpy.o)
 .debug_abbrev  0x0000159e      0x170 /opt/altera/13.0sp1/nios2eds/bin/gnu/H-i686-pc-linux-gnu/bin/../lib/gcc/nios2-elf/4.1.2/../../../../nios2-elf/lib/mno-hw-mul/libc.a(lib_a-putchar.o)
 .debug_abbrev  0x0000170e      0x1ac /opt/altera/13.0sp1/nios2eds/bin/gnu/H-i686-pc-linux-gnu/bin/../lib/gcc/nios2-elf/4.1.2/../../../../nios2-elf/lib/mno-hw-mul/libc.a(lib_a-puts.o)
 .debug_abbrev  0x000018ba      0x18c /opt/altera/13.0sp1/nios2eds/bin/gnu/H-i686-pc-linux-gnu/bin/../lib/gcc/nios2-elf/4.1.2/../../../../nios2-elf/lib/mno-hw-mul/libc.a(lib_a-sbrkr.o)
 .debug_abbrev  0x00001a46       0x8b /opt/altera/13.0sp1/nios2eds/bin/gnu/H-i686-pc-linux-gnu/bin/../lib/gcc/nios2-elf/4.1.2/../../../../nios2-elf/lib/mno-hw-mul/libc.a(lib_a-strlen.o)
 .debug_abbrev  0x00001ad1      0x1d9 /opt/altera/13.0sp1/nios2eds/bin/gnu/H-i686-pc-linux-gnu/bin/../lib/gcc/nios2-elf/4.1.2/../../../../nios2-elf/lib/mno-hw-mul/libc.a(lib_a-freer.o)
 .debug_abbrev  0x00001caa      0x1a3 /opt/altera/13.0sp1/nios2eds/bin/gnu/H-i686-pc-linux-gnu/bin/../lib/gcc/nios2-elf/4.1.2/../../../../nios2-elf/lib/mno-hw-mul/libc.a(lib_a-fvwrite.o)
 .debug_abbrev  0x00001e4d      0x157 /opt/altera/13.0sp1/nios2eds/bin/gnu/H-i686-pc-linux-gnu/bin/../lib/gcc/nios2-elf/4.1.2/../../../../nios2-elf/lib/mno-hw-mul/libc.a(lib_a-impure.o)
 .debug_abbrev  0x00001fa4       0x3b /opt/altera/13.0sp1/nios2eds/bin/gnu/H-i686-pc-linux-gnu/bin/../lib/gcc/nios2-elf/4.1.2/../../../../nios2-elf/lib/mno-hw-mul/libc.a(lib_a-int_errno.o)
 .debug_abbrev  0x00001fdf       0xb5 /opt/altera/13.0sp1/nios2eds/bin/gnu/H-i686-pc-linux-gnu/bin/../lib/gcc/nios2-elf/4.1.2/../../../../nios2-elf/lib/mno-hw-mul/libc.a(lib_a-memchr.o)
 .debug_abbrev  0x00002094       0xb5 /opt/altera/13.0sp1/nios2eds/bin/gnu/H-i686-pc-linux-gnu/bin/../lib/gcc/nios2-elf/4.1.2/../../../../nios2-elf/lib/mno-hw-mul/libc.a(lib_a-memmove.o)
 .debug_abbrev  0x00002149      0x17f /opt/altera/13.0sp1/nios2eds/bin/gnu/H-i686-pc-linux-gnu/bin/../lib/gcc/nios2-elf/4.1.2/../../../../nios2-elf/lib/mno-hw-mul/libc.a(lib_a-putc.o)
 .debug_abbrev  0x000022c8      0x1c3 /opt/altera/13.0sp1/nios2eds/bin/gnu/H-i686-pc-linux-gnu/bin/../lib/gcc/nios2-elf/4.1.2/../../../../nios2-elf/lib/mno-hw-mul/libc.a(lib_a-reallocr.o)
 .debug_abbrev  0x0000248b      0x198 /opt/altera/13.0sp1/nios2eds/bin/gnu/H-i686-pc-linux-gnu/bin/../lib/gcc/nios2-elf/4.1.2/../../../../nios2-elf/lib/mno-hw-mul/libc.a(lib_a-wbuf.o)
 .debug_abbrev  0x00002623      0x170 /opt/altera/13.0sp1/nios2eds/bin/gnu/H-i686-pc-linux-gnu/bin/../lib/gcc/nios2-elf/4.1.2/../../../../nios2-elf/lib/mno-hw-mul/libc.a(lib_a-wsetup.o)
 .debug_abbrev  0x00002793      0x1c6 /opt/altera/13.0sp1/nios2eds/bin/gnu/H-i686-pc-linux-gnu/bin/../lib/gcc/nios2-elf/4.1.2/../../../../nios2-elf/lib/mno-hw-mul/libc.a(lib_a-fflush.o)
 .debug_abbrev  0x00002959      0x24c /opt/altera/13.0sp1/nios2eds/bin/gnu/H-i686-pc-linux-gnu/bin/../lib/gcc/nios2-elf/4.1.2/../../../../nios2-elf/lib/mno-hw-mul/libc.a(lib_a-findfp.o)
 .debug_abbrev  0x00002ba5      0x1e3 /opt/altera/13.0sp1/nios2eds/bin/gnu/H-i686-pc-linux-gnu/bin/../lib/gcc/nios2-elf/4.1.2/../../../../nios2-elf/lib/mno-hw-mul/libc.a(lib_a-fwalk.o)
 .debug_abbrev  0x00002d88      0x197 /opt/altera/13.0sp1/nios2eds/bin/gnu/H-i686-pc-linux-gnu/bin/../lib/gcc/nios2-elf/4.1.2/../../../../nios2-elf/lib/mno-hw-mul/libc.a(lib_a-makebuf.o)
 .debug_abbrev  0x00002f1f       0xb8 /opt/altera/13.0sp1/nios2eds/bin/gnu/H-i686-pc-linux-gnu/bin/../lib/gcc/nios2-elf/4.1.2/../../../../nios2-elf/lib/mno-hw-mul/libc.a(lib_a-memset.o)
 .debug_abbrev  0x00002fd7      0x1c9 /opt/altera/13.0sp1/nios2eds/bin/gnu/H-i686-pc-linux-gnu/bin/../lib/gcc/nios2-elf/4.1.2/../../../../nios2-elf/lib/mno-hw-mul/libc.a(lib_a-stdio.o)
 .debug_abbrev  0x000031a0      0x184 /opt/altera/13.0sp1/nios2eds/bin/gnu/H-i686-pc-linux-gnu/bin/../lib/gcc/nios2-elf/4.1.2/../../../../nios2-elf/lib/mno-hw-mul/libc.a(lib_a-writer.o)
 .debug_abbrev  0x00003324      0x17f /opt/altera/13.0sp1/nios2eds/bin/gnu/H-i686-pc-linux-gnu/bin/../lib/gcc/nios2-elf/4.1.2/../../../../nios2-elf/lib/mno-hw-mul/libc.a(lib_a-closer.o)
 .debug_abbrev  0x000034a3      0x1a7 /opt/altera/13.0sp1/nios2eds/bin/gnu/H-i686-pc-linux-gnu/bin/../lib/gcc/nios2-elf/4.1.2/../../../../nios2-elf/lib/mno-hw-mul/libc.a(lib_a-fclose.o)
 .debug_abbrev  0x0000364a      0x18e /opt/altera/13.0sp1/nios2eds/bin/gnu/H-i686-pc-linux-gnu/bin/../lib/gcc/nios2-elf/4.1.2/../../../../nios2-elf/lib/mno-hw-mul/libc.a(lib_a-fstatr.o)
 .debug_abbrev  0x000037d8      0x17f /opt/altera/13.0sp1/nios2eds/bin/gnu/H-i686-pc-linux-gnu/bin/../lib/gcc/nios2-elf/4.1.2/../../../../nios2-elf/lib/mno-hw-mul/libc.a(lib_a-isattyr.o)
 .debug_abbrev  0x00003957      0x18e /opt/altera/13.0sp1/nios2eds/bin/gnu/H-i686-pc-linux-gnu/bin/../lib/gcc/nios2-elf/4.1.2/../../../../nios2-elf/lib/mno-hw-mul/libc.a(lib_a-lseekr.o)
 .debug_abbrev  0x00003ae5      0x17f /opt/altera/13.0sp1/nios2eds/bin/gnu/H-i686-pc-linux-gnu/bin/../lib/gcc/nios2-elf/4.1.2/../../../../nios2-elf/lib/mno-hw-mul/libc.a(lib_a-readr.o)
 .debug_abbrev  0x00003c64      0x120 ../../bsp/mpsoc_hello_ucosii//libucosii_bsp.a(alt_close.o)
 .debug_abbrev  0x00003d84      0x119 ../../bsp/mpsoc_hello_ucosii//libucosii_bsp.a(alt_dev.o)
 .debug_abbrev  0x00003e9d       0x5e ../../bsp/mpsoc_hello_ucosii//libucosii_bsp.a(alt_errno.o)
 .debug_abbrev  0x00003efb      0x12b ../../bsp/mpsoc_hello_ucosii//libucosii_bsp.a(alt_fstat.o)
 .debug_abbrev  0x00004026      0x12b ../../bsp/mpsoc_hello_ucosii//libucosii_bsp.a(alt_isatty.o)
 .debug_abbrev  0x00004151       0x97 ../../bsp/mpsoc_hello_ucosii//libucosii_bsp.a(alt_load.o)
 .debug_abbrev  0x000041e8      0x12b ../../bsp/mpsoc_hello_ucosii//libucosii_bsp.a(alt_lseek.o)
 .debug_abbrev  0x00004313      0x132 ../../bsp/mpsoc_hello_ucosii//libucosii_bsp.a(alt_main.o)
 .debug_abbrev  0x00004445      0x12f ../../bsp/mpsoc_hello_ucosii//libucosii_bsp.a(alt_read.o)
 .debug_abbrev  0x00004574       0xe2 ../../bsp/mpsoc_hello_ucosii//libucosii_bsp.a(alt_release_fd.o)
 .debug_abbrev  0x00004656      0x112 ../../bsp/mpsoc_hello_ucosii//libucosii_bsp.a(alt_sbrk.o)
 .debug_abbrev  0x00004768      0x134 ../../bsp/mpsoc_hello_ucosii//libucosii_bsp.a(alt_write.o)
 .debug_abbrev  0x0000489c      0x1ca ../../bsp/mpsoc_hello_ucosii//libucosii_bsp.a(alt_env_lock.o)
 .debug_abbrev  0x00004a66      0x25f ../../bsp/mpsoc_hello_ucosii//libucosii_bsp.a(alt_malloc_lock.o)
 .debug_abbrev  0x00004cc5      0x379 ../../bsp/mpsoc_hello_ucosii//libucosii_bsp.a(os_core.o)
 .debug_abbrev  0x0000503e      0x102 ../../bsp/mpsoc_hello_ucosii//libucosii_bsp.a(os_dbg.o)
 .debug_abbrev  0x00005140      0x297 ../../bsp/mpsoc_hello_ucosii//libucosii_bsp.a(os_flag.o)
 .debug_abbrev  0x000053d7      0x25a ../../bsp/mpsoc_hello_ucosii//libucosii_bsp.a(os_mem.o)
 .debug_abbrev  0x00005631      0x2b0 ../../bsp/mpsoc_hello_ucosii//libucosii_bsp.a(os_q.o)
 .debug_abbrev  0x000058e1      0x2b6 ../../bsp/mpsoc_hello_ucosii//libucosii_bsp.a(os_sem.o)
 .debug_abbrev  0x00005b97      0x284 ../../bsp/mpsoc_hello_ucosii//libucosii_bsp.a(os_task.o)
 .debug_abbrev  0x00005e1b      0x209 ../../bsp/mpsoc_hello_ucosii//libucosii_bsp.a(os_time.o)
 .debug_abbrev  0x00006024      0x26b ../../bsp/mpsoc_hello_ucosii//libucosii_bsp.a(os_tmr.o)
 .debug_abbrev  0x0000628f      0x226 ../../bsp/mpsoc_hello_ucosii//libucosii_bsp.a(alt_sys_init.o)
 .debug_abbrev  0x000064b5      0x158 ../../bsp/mpsoc_hello_ucosii//libucosii_bsp.a(altera_avalon_jtag_uart_fd.o)
 .debug_abbrev  0x0000660d      0x244 ../../bsp/mpsoc_hello_ucosii//libucosii_bsp.a(altera_avalon_jtag_uart_init.o)
 .debug_abbrev  0x00006851      0x151 ../../bsp/mpsoc_hello_ucosii//libucosii_bsp.a(altera_avalon_jtag_uart_ioctl.o)
 .debug_abbrev  0x000069a2      0x201 ../../bsp/mpsoc_hello_ucosii//libucosii_bsp.a(altera_avalon_jtag_uart_read.o)
 .debug_abbrev  0x00006ba3      0x1ee ../../bsp/mpsoc_hello_ucosii//libucosii_bsp.a(altera_avalon_jtag_uart_write.o)
 .debug_abbrev  0x00006d91      0x237 ../../bsp/mpsoc_hello_ucosii//libucosii_bsp.a(altera_avalon_mutex.o)
 .debug_abbrev  0x00006fc8      0x158 ../../bsp/mpsoc_hello_ucosii//libucosii_bsp.a(altera_avalon_timer_sc.o)
 .debug_abbrev  0x00007120       0xa6 ../../bsp/mpsoc_hello_ucosii//libucosii_bsp.a(perf_print_formatted_report.o)
 .debug_abbrev  0x000071c6      0x179 ../../bsp/mpsoc_hello_ucosii//libucosii_bsp.a(alt_alarm_start.o)
 .debug_abbrev  0x0000733f       0x3f ../../bsp/mpsoc_hello_ucosii//libucosii_bsp.a(alt_dcache_flush_all.o)
 .debug_abbrev  0x0000737e      0x117 ../../bsp/mpsoc_hello_ucosii//libucosii_bsp.a(alt_dev_llist_insert.o)
 .debug_abbrev  0x00007495       0x76 ../../bsp/mpsoc_hello_ucosii//libucosii_bsp.a(alt_do_ctors.o)
 .debug_abbrev  0x0000750b       0x76 ../../bsp/mpsoc_hello_ucosii//libucosii_bsp.a(alt_do_dtors.o)
 .debug_abbrev  0x00007581       0xf4 ../../bsp/mpsoc_hello_ucosii//libucosii_bsp.a(alt_find_dev.o)
 .debug_abbrev  0x00007675       0x3f ../../bsp/mpsoc_hello_ucosii//libucosii_bsp.a(alt_icache_flush_all.o)
 .debug_abbrev  0x000076b4      0x115 ../../bsp/mpsoc_hello_ucosii//libucosii_bsp.a(alt_io_redirect.o)
 .debug_abbrev  0x000077c9      0x190 ../../bsp/mpsoc_hello_ucosii//libucosii_bsp.a(alt_irq_register.o)
 .debug_abbrev  0x00007959       0x44 ../../bsp/mpsoc_hello_ucosii//libucosii_bsp.a(alt_irq_vars.o)
 .debug_abbrev  0x0000799d      0x17e ../../bsp/mpsoc_hello_ucosii//libucosii_bsp.a(alt_open.o)
 .debug_abbrev  0x00007b1b      0x170 ../../bsp/mpsoc_hello_ucosii//libucosii_bsp.a(alt_tick.o)
 .debug_abbrev  0x00007c8b       0x64 ../../bsp/mpsoc_hello_ucosii//libucosii_bsp.a(altera_nios2_qsys_irq.o)
 .debug_abbrev  0x00007cef       0x14 ../../bsp/mpsoc_hello_ucosii//libucosii_bsp.a(os_cpu_a.o)
 .debug_abbrev  0x00007d03      0x21f ../../bsp/mpsoc_hello_ucosii//libucosii_bsp.a(os_cpu_c.o)
 .debug_abbrev  0x00007f22       0xae ../../bsp/mpsoc_hello_ucosii//libucosii_bsp.a(altera_avalon_performance_counter.o)
 .debug_abbrev  0x00007fd0       0xf4 ../../bsp/mpsoc_hello_ucosii//libucosii_bsp.a(alt_find_file.o)
 .debug_abbrev  0x000080c4      0x192 ../../bsp/mpsoc_hello_ucosii//libucosii_bsp.a(alt_get_fd.o)
 .debug_abbrev  0x00008256       0x12 ../../bsp/mpsoc_hello_ucosii//libucosii_bsp.a(alt_irq_entry.o)
 .debug_abbrev  0x00008268      0x131 ../../bsp/mpsoc_hello_ucosii//libucosii_bsp.a(alt_irq_handler.o)
 .debug_abbrev  0x00008399       0x12 ../../bsp/mpsoc_hello_ucosii//libucosii_bsp.a(alt_exception_entry.o)
 .debug_abbrev  0x000083ab       0xb7 /opt/altera/13.0sp1/nios2eds/bin/gnu/H-i686-pc-linux-gnu/bin/../lib/gcc/nios2-elf/4.1.2/../../../../nios2-elf/lib/mno-hw-mul/libc.a(lib_a-atexit.o)
 .debug_abbrev  0x00008462      0x16e /opt/altera/13.0sp1/nios2eds/bin/gnu/H-i686-pc-linux-gnu/bin/../lib/gcc/nios2-elf/4.1.2/../../../../nios2-elf/lib/mno-hw-mul/libc.a(lib_a-exit.o)
 .debug_abbrev  0x000085d0       0x7c /opt/altera/13.0sp1/nios2eds/bin/gnu/H-i686-pc-linux-gnu/bin/../lib/gcc/nios2-elf/4.1.2/../../../../nios2-elf/lib/mno-hw-mul/libc.a(lib_a-memcmp.o)
 .debug_abbrev  0x0000864c      0x191 /opt/altera/13.0sp1/nios2eds/bin/gnu/H-i686-pc-linux-gnu/bin/../lib/gcc/nios2-elf/4.1.2/../../../../nios2-elf/lib/mno-hw-mul/libc.a(lib_a-printf.o)
 .debug_abbrev  0x000087dd      0x30a /opt/altera/13.0sp1/nios2eds/bin/gnu/H-i686-pc-linux-gnu/bin/../lib/gcc/nios2-elf/4.1.2/../../../../nios2-elf/lib/mno-hw-mul/libc.a(lib_a-vfprintf.o)
 .debug_abbrev  0x00008ae7      0x1ae /opt/altera/13.0sp1/nios2eds/bin/gnu/H-i686-pc-linux-gnu/bin/../lib/gcc/nios2-elf/4.1.2/../../../../nios2-elf/lib/mno-hw-mul/libc.a(lib_a-__atexit.o)
 .debug_abbrev  0x00008c95      0x1de /opt/altera/13.0sp1/nios2eds/bin/gnu/H-i686-pc-linux-gnu/bin/../lib/gcc/nios2-elf/4.1.2/../../../../nios2-elf/lib/mno-hw-mul/libc.a(lib_a-__call_atexit.o)
 .debug_abbrev  0x00008e73      0x232 /opt/altera/13.0sp1/nios2eds/bin/gnu/H-i686-pc-linux-gnu/bin/../lib/gcc/nios2-elf/4.1.2/../../../../nios2-elf/lib/mno-hw-mul/libc.a(lib_a-dtoa.o)
 .debug_abbrev  0x000090a5      0x1ed /opt/altera/13.0sp1/nios2eds/bin/gnu/H-i686-pc-linux-gnu/bin/../lib/gcc/nios2-elf/4.1.2/../../../../nios2-elf/lib/mno-hw-mul/libc.a(lib_a-locale.o)
 .debug_abbrev  0x00009292      0x297 /opt/altera/13.0sp1/nios2eds/bin/gnu/H-i686-pc-linux-gnu/bin/../lib/gcc/nios2-elf/4.1.2/../../../../nios2-elf/lib/mno-hw-mul/libc.a(lib_a-mprec.o)
 .debug_abbrev  0x00009529       0x79 /opt/altera/13.0sp1/nios2eds/bin/gnu/H-i686-pc-linux-gnu/bin/../lib/gcc/nios2-elf/4.1.2/../../../../nios2-elf/lib/mno-hw-mul/libc.a(lib_a-s_isinfd.o)
 .debug_abbrev  0x000095a2       0x79 /opt/altera/13.0sp1/nios2eds/bin/gnu/H-i686-pc-linux-gnu/bin/../lib/gcc/nios2-elf/4.1.2/../../../../nios2-elf/lib/mno-hw-mul/libc.a(lib_a-s_isnand.o)
 .debug_abbrev  0x0000961b       0x80 /opt/altera/13.0sp1/nios2eds/bin/gnu/H-i686-pc-linux-gnu/bin/../lib/gcc/nios2-elf/4.1.2/../../../../nios2-elf/lib/mno-hw-mul/libc.a(lib_a-strcmp.o)
 .debug_abbrev  0x0000969b      0x1b8 /opt/altera/13.0sp1/nios2eds/bin/gnu/H-i686-pc-linux-gnu/bin/../lib/gcc/nios2-elf/4.1.2/../../../../nios2-elf/lib/mno-hw-mul/libc.a(lib_a-callocr.o)
 .debug_abbrev  0x00009853       0x5d /opt/altera/13.0sp1/nios2eds/bin/gnu/H-i686-pc-linux-gnu/bin/../lib/gcc/nios2-elf/4.1.2/mno-hw-mul/libgcc.a(_fixunsdfsi.o)
 .debug_abbrev  0x000098b0       0x6c /opt/altera/13.0sp1/nios2eds/bin/gnu/H-i686-pc-linux-gnu/bin/../lib/gcc/nios2-elf/4.1.2/mno-hw-mul/libgcc.a(_floatundidf.o)
 .debug_abbrev  0x0000991c      0x16b /opt/altera/13.0sp1/nios2eds/bin/gnu/H-i686-pc-linux-gnu/bin/../lib/gcc/nios2-elf/4.1.2/mno-hw-mul/libgcc.a(_udivdi3.o)
 .debug_abbrev  0x00009a87      0x18e /opt/altera/13.0sp1/nios2eds/bin/gnu/H-i686-pc-linux-gnu/bin/../lib/gcc/nios2-elf/4.1.2/mno-hw-mul/libgcc.a(_umoddi3.o)
 .debug_abbrev  0x00009c15      0x1e3 /opt/altera/13.0sp1/nios2eds/bin/gnu/H-i686-pc-linux-gnu/bin/../lib/gcc/nios2-elf/4.1.2/mno-hw-mul/libgcc.a(_div_df.o)
 .debug_abbrev  0x00009df8      0x151 /opt/altera/13.0sp1/nios2eds/bin/gnu/H-i686-pc-linux-gnu/bin/../lib/gcc/nios2-elf/4.1.2/mno-hw-mul/libgcc.a(_eq_df.o)
 .debug_abbrev  0x00009f49      0x151 /opt/altera/13.0sp1/nios2eds/bin/gnu/H-i686-pc-linux-gnu/bin/../lib/gcc/nios2-elf/4.1.2/mno-hw-mul/libgcc.a(_ne_df.o)
 .debug_abbrev  0x0000a09a      0x151 /opt/altera/13.0sp1/nios2eds/bin/gnu/H-i686-pc-linux-gnu/bin/../lib/gcc/nios2-elf/4.1.2/mno-hw-mul/libgcc.a(_gt_df.o)
 .debug_abbrev  0x0000a1eb      0x151 /opt/altera/13.0sp1/nios2eds/bin/gnu/H-i686-pc-linux-gnu/bin/../lib/gcc/nios2-elf/4.1.2/mno-hw-mul/libgcc.a(_ge_df.o)
 .debug_abbrev  0x0000a33c      0x151 /opt/altera/13.0sp1/nios2eds/bin/gnu/H-i686-pc-linux-gnu/bin/../lib/gcc/nios2-elf/4.1.2/mno-hw-mul/libgcc.a(_lt_df.o)
 .debug_abbrev  0x0000a48d      0x176 /opt/altera/13.0sp1/nios2eds/bin/gnu/H-i686-pc-linux-gnu/bin/../lib/gcc/nios2-elf/4.1.2/mno-hw-mul/libgcc.a(_df_to_si.o)
 .debug_abbrev  0x0000a603      0x155 /opt/altera/13.0sp1/nios2eds/bin/gnu/H-i686-pc-linux-gnu/bin/../lib/gcc/nios2-elf/4.1.2/mno-hw-mul/libgcc.a(_usi_to_df.o)
 .debug_abbrev  0x0000a758      0x132 /opt/altera/13.0sp1/nios2eds/bin/gnu/H-i686-pc-linux-gnu/bin/../lib/gcc/nios2-elf/4.1.2/mno-hw-mul/libgcc.a(_fpcmp_parts_df.o)
 .debug_abbrev  0x0000a88a       0xd7 ../../bsp/mpsoc_hello_ucosii//libucosii_bsp.a(alt_exit.o)

.debug_line     0x00000000    0x1d5c3
 *(.debug_line)
 .debug_line    0x00000000       0x66 ../../bsp/mpsoc_hello_ucosii//obj/HAL/src/crt0.o
 .debug_line    0x00000066      0x726 obj/default/src/image_bare.o
 .debug_line    0x0000078c      0x430 /opt/altera/13.0sp1/nios2eds/bin/gnu/H-i686-pc-linux-gnu/bin/../lib/gcc/nios2-elf/4.1.2/mno-hw-mul/libgcc.a(_addsub_df.o)
 .debug_line    0x00000bbc      0x3e5 /opt/altera/13.0sp1/nios2eds/bin/gnu/H-i686-pc-linux-gnu/bin/../lib/gcc/nios2-elf/4.1.2/mno-hw-mul/libgcc.a(_mul_df.o)
 .debug_line    0x00000fa1      0x175 /opt/altera/13.0sp1/nios2eds/bin/gnu/H-i686-pc-linux-gnu/bin/../lib/gcc/nios2-elf/4.1.2/mno-hw-mul/libgcc.a(_si_to_df.o)
 .debug_line    0x00001116      0x121 /opt/altera/13.0sp1/nios2eds/bin/gnu/H-i686-pc-linux-gnu/bin/../lib/gcc/nios2-elf/4.1.2/mno-hw-mul/libgcc.a(_df_to_sf.o)
 .debug_line    0x00001237       0x94 /opt/altera/13.0sp1/nios2eds/bin/gnu/H-i686-pc-linux-gnu/bin/../lib/gcc/nios2-elf/4.1.2/mno-hw-mul/libgcc.a(_thenan_df.o)
 .debug_line    0x000012cb      0x2c6 /opt/altera/13.0sp1/nios2eds/bin/gnu/H-i686-pc-linux-gnu/bin/../lib/gcc/nios2-elf/4.1.2/mno-hw-mul/libgcc.a(lib2-divmod.o)
 .debug_line    0x00001591      0x191 /opt/altera/13.0sp1/nios2eds/bin/gnu/H-i686-pc-linux-gnu/bin/../lib/gcc/nios2-elf/4.1.2/mno-hw-mul/libgcc.a(lib2-mul.o)
 .debug_line    0x00001722      0x1c6 /opt/altera/13.0sp1/nios2eds/bin/gnu/H-i686-pc-linux-gnu/bin/../lib/gcc/nios2-elf/4.1.2/mno-hw-mul/libgcc.a(_muldi3.o)
 .debug_line    0x000018e8      0x17c /opt/altera/13.0sp1/nios2eds/bin/gnu/H-i686-pc-linux-gnu/bin/../lib/gcc/nios2-elf/4.1.2/mno-hw-mul/libgcc.a(_clzsi2.o)
 .debug_line    0x00001a64       0xe1 /opt/altera/13.0sp1/nios2eds/bin/gnu/H-i686-pc-linux-gnu/bin/../lib/gcc/nios2-elf/4.1.2/mno-hw-mul/libgcc.a(_make_sf.o)
 .debug_line    0x00001b45      0x222 /opt/altera/13.0sp1/nios2eds/bin/gnu/H-i686-pc-linux-gnu/bin/../lib/gcc/nios2-elf/4.1.2/mno-hw-mul/libgcc.a(_pack_df.o)
 .debug_line    0x00001d67      0x1e4 /opt/altera/13.0sp1/nios2eds/bin/gnu/H-i686-pc-linux-gnu/bin/../lib/gcc/nios2-elf/4.1.2/mno-hw-mul/libgcc.a(_unpack_df.o)
 .debug_line    0x00001f4b      0x121 /opt/altera/13.0sp1/nios2eds/bin/gnu/H-i686-pc-linux-gnu/bin/../lib/gcc/nios2-elf/4.1.2/mno-hw-mul/libgcc.a(_clz.o)
 .debug_line    0x0000206c      0x1ca /opt/altera/13.0sp1/nios2eds/bin/gnu/H-i686-pc-linux-gnu/bin/../lib/gcc/nios2-elf/4.1.2/mno-hw-mul/libgcc.a(_pack_sf.o)
 .debug_line    0x00002236      0x24e /opt/altera/13.0sp1/nios2eds/bin/gnu/H-i686-pc-linux-gnu/bin/../lib/gcc/nios2-elf/4.1.2/../../../../nios2-elf/lib/mno-hw-mul/libc.a(lib_a-malloc.o)
 .debug_line    0x00002484      0x80d /opt/altera/13.0sp1/nios2eds/bin/gnu/H-i686-pc-linux-gnu/bin/../lib/gcc/nios2-elf/4.1.2/../../../../nios2-elf/lib/mno-hw-mul/libc.a(lib_a-mallocr.o)
 .debug_line    0x00002c91      0x1af /opt/altera/13.0sp1/nios2eds/bin/gnu/H-i686-pc-linux-gnu/bin/../lib/gcc/nios2-elf/4.1.2/../../../../nios2-elf/lib/mno-hw-mul/libc.a(lib_a-memcpy.o)
 .debug_line    0x00002e40      0x267 /opt/altera/13.0sp1/nios2eds/bin/gnu/H-i686-pc-linux-gnu/bin/../lib/gcc/nios2-elf/4.1.2/../../../../nios2-elf/lib/mno-hw-mul/libc.a(lib_a-putchar.o)
 .debug_line    0x000030a7      0x2fa /opt/altera/13.0sp1/nios2eds/bin/gnu/H-i686-pc-linux-gnu/bin/../lib/gcc/nios2-elf/4.1.2/../../../../nios2-elf/lib/mno-hw-mul/libc.a(lib_a-puts.o)
 .debug_line    0x000033a1      0x29c /opt/altera/13.0sp1/nios2eds/bin/gnu/H-i686-pc-linux-gnu/bin/../lib/gcc/nios2-elf/4.1.2/../../../../nios2-elf/lib/mno-hw-mul/libc.a(lib_a-sbrkr.o)
 .debug_line    0x0000363d      0x270 /opt/altera/13.0sp1/nios2eds/bin/gnu/H-i686-pc-linux-gnu/bin/../lib/gcc/nios2-elf/4.1.2/../../../../nios2-elf/lib/mno-hw-mul/libc.a(lib_a-strlen.o)
 .debug_line    0x000038ad      0x5ee /opt/altera/13.0sp1/nios2eds/bin/gnu/H-i686-pc-linux-gnu/bin/../lib/gcc/nios2-elf/4.1.2/../../../../nios2-elf/lib/mno-hw-mul/libc.a(lib_a-freer.o)
 .debug_line    0x00003e9b      0x644 /opt/altera/13.0sp1/nios2eds/bin/gnu/H-i686-pc-linux-gnu/bin/../lib/gcc/nios2-elf/4.1.2/../../../../nios2-elf/lib/mno-hw-mul/libc.a(lib_a-fvwrite.o)
 .debug_line    0x000044df      0x230 /opt/altera/13.0sp1/nios2eds/bin/gnu/H-i686-pc-linux-gnu/bin/../lib/gcc/nios2-elf/4.1.2/../../../../nios2-elf/lib/mno-hw-mul/libc.a(lib_a-impure.o)
 .debug_line    0x0000470f      0x1e2 /opt/altera/13.0sp1/nios2eds/bin/gnu/H-i686-pc-linux-gnu/bin/../lib/gcc/nios2-elf/4.1.2/../../../../nios2-elf/lib/mno-hw-mul/libc.a(lib_a-int_errno.o)
 .debug_line    0x000048f1      0x306 /opt/altera/13.0sp1/nios2eds/bin/gnu/H-i686-pc-linux-gnu/bin/../lib/gcc/nios2-elf/4.1.2/../../../../nios2-elf/lib/mno-hw-mul/libc.a(lib_a-memchr.o)
 .debug_line    0x00004bf7      0x30d /opt/altera/13.0sp1/nios2eds/bin/gnu/H-i686-pc-linux-gnu/bin/../lib/gcc/nios2-elf/4.1.2/../../../../nios2-elf/lib/mno-hw-mul/libc.a(lib_a-memmove.o)
 .debug_line    0x00004f04      0x2c7 /opt/altera/13.0sp1/nios2eds/bin/gnu/H-i686-pc-linux-gnu/bin/../lib/gcc/nios2-elf/4.1.2/../../../../nios2-elf/lib/mno-hw-mul/libc.a(lib_a-putc.o)
 .debug_line    0x000051cb      0x58d /opt/altera/13.0sp1/nios2eds/bin/gnu/H-i686-pc-linux-gnu/bin/../lib/gcc/nios2-elf/4.1.2/../../../../nios2-elf/lib/mno-hw-mul/libc.a(lib_a-reallocr.o)
 .debug_line    0x00005758      0x353 /opt/altera/13.0sp1/nios2eds/bin/gnu/H-i686-pc-linux-gnu/bin/../lib/gcc/nios2-elf/4.1.2/../../../../nios2-elf/lib/mno-hw-mul/libc.a(lib_a-wbuf.o)
 .debug_line    0x00005aab      0x2f3 /opt/altera/13.0sp1/nios2eds/bin/gnu/H-i686-pc-linux-gnu/bin/../lib/gcc/nios2-elf/4.1.2/../../../../nios2-elf/lib/mno-hw-mul/libc.a(lib_a-wsetup.o)
 .debug_line    0x00005d9e      0x410 /opt/altera/13.0sp1/nios2eds/bin/gnu/H-i686-pc-linux-gnu/bin/../lib/gcc/nios2-elf/4.1.2/../../../../nios2-elf/lib/mno-hw-mul/libc.a(lib_a-fflush.o)
 .debug_line    0x000061ae      0x60c /opt/altera/13.0sp1/nios2eds/bin/gnu/H-i686-pc-linux-gnu/bin/../lib/gcc/nios2-elf/4.1.2/../../../../nios2-elf/lib/mno-hw-mul/libc.a(lib_a-findfp.o)
 .debug_line    0x000067ba      0x34d /opt/altera/13.0sp1/nios2eds/bin/gnu/H-i686-pc-linux-gnu/bin/../lib/gcc/nios2-elf/4.1.2/../../../../nios2-elf/lib/mno-hw-mul/libc.a(lib_a-fwalk.o)
 .debug_line    0x00006b07      0x3c6 /opt/altera/13.0sp1/nios2eds/bin/gnu/H-i686-pc-linux-gnu/bin/../lib/gcc/nios2-elf/4.1.2/../../../../nios2-elf/lib/mno-hw-mul/libc.a(lib_a-makebuf.o)
 .debug_line    0x00006ecd      0x304 /opt/altera/13.0sp1/nios2eds/bin/gnu/H-i686-pc-linux-gnu/bin/../lib/gcc/nios2-elf/4.1.2/../../../../nios2-elf/lib/mno-hw-mul/libc.a(lib_a-memset.o)
 .debug_line    0x000071d1      0x38f /opt/altera/13.0sp1/nios2eds/bin/gnu/H-i686-pc-linux-gnu/bin/../lib/gcc/nios2-elf/4.1.2/../../../../nios2-elf/lib/mno-hw-mul/libc.a(lib_a-stdio.o)
 .debug_line    0x00007560      0x29d /opt/altera/13.0sp1/nios2eds/bin/gnu/H-i686-pc-linux-gnu/bin/../lib/gcc/nios2-elf/4.1.2/../../../../nios2-elf/lib/mno-hw-mul/libc.a(lib_a-writer.o)
 .debug_line    0x000077fd      0x29d /opt/altera/13.0sp1/nios2eds/bin/gnu/H-i686-pc-linux-gnu/bin/../lib/gcc/nios2-elf/4.1.2/../../../../nios2-elf/lib/mno-hw-mul/libc.a(lib_a-closer.o)
 .debug_line    0x00007a9a      0x2eb /opt/altera/13.0sp1/nios2eds/bin/gnu/H-i686-pc-linux-gnu/bin/../lib/gcc/nios2-elf/4.1.2/../../../../nios2-elf/lib/mno-hw-mul/libc.a(lib_a-fclose.o)
 .debug_line    0x00007d85      0x267 /opt/altera/13.0sp1/nios2eds/bin/gnu/H-i686-pc-linux-gnu/bin/../lib/gcc/nios2-elf/4.1.2/../../../../nios2-elf/lib/mno-hw-mul/libc.a(lib_a-fstatr.o)
 .debug_line    0x00007fec      0x29e /opt/altera/13.0sp1/nios2eds/bin/gnu/H-i686-pc-linux-gnu/bin/../lib/gcc/nios2-elf/4.1.2/../../../../nios2-elf/lib/mno-hw-mul/libc.a(lib_a-isattyr.o)
 .debug_line    0x0000828a      0x29d /opt/altera/13.0sp1/nios2eds/bin/gnu/H-i686-pc-linux-gnu/bin/../lib/gcc/nios2-elf/4.1.2/../../../../nios2-elf/lib/mno-hw-mul/libc.a(lib_a-lseekr.o)
 .debug_line    0x00008527      0x29c /opt/altera/13.0sp1/nios2eds/bin/gnu/H-i686-pc-linux-gnu/bin/../lib/gcc/nios2-elf/4.1.2/../../../../nios2-elf/lib/mno-hw-mul/libc.a(lib_a-readr.o)
 .debug_line    0x000087c3      0x33b ../../bsp/mpsoc_hello_ucosii//libucosii_bsp.a(alt_close.o)
 .debug_line    0x00008afe      0x2d7 ../../bsp/mpsoc_hello_ucosii//libucosii_bsp.a(alt_dev.o)
 .debug_line    0x00008dd5      0x1b8 ../../bsp/mpsoc_hello_ucosii//libucosii_bsp.a(alt_errno.o)
 .debug_line    0x00008f8d      0x331 ../../bsp/mpsoc_hello_ucosii//libucosii_bsp.a(alt_fstat.o)
 .debug_line    0x000092be      0x328 ../../bsp/mpsoc_hello_ucosii//libucosii_bsp.a(alt_isatty.o)
 .debug_line    0x000095e6      0x225 ../../bsp/mpsoc_hello_ucosii//libucosii_bsp.a(alt_load.o)
 .debug_line    0x0000980b      0x2f5 ../../bsp/mpsoc_hello_ucosii//libucosii_bsp.a(alt_lseek.o)
 .debug_line    0x00009b00      0x399 ../../bsp/mpsoc_hello_ucosii//libucosii_bsp.a(alt_main.o)
 .debug_line    0x00009e99      0x37a ../../bsp/mpsoc_hello_ucosii//libucosii_bsp.a(alt_read.o)
 .debug_line    0x0000a213      0x2cb ../../bsp/mpsoc_hello_ucosii//libucosii_bsp.a(alt_release_fd.o)
 .debug_line    0x0000a4de      0x271 ../../bsp/mpsoc_hello_ucosii//libucosii_bsp.a(alt_sbrk.o)
 .debug_line    0x0000a74f      0x37b ../../bsp/mpsoc_hello_ucosii//libucosii_bsp.a(alt_write.o)
 .debug_line    0x0000aaca      0x338 ../../bsp/mpsoc_hello_ucosii//libucosii_bsp.a(alt_env_lock.o)
 .debug_line    0x0000ae02      0x3ac ../../bsp/mpsoc_hello_ucosii//libucosii_bsp.a(alt_malloc_lock.o)
 .debug_line    0x0000b1ae     0x1702 ../../bsp/mpsoc_hello_ucosii//libucosii_bsp.a(os_core.o)
 .debug_line    0x0000c8b0      0x23f ../../bsp/mpsoc_hello_ucosii//libucosii_bsp.a(os_dbg.o)
 .debug_line    0x0000caef      0xef6 ../../bsp/mpsoc_hello_ucosii//libucosii_bsp.a(os_flag.o)
 .debug_line    0x0000d9e5      0x71c ../../bsp/mpsoc_hello_ucosii//libucosii_bsp.a(os_mem.o)
 .debug_line    0x0000e101      0xcab ../../bsp/mpsoc_hello_ucosii//libucosii_bsp.a(os_q.o)
 .debug_line    0x0000edac      0x86a ../../bsp/mpsoc_hello_ucosii//libucosii_bsp.a(os_sem.o)
 .debug_line    0x0000f616      0xf86 ../../bsp/mpsoc_hello_ucosii//libucosii_bsp.a(os_task.o)
 .debug_line    0x0001059c      0x4ed ../../bsp/mpsoc_hello_ucosii//libucosii_bsp.a(os_time.o)
 .debug_line    0x00010a89      0xc39 ../../bsp/mpsoc_hello_ucosii//libucosii_bsp.a(os_tmr.o)
 .debug_line    0x000116c2      0x48f ../../bsp/mpsoc_hello_ucosii//libucosii_bsp.a(alt_sys_init.o)
 .debug_line    0x00011b51      0x344 ../../bsp/mpsoc_hello_ucosii//libucosii_bsp.a(altera_avalon_jtag_uart_fd.o)
 .debug_line    0x00011e95      0x65e ../../bsp/mpsoc_hello_ucosii//libucosii_bsp.a(altera_avalon_jtag_uart_init.o)
 .debug_line    0x000124f3      0x35b ../../bsp/mpsoc_hello_ucosii//libucosii_bsp.a(altera_avalon_jtag_uart_ioctl.o)
 .debug_line    0x0001284e      0x4e7 ../../bsp/mpsoc_hello_ucosii//libucosii_bsp.a(altera_avalon_jtag_uart_read.o)
 .debug_line    0x00012d35      0x4dc ../../bsp/mpsoc_hello_ucosii//libucosii_bsp.a(altera_avalon_jtag_uart_write.o)
 .debug_line    0x00013211      0x4c6 ../../bsp/mpsoc_hello_ucosii//libucosii_bsp.a(altera_avalon_mutex.o)
 .debug_line    0x000136d7      0x2de ../../bsp/mpsoc_hello_ucosii//libucosii_bsp.a(altera_avalon_timer_sc.o)
 .debug_line    0x000139b5      0x2a7 ../../bsp/mpsoc_hello_ucosii//libucosii_bsp.a(perf_print_formatted_report.o)
 .debug_line    0x00013c5c      0x2c9 ../../bsp/mpsoc_hello_ucosii//libucosii_bsp.a(alt_alarm_start.o)
 .debug_line    0x00013f25      0x1c3 ../../bsp/mpsoc_hello_ucosii//libucosii_bsp.a(alt_dcache_flush_all.o)
 .debug_line    0x000140e8      0x26a ../../bsp/mpsoc_hello_ucosii//libucosii_bsp.a(alt_dev_llist_insert.o)
 .debug_line    0x00014352       0x8b ../../bsp/mpsoc_hello_ucosii//libucosii_bsp.a(alt_do_ctors.o)
 .debug_line    0x000143dd       0x8b ../../bsp/mpsoc_hello_ucosii//libucosii_bsp.a(alt_do_dtors.o)
 .debug_line    0x00014468      0x2f2 ../../bsp/mpsoc_hello_ucosii//libucosii_bsp.a(alt_find_dev.o)
 .debug_line    0x0001475a      0x1c3 ../../bsp/mpsoc_hello_ucosii//libucosii_bsp.a(alt_icache_flush_all.o)
 .debug_line    0x0001491d      0x3ad ../../bsp/mpsoc_hello_ucosii//libucosii_bsp.a(alt_io_redirect.o)
 .debug_line    0x00014cca      0x30a ../../bsp/mpsoc_hello_ucosii//libucosii_bsp.a(alt_irq_register.o)
 .debug_line    0x00014fd4       0x72 ../../bsp/mpsoc_hello_ucosii//libucosii_bsp.a(alt_irq_vars.o)
 .debug_line    0x00015046      0x371 ../../bsp/mpsoc_hello_ucosii//libucosii_bsp.a(alt_open.o)
 .debug_line    0x000153b7      0x353 ../../bsp/mpsoc_hello_ucosii//libucosii_bsp.a(alt_tick.o)
 .debug_line    0x0001570a      0x1f5 ../../bsp/mpsoc_hello_ucosii//libucosii_bsp.a(altera_nios2_qsys_irq.o)
 .debug_line    0x000158ff       0x86 ../../bsp/mpsoc_hello_ucosii//libucosii_bsp.a(os_cpu_a.o)
 .debug_line    0x00015985      0x3dc ../../bsp/mpsoc_hello_ucosii//libucosii_bsp.a(os_cpu_c.o)
 .debug_line    0x00015d61      0x111 ../../bsp/mpsoc_hello_ucosii//libucosii_bsp.a(altera_avalon_performance_counter.o)
 .debug_line    0x00015e72      0x31d ../../bsp/mpsoc_hello_ucosii//libucosii_bsp.a(alt_find_file.o)
 .debug_line    0x0001618f      0x351 ../../bsp/mpsoc_hello_ucosii//libucosii_bsp.a(alt_get_fd.o)
 .debug_line    0x000164e0       0x6b ../../bsp/mpsoc_hello_ucosii//libucosii_bsp.a(alt_irq_entry.o)
 .debug_line    0x0001654b      0x2ca ../../bsp/mpsoc_hello_ucosii//libucosii_bsp.a(alt_irq_handler.o)
 .debug_line    0x00016815       0xab ../../bsp/mpsoc_hello_ucosii//libucosii_bsp.a(alt_exception_entry.o)
 .debug_line    0x000168c0      0x203 /opt/altera/13.0sp1/nios2eds/bin/gnu/H-i686-pc-linux-gnu/bin/../lib/gcc/nios2-elf/4.1.2/../../../../nios2-elf/lib/mno-hw-mul/libc.a(lib_a-atexit.o)
 .debug_line    0x00016ac3      0x23b /opt/altera/13.0sp1/nios2eds/bin/gnu/H-i686-pc-linux-gnu/bin/../lib/gcc/nios2-elf/4.1.2/../../../../nios2-elf/lib/mno-hw-mul/libc.a(lib_a-exit.o)
 .debug_line    0x00016cfe      0x2a2 /opt/altera/13.0sp1/nios2eds/bin/gnu/H-i686-pc-linux-gnu/bin/../lib/gcc/nios2-elf/4.1.2/../../../../nios2-elf/lib/mno-hw-mul/libc.a(lib_a-memcmp.o)
 .debug_line    0x00016fa0      0x29e /opt/altera/13.0sp1/nios2eds/bin/gnu/H-i686-pc-linux-gnu/bin/../lib/gcc/nios2-elf/4.1.2/../../../../nios2-elf/lib/mno-hw-mul/libc.a(lib_a-printf.o)
 .debug_line    0x0001723e     0x110f /opt/altera/13.0sp1/nios2eds/bin/gnu/H-i686-pc-linux-gnu/bin/../lib/gcc/nios2-elf/4.1.2/../../../../nios2-elf/lib/mno-hw-mul/libc.a(lib_a-vfprintf.o)
 .debug_line    0x0001834d      0x316 /opt/altera/13.0sp1/nios2eds/bin/gnu/H-i686-pc-linux-gnu/bin/../lib/gcc/nios2-elf/4.1.2/../../../../nios2-elf/lib/mno-hw-mul/libc.a(lib_a-__atexit.o)
 .debug_line    0x00018663      0x36a /opt/altera/13.0sp1/nios2eds/bin/gnu/H-i686-pc-linux-gnu/bin/../lib/gcc/nios2-elf/4.1.2/../../../../nios2-elf/lib/mno-hw-mul/libc.a(lib_a-__call_atexit.o)
 .debug_line    0x000189cd     0x1309 /opt/altera/13.0sp1/nios2eds/bin/gnu/H-i686-pc-linux-gnu/bin/../lib/gcc/nios2-elf/4.1.2/../../../../nios2-elf/lib/mno-hw-mul/libc.a(lib_a-dtoa.o)
 .debug_line    0x00019cd6      0x2cb /opt/altera/13.0sp1/nios2eds/bin/gnu/H-i686-pc-linux-gnu/bin/../lib/gcc/nios2-elf/4.1.2/../../../../nios2-elf/lib/mno-hw-mul/libc.a(lib_a-locale.o)
 .debug_line    0x00019fa1     0x125e /opt/altera/13.0sp1/nios2eds/bin/gnu/H-i686-pc-linux-gnu/bin/../lib/gcc/nios2-elf/4.1.2/../../../../nios2-elf/lib/mno-hw-mul/libc.a(lib_a-mprec.o)
 .debug_line    0x0001b1ff      0x225 /opt/altera/13.0sp1/nios2eds/bin/gnu/H-i686-pc-linux-gnu/bin/../lib/gcc/nios2-elf/4.1.2/../../../../nios2-elf/lib/mno-hw-mul/libc.a(lib_a-s_isinfd.o)
 .debug_line    0x0001b424      0x21d /opt/altera/13.0sp1/nios2eds/bin/gnu/H-i686-pc-linux-gnu/bin/../lib/gcc/nios2-elf/4.1.2/../../../../nios2-elf/lib/mno-hw-mul/libc.a(lib_a-s_isnand.o)
 .debug_line    0x0001b641      0x2d8 /opt/altera/13.0sp1/nios2eds/bin/gnu/H-i686-pc-linux-gnu/bin/../lib/gcc/nios2-elf/4.1.2/../../../../nios2-elf/lib/mno-hw-mul/libc.a(lib_a-strcmp.o)
 .debug_line    0x0001b919      0x25f /opt/altera/13.0sp1/nios2eds/bin/gnu/H-i686-pc-linux-gnu/bin/../lib/gcc/nios2-elf/4.1.2/../../../../nios2-elf/lib/mno-hw-mul/libc.a(lib_a-callocr.o)
 .debug_line    0x0001bb78      0x176 /opt/altera/13.0sp1/nios2eds/bin/gnu/H-i686-pc-linux-gnu/bin/../lib/gcc/nios2-elf/4.1.2/mno-hw-mul/libgcc.a(_fixunsdfsi.o)
 .debug_line    0x0001bcee      0x156 /opt/altera/13.0sp1/nios2eds/bin/gnu/H-i686-pc-linux-gnu/bin/../lib/gcc/nios2-elf/4.1.2/mno-hw-mul/libgcc.a(_floatundidf.o)
 .debug_line    0x0001be44      0x369 /opt/altera/13.0sp1/nios2eds/bin/gnu/H-i686-pc-linux-gnu/bin/../lib/gcc/nios2-elf/4.1.2/mno-hw-mul/libgcc.a(_udivdi3.o)
 .debug_line    0x0001c1ad      0x47c /opt/altera/13.0sp1/nios2eds/bin/gnu/H-i686-pc-linux-gnu/bin/../lib/gcc/nios2-elf/4.1.2/mno-hw-mul/libgcc.a(_umoddi3.o)
 .debug_line    0x0001c629      0x301 /opt/altera/13.0sp1/nios2eds/bin/gnu/H-i686-pc-linux-gnu/bin/../lib/gcc/nios2-elf/4.1.2/mno-hw-mul/libgcc.a(_div_df.o)
 .debug_line    0x0001c92a      0x129 /opt/altera/13.0sp1/nios2eds/bin/gnu/H-i686-pc-linux-gnu/bin/../lib/gcc/nios2-elf/4.1.2/mno-hw-mul/libgcc.a(_eq_df.o)
 .debug_line    0x0001ca53      0x129 /opt/altera/13.0sp1/nios2eds/bin/gnu/H-i686-pc-linux-gnu/bin/../lib/gcc/nios2-elf/4.1.2/mno-hw-mul/libgcc.a(_ne_df.o)
 .debug_line    0x0001cb7c      0x129 /opt/altera/13.0sp1/nios2eds/bin/gnu/H-i686-pc-linux-gnu/bin/../lib/gcc/nios2-elf/4.1.2/mno-hw-mul/libgcc.a(_gt_df.o)
 .debug_line    0x0001cca5      0x129 /opt/altera/13.0sp1/nios2eds/bin/gnu/H-i686-pc-linux-gnu/bin/../lib/gcc/nios2-elf/4.1.2/mno-hw-mul/libgcc.a(_ge_df.o)
 .debug_line    0x0001cdce      0x129 /opt/altera/13.0sp1/nios2eds/bin/gnu/H-i686-pc-linux-gnu/bin/../lib/gcc/nios2-elf/4.1.2/mno-hw-mul/libgcc.a(_lt_df.o)
 .debug_line    0x0001cef7      0x149 /opt/altera/13.0sp1/nios2eds/bin/gnu/H-i686-pc-linux-gnu/bin/../lib/gcc/nios2-elf/4.1.2/mno-hw-mul/libgcc.a(_df_to_si.o)
 .debug_line    0x0001d040      0x189 /opt/altera/13.0sp1/nios2eds/bin/gnu/H-i686-pc-linux-gnu/bin/../lib/gcc/nios2-elf/4.1.2/mno-hw-mul/libgcc.a(_usi_to_df.o)
 .debug_line    0x0001d1c9      0x187 /opt/altera/13.0sp1/nios2eds/bin/gnu/H-i686-pc-linux-gnu/bin/../lib/gcc/nios2-elf/4.1.2/mno-hw-mul/libgcc.a(_fpcmp_parts_df.o)
 .debug_line    0x0001d350      0x273 ../../bsp/mpsoc_hello_ucosii//libucosii_bsp.a(alt_exit.o)

.debug_frame    0x00000000     0x24ec
 *(.debug_frame)
 .debug_frame   0x00000000      0x158 obj/default/src/image_bare.o
 .debug_frame   0x00000158       0x70 /opt/altera/13.0sp1/nios2eds/bin/gnu/H-i686-pc-linux-gnu/bin/../lib/gcc/nios2-elf/4.1.2/mno-hw-mul/libgcc.a(_addsub_df.o)
 .debug_frame   0x000001c8       0x3c /opt/altera/13.0sp1/nios2eds/bin/gnu/H-i686-pc-linux-gnu/bin/../lib/gcc/nios2-elf/4.1.2/mno-hw-mul/libgcc.a(_mul_df.o)
 .debug_frame   0x00000204       0x30 /opt/altera/13.0sp1/nios2eds/bin/gnu/H-i686-pc-linux-gnu/bin/../lib/gcc/nios2-elf/4.1.2/mno-hw-mul/libgcc.a(_si_to_df.o)
 .debug_frame   0x00000234       0x28 /opt/altera/13.0sp1/nios2eds/bin/gnu/H-i686-pc-linux-gnu/bin/../lib/gcc/nios2-elf/4.1.2/mno-hw-mul/libgcc.a(_df_to_sf.o)
 .debug_frame   0x0000025c       0x70 /opt/altera/13.0sp1/nios2eds/bin/gnu/H-i686-pc-linux-gnu/bin/../lib/gcc/nios2-elf/4.1.2/mno-hw-mul/libgcc.a(lib2-divmod.o)
 .debug_frame   0x000002cc       0x20 /opt/altera/13.0sp1/nios2eds/bin/gnu/H-i686-pc-linux-gnu/bin/../lib/gcc/nios2-elf/4.1.2/mno-hw-mul/libgcc.a(lib2-mul.o)
 .debug_frame   0x000002ec       0x40 /opt/altera/13.0sp1/nios2eds/bin/gnu/H-i686-pc-linux-gnu/bin/../lib/gcc/nios2-elf/4.1.2/mno-hw-mul/libgcc.a(_muldi3.o)
 .debug_frame   0x0000032c       0x20 /opt/altera/13.0sp1/nios2eds/bin/gnu/H-i686-pc-linux-gnu/bin/../lib/gcc/nios2-elf/4.1.2/mno-hw-mul/libgcc.a(_clzsi2.o)
 .debug_frame   0x0000034c       0x28 /opt/altera/13.0sp1/nios2eds/bin/gnu/H-i686-pc-linux-gnu/bin/../lib/gcc/nios2-elf/4.1.2/mno-hw-mul/libgcc.a(_make_sf.o)
 .debug_frame   0x00000374       0x2c /opt/altera/13.0sp1/nios2eds/bin/gnu/H-i686-pc-linux-gnu/bin/../lib/gcc/nios2-elf/4.1.2/mno-hw-mul/libgcc.a(_pack_df.o)
 .debug_frame   0x000003a0       0x20 /opt/altera/13.0sp1/nios2eds/bin/gnu/H-i686-pc-linux-gnu/bin/../lib/gcc/nios2-elf/4.1.2/mno-hw-mul/libgcc.a(_unpack_df.o)
 .debug_frame   0x000003c0       0x20 /opt/altera/13.0sp1/nios2eds/bin/gnu/H-i686-pc-linux-gnu/bin/../lib/gcc/nios2-elf/4.1.2/mno-hw-mul/libgcc.a(_pack_sf.o)
 .debug_frame   0x000003e0       0x30 /opt/altera/13.0sp1/nios2eds/bin/gnu/H-i686-pc-linux-gnu/bin/../lib/gcc/nios2-elf/4.1.2/../../../../nios2-elf/lib/mno-hw-mul/libc.a(lib_a-malloc.o)
 .debug_frame   0x00000410       0x38 /opt/altera/13.0sp1/nios2eds/bin/gnu/H-i686-pc-linux-gnu/bin/../lib/gcc/nios2-elf/4.1.2/../../../../nios2-elf/lib/mno-hw-mul/libc.a(lib_a-mallocr.o)
 .debug_frame   0x00000448       0x20 /opt/altera/13.0sp1/nios2eds/bin/gnu/H-i686-pc-linux-gnu/bin/../lib/gcc/nios2-elf/4.1.2/../../../../nios2-elf/lib/mno-hw-mul/libc.a(lib_a-memcpy.o)
 .debug_frame   0x00000468       0x30 /opt/altera/13.0sp1/nios2eds/bin/gnu/H-i686-pc-linux-gnu/bin/../lib/gcc/nios2-elf/4.1.2/../../../../nios2-elf/lib/mno-hw-mul/libc.a(lib_a-putchar.o)
 .debug_frame   0x00000498       0x3c /opt/altera/13.0sp1/nios2eds/bin/gnu/H-i686-pc-linux-gnu/bin/../lib/gcc/nios2-elf/4.1.2/../../../../nios2-elf/lib/mno-hw-mul/libc.a(lib_a-puts.o)
 .debug_frame   0x000004d4       0x2c /opt/altera/13.0sp1/nios2eds/bin/gnu/H-i686-pc-linux-gnu/bin/../lib/gcc/nios2-elf/4.1.2/../../../../nios2-elf/lib/mno-hw-mul/libc.a(lib_a-sbrkr.o)
 .debug_frame   0x00000500       0x20 /opt/altera/13.0sp1/nios2eds/bin/gnu/H-i686-pc-linux-gnu/bin/../lib/gcc/nios2-elf/4.1.2/../../../../nios2-elf/lib/mno-hw-mul/libc.a(lib_a-strlen.o)
 .debug_frame   0x00000520       0x4c /opt/altera/13.0sp1/nios2eds/bin/gnu/H-i686-pc-linux-gnu/bin/../lib/gcc/nios2-elf/4.1.2/../../../../nios2-elf/lib/mno-hw-mul/libc.a(lib_a-freer.o)
 .debug_frame   0x0000056c       0x38 /opt/altera/13.0sp1/nios2eds/bin/gnu/H-i686-pc-linux-gnu/bin/../lib/gcc/nios2-elf/4.1.2/../../../../nios2-elf/lib/mno-hw-mul/libc.a(lib_a-fvwrite.o)
 .debug_frame   0x000005a4       0x20 /opt/altera/13.0sp1/nios2eds/bin/gnu/H-i686-pc-linux-gnu/bin/../lib/gcc/nios2-elf/4.1.2/../../../../nios2-elf/lib/mno-hw-mul/libc.a(lib_a-memchr.o)
 .debug_frame   0x000005c4       0x20 /opt/altera/13.0sp1/nios2eds/bin/gnu/H-i686-pc-linux-gnu/bin/../lib/gcc/nios2-elf/4.1.2/../../../../nios2-elf/lib/mno-hw-mul/libc.a(lib_a-memmove.o)
 .debug_frame   0x000005e4       0x4c /opt/altera/13.0sp1/nios2eds/bin/gnu/H-i686-pc-linux-gnu/bin/../lib/gcc/nios2-elf/4.1.2/../../../../nios2-elf/lib/mno-hw-mul/libc.a(lib_a-putc.o)
 .debug_frame   0x00000630       0x38 /opt/altera/13.0sp1/nios2eds/bin/gnu/H-i686-pc-linux-gnu/bin/../lib/gcc/nios2-elf/4.1.2/../../../../nios2-elf/lib/mno-hw-mul/libc.a(lib_a-reallocr.o)
 .debug_frame   0x00000668       0x3c /opt/altera/13.0sp1/nios2eds/bin/gnu/H-i686-pc-linux-gnu/bin/../lib/gcc/nios2-elf/4.1.2/../../../../nios2-elf/lib/mno-hw-mul/libc.a(lib_a-wbuf.o)
 .debug_frame   0x000006a4       0x2c /opt/altera/13.0sp1/nios2eds/bin/gnu/H-i686-pc-linux-gnu/bin/../lib/gcc/nios2-elf/4.1.2/../../../../nios2-elf/lib/mno-hw-mul/libc.a(lib_a-wsetup.o)
 .debug_frame   0x000006d0       0x40 /opt/altera/13.0sp1/nios2eds/bin/gnu/H-i686-pc-linux-gnu/bin/../lib/gcc/nios2-elf/4.1.2/../../../../nios2-elf/lib/mno-hw-mul/libc.a(lib_a-fflush.o)
 .debug_frame   0x00000710      0x118 /opt/altera/13.0sp1/nios2eds/bin/gnu/H-i686-pc-linux-gnu/bin/../lib/gcc/nios2-elf/4.1.2/../../../../nios2-elf/lib/mno-hw-mul/libc.a(lib_a-findfp.o)
 .debug_frame   0x00000828       0x60 /opt/altera/13.0sp1/nios2eds/bin/gnu/H-i686-pc-linux-gnu/bin/../lib/gcc/nios2-elf/4.1.2/../../../../nios2-elf/lib/mno-hw-mul/libc.a(lib_a-fwalk.o)
 .debug_frame   0x00000888       0x2c /opt/altera/13.0sp1/nios2eds/bin/gnu/H-i686-pc-linux-gnu/bin/../lib/gcc/nios2-elf/4.1.2/../../../../nios2-elf/lib/mno-hw-mul/libc.a(lib_a-makebuf.o)
 .debug_frame   0x000008b4       0x20 /opt/altera/13.0sp1/nios2eds/bin/gnu/H-i686-pc-linux-gnu/bin/../lib/gcc/nios2-elf/4.1.2/../../../../nios2-elf/lib/mno-hw-mul/libc.a(lib_a-memset.o)
 .debug_frame   0x000008d4       0x78 /opt/altera/13.0sp1/nios2eds/bin/gnu/H-i686-pc-linux-gnu/bin/../lib/gcc/nios2-elf/4.1.2/../../../../nios2-elf/lib/mno-hw-mul/libc.a(lib_a-stdio.o)
 .debug_frame   0x0000094c       0x2c /opt/altera/13.0sp1/nios2eds/bin/gnu/H-i686-pc-linux-gnu/bin/../lib/gcc/nios2-elf/4.1.2/../../../../nios2-elf/lib/mno-hw-mul/libc.a(lib_a-writer.o)
 .debug_frame   0x00000978       0x2c /opt/altera/13.0sp1/nios2eds/bin/gnu/H-i686-pc-linux-gnu/bin/../lib/gcc/nios2-elf/4.1.2/../../../../nios2-elf/lib/mno-hw-mul/libc.a(lib_a-closer.o)
 .debug_frame   0x000009a4       0x3c /opt/altera/13.0sp1/nios2eds/bin/gnu/H-i686-pc-linux-gnu/bin/../lib/gcc/nios2-elf/4.1.2/../../../../nios2-elf/lib/mno-hw-mul/libc.a(lib_a-fclose.o)
 .debug_frame   0x000009e0       0x2c /opt/altera/13.0sp1/nios2eds/bin/gnu/H-i686-pc-linux-gnu/bin/../lib/gcc/nios2-elf/4.1.2/../../../../nios2-elf/lib/mno-hw-mul/libc.a(lib_a-fstatr.o)
 .debug_frame   0x00000a0c       0x2c /opt/altera/13.0sp1/nios2eds/bin/gnu/H-i686-pc-linux-gnu/bin/../lib/gcc/nios2-elf/4.1.2/../../../../nios2-elf/lib/mno-hw-mul/libc.a(lib_a-isattyr.o)
 .debug_frame   0x00000a38       0x2c /opt/altera/13.0sp1/nios2eds/bin/gnu/H-i686-pc-linux-gnu/bin/../lib/gcc/nios2-elf/4.1.2/../../../../nios2-elf/lib/mno-hw-mul/libc.a(lib_a-lseekr.o)
 .debug_frame   0x00000a64       0x2c /opt/altera/13.0sp1/nios2eds/bin/gnu/H-i686-pc-linux-gnu/bin/../lib/gcc/nios2-elf/4.1.2/../../../../nios2-elf/lib/mno-hw-mul/libc.a(lib_a-readr.o)
 .debug_frame   0x00000a90       0x3c ../../bsp/mpsoc_hello_ucosii//libucosii_bsp.a(alt_close.o)
 .debug_frame   0x00000acc       0x20 ../../bsp/mpsoc_hello_ucosii//libucosii_bsp.a(alt_dev.o)
 .debug_frame   0x00000aec       0x28 ../../bsp/mpsoc_hello_ucosii//libucosii_bsp.a(alt_fstat.o)
 .debug_frame   0x00000b14       0x28 ../../bsp/mpsoc_hello_ucosii//libucosii_bsp.a(alt_isatty.o)
 .debug_frame   0x00000b3c       0x38 ../../bsp/mpsoc_hello_ucosii//libucosii_bsp.a(alt_load.o)
 .debug_frame   0x00000b74       0x2c ../../bsp/mpsoc_hello_ucosii//libucosii_bsp.a(alt_lseek.o)
 .debug_frame   0x00000ba0       0x2c ../../bsp/mpsoc_hello_ucosii//libucosii_bsp.a(alt_main.o)
 .debug_frame   0x00000bcc       0x40 ../../bsp/mpsoc_hello_ucosii//libucosii_bsp.a(alt_read.o)
 .debug_frame   0x00000c0c       0x2c ../../bsp/mpsoc_hello_ucosii//libucosii_bsp.a(alt_release_fd.o)
 .debug_frame   0x00000c38       0x20 ../../bsp/mpsoc_hello_ucosii//libucosii_bsp.a(alt_sbrk.o)
 .debug_frame   0x00000c58       0x40 ../../bsp/mpsoc_hello_ucosii//libucosii_bsp.a(alt_write.o)
 .debug_frame   0x00000c98       0x38 ../../bsp/mpsoc_hello_ucosii//libucosii_bsp.a(alt_env_lock.o)
 .debug_frame   0x00000cd0       0x3c ../../bsp/mpsoc_hello_ucosii//libucosii_bsp.a(alt_malloc_lock.o)
 .debug_frame   0x00000d0c      0x25c ../../bsp/mpsoc_hello_ucosii//libucosii_bsp.a(os_core.o)
 .debug_frame   0x00000f68       0x20 ../../bsp/mpsoc_hello_ucosii//libucosii_bsp.a(os_dbg.o)
 .debug_frame   0x00000f88      0x148 ../../bsp/mpsoc_hello_ucosii//libucosii_bsp.a(os_flag.o)
 .debug_frame   0x000010d0       0xa0 ../../bsp/mpsoc_hello_ucosii//libucosii_bsp.a(os_mem.o)
 .debug_frame   0x00001170      0x124 ../../bsp/mpsoc_hello_ucosii//libucosii_bsp.a(os_q.o)
 .debug_frame   0x00001294       0xd0 ../../bsp/mpsoc_hello_ucosii//libucosii_bsp.a(os_sem.o)
 .debug_frame   0x00001364      0x148 ../../bsp/mpsoc_hello_ucosii//libucosii_bsp.a(os_task.o)
 .debug_frame   0x000014ac       0x78 ../../bsp/mpsoc_hello_ucosii//libucosii_bsp.a(os_time.o)
 .debug_frame   0x00001524      0x184 ../../bsp/mpsoc_hello_ucosii//libucosii_bsp.a(os_tmr.o)
 .debug_frame   0x000016a8       0x70 ../../bsp/mpsoc_hello_ucosii//libucosii_bsp.a(alt_sys_init.o)
 .debug_frame   0x00001718       0x50 ../../bsp/mpsoc_hello_ucosii//libucosii_bsp.a(altera_avalon_jtag_uart_fd.o)
 .debug_frame   0x00001768       0x7c ../../bsp/mpsoc_hello_ucosii//libucosii_bsp.a(altera_avalon_jtag_uart_init.o)
 .debug_frame   0x000017e4       0x20 ../../bsp/mpsoc_hello_ucosii//libucosii_bsp.a(altera_avalon_jtag_uart_ioctl.o)
 .debug_frame   0x00001804       0x3c ../../bsp/mpsoc_hello_ucosii//libucosii_bsp.a(altera_avalon_jtag_uart_read.o)
 .debug_frame   0x00001840       0x38 ../../bsp/mpsoc_hello_ucosii//libucosii_bsp.a(altera_avalon_jtag_uart_write.o)
 .debug_frame   0x00001878       0xb0 ../../bsp/mpsoc_hello_ucosii//libucosii_bsp.a(altera_avalon_mutex.o)
 .debug_frame   0x00001928       0x38 ../../bsp/mpsoc_hello_ucosii//libucosii_bsp.a(altera_avalon_timer_sc.o)
 .debug_frame   0x00001960       0x3c ../../bsp/mpsoc_hello_ucosii//libucosii_bsp.a(perf_print_formatted_report.o)
 .debug_frame   0x0000199c       0x20 ../../bsp/mpsoc_hello_ucosii//libucosii_bsp.a(alt_alarm_start.o)
 .debug_frame   0x000019bc       0x20 ../../bsp/mpsoc_hello_ucosii//libucosii_bsp.a(alt_dcache_flush_all.o)
 .debug_frame   0x000019dc       0x28 ../../bsp/mpsoc_hello_ucosii//libucosii_bsp.a(alt_dev_llist_insert.o)
 .debug_frame   0x00001a04       0x2c ../../bsp/mpsoc_hello_ucosii//libucosii_bsp.a(alt_do_ctors.o)
 .debug_frame   0x00001a30       0x2c ../../bsp/mpsoc_hello_ucosii//libucosii_bsp.a(alt_do_dtors.o)
 .debug_frame   0x00001a5c       0x30 ../../bsp/mpsoc_hello_ucosii//libucosii_bsp.a(alt_find_dev.o)
 .debug_frame   0x00001a8c       0x20 ../../bsp/mpsoc_hello_ucosii//libucosii_bsp.a(alt_icache_flush_all.o)
 .debug_frame   0x00001aac       0x50 ../../bsp/mpsoc_hello_ucosii//libucosii_bsp.a(alt_io_redirect.o)
 .debug_frame   0x00001afc       0x20 ../../bsp/mpsoc_hello_ucosii//libucosii_bsp.a(alt_irq_register.o)
 .debug_frame   0x00001b1c       0x34 ../../bsp/mpsoc_hello_ucosii//libucosii_bsp.a(alt_open.o)
 .debug_frame   0x00001b50       0x3c ../../bsp/mpsoc_hello_ucosii//libucosii_bsp.a(alt_tick.o)
 .debug_frame   0x00001b8c       0x20 ../../bsp/mpsoc_hello_ucosii//libucosii_bsp.a(altera_nios2_qsys_irq.o)
 .debug_frame   0x00001bac       0xcc ../../bsp/mpsoc_hello_ucosii//libucosii_bsp.a(os_cpu_c.o)
 .debug_frame   0x00001c78       0x60 ../../bsp/mpsoc_hello_ucosii//libucosii_bsp.a(altera_avalon_performance_counter.o)
 .debug_frame   0x00001cd8       0x30 ../../bsp/mpsoc_hello_ucosii//libucosii_bsp.a(alt_find_file.o)
 .debug_frame   0x00001d08       0x2c ../../bsp/mpsoc_hello_ucosii//libucosii_bsp.a(alt_get_fd.o)
 .debug_frame   0x00001d34       0x28 ../../bsp/mpsoc_hello_ucosii//libucosii_bsp.a(alt_irq_handler.o)
 .debug_frame   0x00001d5c       0x20 /opt/altera/13.0sp1/nios2eds/bin/gnu/H-i686-pc-linux-gnu/bin/../lib/gcc/nios2-elf/4.1.2/../../../../nios2-elf/lib/mno-hw-mul/libc.a(lib_a-atexit.o)
 .debug_frame   0x00001d7c       0x28 /opt/altera/13.0sp1/nios2eds/bin/gnu/H-i686-pc-linux-gnu/bin/../lib/gcc/nios2-elf/4.1.2/../../../../nios2-elf/lib/mno-hw-mul/libc.a(lib_a-exit.o)
 .debug_frame   0x00001da4       0x20 /opt/altera/13.0sp1/nios2eds/bin/gnu/H-i686-pc-linux-gnu/bin/../lib/gcc/nios2-elf/4.1.2/../../../../nios2-elf/lib/mno-hw-mul/libc.a(lib_a-memcmp.o)
 .debug_frame   0x00001dc4       0x40 /opt/altera/13.0sp1/nios2eds/bin/gnu/H-i686-pc-linux-gnu/bin/../lib/gcc/nios2-elf/4.1.2/../../../../nios2-elf/lib/mno-hw-mul/libc.a(lib_a-printf.o)
 .debug_frame   0x00001e04       0x64 /opt/altera/13.0sp1/nios2eds/bin/gnu/H-i686-pc-linux-gnu/bin/../lib/gcc/nios2-elf/4.1.2/../../../../nios2-elf/lib/mno-hw-mul/libc.a(lib_a-vfprintf.o)
 .debug_frame   0x00001e68       0x34 /opt/altera/13.0sp1/nios2eds/bin/gnu/H-i686-pc-linux-gnu/bin/../lib/gcc/nios2-elf/4.1.2/../../../../nios2-elf/lib/mno-hw-mul/libc.a(lib_a-__atexit.o)
 .debug_frame   0x00001e9c       0x4c /opt/altera/13.0sp1/nios2eds/bin/gnu/H-i686-pc-linux-gnu/bin/../lib/gcc/nios2-elf/4.1.2/../../../../nios2-elf/lib/mno-hw-mul/libc.a(lib_a-__call_atexit.o)
 .debug_frame   0x00001ee8       0x64 /opt/altera/13.0sp1/nios2eds/bin/gnu/H-i686-pc-linux-gnu/bin/../lib/gcc/nios2-elf/4.1.2/../../../../nios2-elf/lib/mno-hw-mul/libc.a(lib_a-dtoa.o)
 .debug_frame   0x00001f4c       0x70 /opt/altera/13.0sp1/nios2eds/bin/gnu/H-i686-pc-linux-gnu/bin/../lib/gcc/nios2-elf/4.1.2/../../../../nios2-elf/lib/mno-hw-mul/libc.a(lib_a-locale.o)
 .debug_frame   0x00001fbc      0x228 /opt/altera/13.0sp1/nios2eds/bin/gnu/H-i686-pc-linux-gnu/bin/../lib/gcc/nios2-elf/4.1.2/../../../../nios2-elf/lib/mno-hw-mul/libc.a(lib_a-mprec.o)
 .debug_frame   0x000021e4       0x20 /opt/altera/13.0sp1/nios2eds/bin/gnu/H-i686-pc-linux-gnu/bin/../lib/gcc/nios2-elf/4.1.2/../../../../nios2-elf/lib/mno-hw-mul/libc.a(lib_a-s_isinfd.o)
 .debug_frame   0x00002204       0x20 /opt/altera/13.0sp1/nios2eds/bin/gnu/H-i686-pc-linux-gnu/bin/../lib/gcc/nios2-elf/4.1.2/../../../../nios2-elf/lib/mno-hw-mul/libc.a(lib_a-s_isnand.o)
 .debug_frame   0x00002224       0x20 /opt/altera/13.0sp1/nios2eds/bin/gnu/H-i686-pc-linux-gnu/bin/../lib/gcc/nios2-elf/4.1.2/../../../../nios2-elf/lib/mno-hw-mul/libc.a(lib_a-strcmp.o)
 .debug_frame   0x00002244       0x2c /opt/altera/13.0sp1/nios2eds/bin/gnu/H-i686-pc-linux-gnu/bin/../lib/gcc/nios2-elf/4.1.2/../../../../nios2-elf/lib/mno-hw-mul/libc.a(lib_a-callocr.o)
 .debug_frame   0x00002270       0x30 /opt/altera/13.0sp1/nios2eds/bin/gnu/H-i686-pc-linux-gnu/bin/../lib/gcc/nios2-elf/4.1.2/mno-hw-mul/libgcc.a(_fixunsdfsi.o)
 .debug_frame   0x000022a0       0x30 /opt/altera/13.0sp1/nios2eds/bin/gnu/H-i686-pc-linux-gnu/bin/../lib/gcc/nios2-elf/4.1.2/mno-hw-mul/libgcc.a(_floatundidf.o)
 .debug_frame   0x000022d0       0x38 /opt/altera/13.0sp1/nios2eds/bin/gnu/H-i686-pc-linux-gnu/bin/../lib/gcc/nios2-elf/4.1.2/mno-hw-mul/libgcc.a(_udivdi3.o)
 .debug_frame   0x00002308       0x38 /opt/altera/13.0sp1/nios2eds/bin/gnu/H-i686-pc-linux-gnu/bin/../lib/gcc/nios2-elf/4.1.2/mno-hw-mul/libgcc.a(_umoddi3.o)
 .debug_frame   0x00002340       0x30 /opt/altera/13.0sp1/nios2eds/bin/gnu/H-i686-pc-linux-gnu/bin/../lib/gcc/nios2-elf/4.1.2/mno-hw-mul/libgcc.a(_div_df.o)
 .debug_frame   0x00002370       0x2c /opt/altera/13.0sp1/nios2eds/bin/gnu/H-i686-pc-linux-gnu/bin/../lib/gcc/nios2-elf/4.1.2/mno-hw-mul/libgcc.a(_eq_df.o)
 .debug_frame   0x0000239c       0x2c /opt/altera/13.0sp1/nios2eds/bin/gnu/H-i686-pc-linux-gnu/bin/../lib/gcc/nios2-elf/4.1.2/mno-hw-mul/libgcc.a(_ne_df.o)
 .debug_frame   0x000023c8       0x2c /opt/altera/13.0sp1/nios2eds/bin/gnu/H-i686-pc-linux-gnu/bin/../lib/gcc/nios2-elf/4.1.2/mno-hw-mul/libgcc.a(_gt_df.o)
 .debug_frame   0x000023f4       0x2c /opt/altera/13.0sp1/nios2eds/bin/gnu/H-i686-pc-linux-gnu/bin/../lib/gcc/nios2-elf/4.1.2/mno-hw-mul/libgcc.a(_ge_df.o)
 .debug_frame   0x00002420       0x2c /opt/altera/13.0sp1/nios2eds/bin/gnu/H-i686-pc-linux-gnu/bin/../lib/gcc/nios2-elf/4.1.2/mno-hw-mul/libgcc.a(_lt_df.o)
 .debug_frame   0x0000244c       0x28 /opt/altera/13.0sp1/nios2eds/bin/gnu/H-i686-pc-linux-gnu/bin/../lib/gcc/nios2-elf/4.1.2/mno-hw-mul/libgcc.a(_df_to_si.o)
 .debug_frame   0x00002474       0x38 /opt/altera/13.0sp1/nios2eds/bin/gnu/H-i686-pc-linux-gnu/bin/../lib/gcc/nios2-elf/4.1.2/mno-hw-mul/libgcc.a(_usi_to_df.o)
 .debug_frame   0x000024ac       0x20 /opt/altera/13.0sp1/nios2eds/bin/gnu/H-i686-pc-linux-gnu/bin/../lib/gcc/nios2-elf/4.1.2/mno-hw-mul/libgcc.a(_fpcmp_parts_df.o)
 .debug_frame   0x000024cc       0x20 ../../bsp/mpsoc_hello_ucosii//libucosii_bsp.a(alt_exit.o)

.debug_str      0x00000000     0x4506
 *(.debug_str)
 .debug_str     0x00000000      0x1f3 obj/default/src/image_bare.o
                                0x262 (size before relaxing)
 .debug_str     0x000001f3      0x1bc /opt/altera/13.0sp1/nios2eds/bin/gnu/H-i686-pc-linux-gnu/bin/../lib/gcc/nios2-elf/4.1.2/mno-hw-mul/libgcc.a(_addsub_df.o)
                                0x274 (size before relaxing)
 .debug_str     0x000003af       0x40 /opt/altera/13.0sp1/nios2eds/bin/gnu/H-i686-pc-linux-gnu/bin/../lib/gcc/nios2-elf/4.1.2/mno-hw-mul/libgcc.a(_mul_df.o)
                                0x246 (size before relaxing)
 .debug_str     0x000003ef       0x18 /opt/altera/13.0sp1/nios2eds/bin/gnu/H-i686-pc-linux-gnu/bin/../lib/gcc/nios2-elf/4.1.2/mno-hw-mul/libgcc.a(_si_to_df.o)
                                0x1e3 (size before relaxing)
 .debug_str     0x00000407       0x1b /opt/altera/13.0sp1/nios2eds/bin/gnu/H-i686-pc-linux-gnu/bin/../lib/gcc/nios2-elf/4.1.2/mno-hw-mul/libgcc.a(_df_to_sf.o)
                                0x203 (size before relaxing)
 .debug_str     0x00000000      0x1a8 /opt/altera/13.0sp1/nios2eds/bin/gnu/H-i686-pc-linux-gnu/bin/../lib/gcc/nios2-elf/4.1.2/mno-hw-mul/libgcc.a(_thenan_df.o)
 .debug_str     0x00000422       0x93 /opt/altera/13.0sp1/nios2eds/bin/gnu/H-i686-pc-linux-gnu/bin/../lib/gcc/nios2-elf/4.1.2/mno-hw-mul/libgcc.a(lib2-divmod.o)
                                0x1b9 (size before relaxing)
 .debug_str     0x000004b5       0x37 /opt/altera/13.0sp1/nios2eds/bin/gnu/H-i686-pc-linux-gnu/bin/../lib/gcc/nios2-elf/4.1.2/mno-hw-mul/libgcc.a(lib2-mul.o)
                                0x17a (size before relaxing)
 .debug_str     0x000004ec       0x62 /opt/altera/13.0sp1/nios2eds/bin/gnu/H-i686-pc-linux-gnu/bin/../lib/gcc/nios2-elf/4.1.2/mno-hw-mul/libgcc.a(_muldi3.o)
                                0x1b1 (size before relaxing)
 .debug_str     0x0000054e       0x20 /opt/altera/13.0sp1/nios2eds/bin/gnu/H-i686-pc-linux-gnu/bin/../lib/gcc/nios2-elf/4.1.2/mno-hw-mul/libgcc.a(_clzsi2.o)
                                0x183 (size before relaxing)
 .debug_str     0x0000056e       0x27 /opt/altera/13.0sp1/nios2eds/bin/gnu/H-i686-pc-linux-gnu/bin/../lib/gcc/nios2-elf/4.1.2/mno-hw-mul/libgcc.a(_make_sf.o)
                                0x1be (size before relaxing)
 .debug_str     0x00000595       0x10 /opt/altera/13.0sp1/nios2eds/bin/gnu/H-i686-pc-linux-gnu/bin/../lib/gcc/nios2-elf/4.1.2/mno-hw-mul/libgcc.a(_pack_df.o)
                                0x20b (size before relaxing)
 .debug_str     0x000005a5        0xb /opt/altera/13.0sp1/nios2eds/bin/gnu/H-i686-pc-linux-gnu/bin/../lib/gcc/nios2-elf/4.1.2/mno-hw-mul/libgcc.a(_unpack_df.o)
                                0x1ed (size before relaxing)
 .debug_str     0x00000000      0x166 /opt/altera/13.0sp1/nios2eds/bin/gnu/H-i686-pc-linux-gnu/bin/../lib/gcc/nios2-elf/4.1.2/mno-hw-mul/libgcc.a(_clz.o)
 .debug_str     0x000005b0        0x9 /opt/altera/13.0sp1/nios2eds/bin/gnu/H-i686-pc-linux-gnu/bin/../lib/gcc/nios2-elf/4.1.2/mno-hw-mul/libgcc.a(_pack_sf.o)
                                0x205 (size before relaxing)
 .debug_str     0x000005b9      0x41a /opt/altera/13.0sp1/nios2eds/bin/gnu/H-i686-pc-linux-gnu/bin/../lib/gcc/nios2-elf/4.1.2/../../../../nios2-elf/lib/mno-hw-mul/libc.a(lib_a-malloc.o)
                                0x52f (size before relaxing)
 .debug_str     0x000009d3      0x20b /opt/altera/13.0sp1/nios2eds/bin/gnu/H-i686-pc-linux-gnu/bin/../lib/gcc/nios2-elf/4.1.2/../../../../nios2-elf/lib/mno-hw-mul/libc.a(lib_a-mallocr.o)
                                0x704 (size before relaxing)
 .debug_str     0x00000bde      0x108 /opt/altera/13.0sp1/nios2eds/bin/gnu/H-i686-pc-linux-gnu/bin/../lib/gcc/nios2-elf/4.1.2/../../../../nios2-elf/lib/mno-hw-mul/libc.a(lib_a-memcpy.o)
                                0x13b (size before relaxing)
 .debug_str     0x00000ce6       0xec /opt/altera/13.0sp1/nios2eds/bin/gnu/H-i686-pc-linux-gnu/bin/../lib/gcc/nios2-elf/4.1.2/../../../../nios2-elf/lib/mno-hw-mul/libc.a(lib_a-putchar.o)
                                0x522 (size before relaxing)
 .debug_str     0x00000dd2       0x84 /opt/altera/13.0sp1/nios2eds/bin/gnu/H-i686-pc-linux-gnu/bin/../lib/gcc/nios2-elf/4.1.2/../../../../nios2-elf/lib/mno-hw-mul/libc.a(lib_a-puts.o)
                                0x55c (size before relaxing)
 .debug_str     0x00000e56       0xee /opt/altera/13.0sp1/nios2eds/bin/gnu/H-i686-pc-linux-gnu/bin/../lib/gcc/nios2-elf/4.1.2/../../../../nios2-elf/lib/mno-hw-mul/libc.a(lib_a-sbrkr.o)
                                0x51e (size before relaxing)
 .debug_str     0x00000f44       0x52 /opt/altera/13.0sp1/nios2eds/bin/gnu/H-i686-pc-linux-gnu/bin/../lib/gcc/nios2-elf/4.1.2/../../../../nios2-elf/lib/mno-hw-mul/libc.a(lib_a-strlen.o)
                                0x190 (size before relaxing)
 .debug_str     0x00000f96       0x3c /opt/altera/13.0sp1/nios2eds/bin/gnu/H-i686-pc-linux-gnu/bin/../lib/gcc/nios2-elf/4.1.2/../../../../nios2-elf/lib/mno-hw-mul/libc.a(lib_a-freer.o)
                                0x656 (size before relaxing)
 .debug_str     0x00000fd2       0x69 /opt/altera/13.0sp1/nios2eds/bin/gnu/H-i686-pc-linux-gnu/bin/../lib/gcc/nios2-elf/4.1.2/../../../../nios2-elf/lib/mno-hw-mul/libc.a(lib_a-fvwrite.o)
                                0x576 (size before relaxing)
 .debug_str     0x0000103b       0x5c /opt/altera/13.0sp1/nios2eds/bin/gnu/H-i686-pc-linux-gnu/bin/../lib/gcc/nios2-elf/4.1.2/../../../../nios2-elf/lib/mno-hw-mul/libc.a(lib_a-impure.o)
                                0x52d (size before relaxing)
 .debug_str     0x00001097       0x40 /opt/altera/13.0sp1/nios2eds/bin/gnu/H-i686-pc-linux-gnu/bin/../lib/gcc/nios2-elf/4.1.2/../../../../nios2-elf/lib/mno-hw-mul/libc.a(lib_a-int_errno.o)
                                0x176 (size before relaxing)
 .debug_str     0x000010d7       0x5a /opt/altera/13.0sp1/nios2eds/bin/gnu/H-i686-pc-linux-gnu/bin/../lib/gcc/nios2-elf/4.1.2/../../../../nios2-elf/lib/mno-hw-mul/libc.a(lib_a-memchr.o)
                                0x19e (size before relaxing)
 .debug_str     0x00001131       0x50 /opt/altera/13.0sp1/nios2eds/bin/gnu/H-i686-pc-linux-gnu/bin/../lib/gcc/nios2-elf/4.1.2/../../../../nios2-elf/lib/mno-hw-mul/libc.a(lib_a-memmove.o)
                                0x1b0 (size before relaxing)
 .debug_str     0x00001181       0x48 /opt/altera/13.0sp1/nios2eds/bin/gnu/H-i686-pc-linux-gnu/bin/../lib/gcc/nios2-elf/4.1.2/../../../../nios2-elf/lib/mno-hw-mul/libc.a(lib_a-putc.o)
                                0x525 (size before relaxing)
 .debug_str     0x000011c9       0x54 /opt/altera/13.0sp1/nios2eds/bin/gnu/H-i686-pc-linux-gnu/bin/../lib/gcc/nios2-elf/4.1.2/../../../../nios2-elf/lib/mno-hw-mul/libc.a(lib_a-reallocr.o)
                                0x5d6 (size before relaxing)
 .debug_str     0x0000121d       0x4d /opt/altera/13.0sp1/nios2eds/bin/gnu/H-i686-pc-linux-gnu/bin/../lib/gcc/nios2-elf/4.1.2/../../../../nios2-elf/lib/mno-hw-mul/libc.a(lib_a-wbuf.o)
                                0x523 (size before relaxing)
 .debug_str     0x0000126a       0x49 /opt/altera/13.0sp1/nios2eds/bin/gnu/H-i686-pc-linux-gnu/bin/../lib/gcc/nios2-elf/4.1.2/../../../../nios2-elf/lib/mno-hw-mul/libc.a(lib_a-wsetup.o)
                                0x51f (size before relaxing)
 .debug_str     0x000012b3       0x55 /opt/altera/13.0sp1/nios2eds/bin/gnu/H-i686-pc-linux-gnu/bin/../lib/gcc/nios2-elf/4.1.2/../../../../nios2-elf/lib/mno-hw-mul/libc.a(lib_a-fflush.o)
                                0x545 (size before relaxing)
 .debug_str     0x00001308      0x105 /opt/altera/13.0sp1/nios2eds/bin/gnu/H-i686-pc-linux-gnu/bin/../lib/gcc/nios2-elf/4.1.2/../../../../nios2-elf/lib/mno-hw-mul/libc.a(lib_a-findfp.o)
                                0x607 (size before relaxing)
 .debug_str     0x0000140d       0x61 /opt/altera/13.0sp1/nios2eds/bin/gnu/H-i686-pc-linux-gnu/bin/../lib/gcc/nios2-elf/4.1.2/../../../../nios2-elf/lib/mno-hw-mul/libc.a(lib_a-fwalk.o)
                                0x548 (size before relaxing)
 .debug_str     0x0000146e      0x126 /opt/altera/13.0sp1/nios2eds/bin/gnu/H-i686-pc-linux-gnu/bin/../lib/gcc/nios2-elf/4.1.2/../../../../nios2-elf/lib/mno-hw-mul/libc.a(lib_a-makebuf.o)
                                0x619 (size before relaxing)
 .debug_str     0x00001594       0x45 /opt/altera/13.0sp1/nios2eds/bin/gnu/H-i686-pc-linux-gnu/bin/../lib/gcc/nios2-elf/4.1.2/../../../../nios2-elf/lib/mno-hw-mul/libc.a(lib_a-memset.o)
                                0x191 (size before relaxing)
 .debug_str     0x000015d9       0x65 /opt/altera/13.0sp1/nios2eds/bin/gnu/H-i686-pc-linux-gnu/bin/../lib/gcc/nios2-elf/4.1.2/../../../../nios2-elf/lib/mno-hw-mul/libc.a(lib_a-stdio.o)
                                0x544 (size before relaxing)
 .debug_str     0x0000163e       0x4f /opt/altera/13.0sp1/nios2eds/bin/gnu/H-i686-pc-linux-gnu/bin/../lib/gcc/nios2-elf/4.1.2/../../../../nios2-elf/lib/mno-hw-mul/libc.a(lib_a-writer.o)
                                0x521 (size before relaxing)
 .debug_str     0x0000168d       0x46 /opt/altera/13.0sp1/nios2eds/bin/gnu/H-i686-pc-linux-gnu/bin/../lib/gcc/nios2-elf/4.1.2/../../../../nios2-elf/lib/mno-hw-mul/libc.a(lib_a-closer.o)
                                0x511 (size before relaxing)
 .debug_str     0x000016d3       0x53 /opt/altera/13.0sp1/nios2eds/bin/gnu/H-i686-pc-linux-gnu/bin/../lib/gcc/nios2-elf/4.1.2/../../../../nios2-elf/lib/mno-hw-mul/libc.a(lib_a-fclose.o)
                                0x529 (size before relaxing)
 .debug_str     0x00001726       0x4c /opt/altera/13.0sp1/nios2eds/bin/gnu/H-i686-pc-linux-gnu/bin/../lib/gcc/nios2-elf/4.1.2/../../../../nios2-elf/lib/mno-hw-mul/libc.a(lib_a-fstatr.o)
                                0x604 (size before relaxing)
 .debug_str     0x00001772       0x48 /opt/altera/13.0sp1/nios2eds/bin/gnu/H-i686-pc-linux-gnu/bin/../lib/gcc/nios2-elf/4.1.2/../../../../nios2-elf/lib/mno-hw-mul/libc.a(lib_a-isattyr.o)
                                0x513 (size before relaxing)
 .debug_str     0x000017ba       0x46 /opt/altera/13.0sp1/nios2eds/bin/gnu/H-i686-pc-linux-gnu/bin/../lib/gcc/nios2-elf/4.1.2/../../../../nios2-elf/lib/mno-hw-mul/libc.a(lib_a-lseekr.o)
                                0x51f (size before relaxing)
 .debug_str     0x00001800       0x44 /opt/altera/13.0sp1/nios2eds/bin/gnu/H-i686-pc-linux-gnu/bin/../lib/gcc/nios2-elf/4.1.2/../../../../nios2-elf/lib/mno-hw-mul/libc.a(lib_a-readr.o)
                                0x51f (size before relaxing)
 .debug_str     0x00001844       0xf2 ../../bsp/mpsoc_hello_ucosii//libucosii_bsp.a(alt_close.o)
                                0x20f (size before relaxing)
 .debug_str     0x00001936       0xc4 ../../bsp/mpsoc_hello_ucosii//libucosii_bsp.a(alt_dev.o)
                                0x37d (size before relaxing)
 .debug_str     0x000019fa       0x14 ../../bsp/mpsoc_hello_ucosii//libucosii_bsp.a(alt_errno.o)
                                 0xf8 (size before relaxing)
 .debug_str     0x00001a0e       0x14 ../../bsp/mpsoc_hello_ucosii//libucosii_bsp.a(alt_fstat.o)
                                0x2f0 (size before relaxing)
 .debug_str     0x00001a22       0x1c ../../bsp/mpsoc_hello_ucosii//libucosii_bsp.a(alt_isatty.o)
                                0x2f8 (size before relaxing)
 .debug_str     0x00001a3e       0xe9 ../../bsp/mpsoc_hello_ucosii//libucosii_bsp.a(alt_load.o)
                                0x1c5 (size before relaxing)
 .debug_str     0x00001b27       0x14 ../../bsp/mpsoc_hello_ucosii//libucosii_bsp.a(alt_lseek.o)
                                0x215 (size before relaxing)
 .debug_str     0x00001b3b       0x5d ../../bsp/mpsoc_hello_ucosii//libucosii_bsp.a(alt_main.o)
                                0x234 (size before relaxing)
 .debug_str     0x00001b98       0x13 ../../bsp/mpsoc_hello_ucosii//libucosii_bsp.a(alt_read.o)
                                0x2fb (size before relaxing)
 .debug_str     0x00001bab       0x28 ../../bsp/mpsoc_hello_ucosii//libucosii_bsp.a(alt_release_fd.o)
                                0x1f9 (size before relaxing)
 .debug_str     0x00001bd3       0x9d ../../bsp/mpsoc_hello_ucosii//libucosii_bsp.a(alt_sbrk.o)
                                0x1b0 (size before relaxing)
 .debug_str     0x00001c70       0x14 ../../bsp/mpsoc_hello_ucosii//libucosii_bsp.a(alt_write.o)
                                0x2fc (size before relaxing)
 .debug_str     0x00001c84      0x24d ../../bsp/mpsoc_hello_ucosii//libucosii_bsp.a(alt_env_lock.o)
                                0x77b (size before relaxing)
 .debug_str     0x00001ed1       0x54 ../../bsp/mpsoc_hello_ucosii//libucosii_bsp.a(alt_malloc_lock.o)
                                0x7dd (size before relaxing)
 .debug_str     0x00001f25      0x669 ../../bsp/mpsoc_hello_ucosii//libucosii_bsp.a(os_core.o)
                                0xa5d (size before relaxing)
 .debug_str     0x0000258e      0x2e5 ../../bsp/mpsoc_hello_ucosii//libucosii_bsp.a(os_dbg.o)
                                0x9cc (size before relaxing)
 .debug_str     0x00002873      0x136 ../../bsp/mpsoc_hello_ucosii//libucosii_bsp.a(os_flag.o)
                                0x5c6 (size before relaxing)
 .debug_str     0x000029a9       0xcf ../../bsp/mpsoc_hello_ucosii//libucosii_bsp.a(os_mem.o)
                                0x2cf (size before relaxing)
 .debug_str     0x00002a78       0xc0 ../../bsp/mpsoc_hello_ucosii//libucosii_bsp.a(os_q.o)
                                0x549 (size before relaxing)
 .debug_str     0x00002b38       0x77 ../../bsp/mpsoc_hello_ucosii//libucosii_bsp.a(os_sem.o)
                                0x4d2 (size before relaxing)
 .debug_str     0x00002baf      0x118 ../../bsp/mpsoc_hello_ucosii//libucosii_bsp.a(os_task.o)
                                0x5d5 (size before relaxing)
 .debug_str     0x00002cc7       0x6d ../../bsp/mpsoc_hello_ucosii//libucosii_bsp.a(os_time.o)
                                0x475 (size before relaxing)
 .debug_str     0x00002d34      0x123 ../../bsp/mpsoc_hello_ucosii//libucosii_bsp.a(os_tmr.o)
                                0x432 (size before relaxing)
 .debug_str     0x00002e57      0x21c ../../bsp/mpsoc_hello_ucosii//libucosii_bsp.a(alt_sys_init.o)
                                0x521 (size before relaxing)
 .debug_str     0x00003073       0xac ../../bsp/mpsoc_hello_ucosii//libucosii_bsp.a(altera_avalon_jtag_uart_fd.o)
                                0x468 (size before relaxing)
 .debug_str     0x0000311f       0xf6 ../../bsp/mpsoc_hello_ucosii//libucosii_bsp.a(altera_avalon_jtag_uart_init.o)
                                0x42f (size before relaxing)
 .debug_str     0x00003215       0x4a ../../bsp/mpsoc_hello_ucosii//libucosii_bsp.a(altera_avalon_jtag_uart_ioctl.o)
                                0x357 (size before relaxing)
 .debug_str     0x0000325f       0x63 ../../bsp/mpsoc_hello_ucosii//libucosii_bsp.a(altera_avalon_jtag_uart_read.o)
                                0x3ca (size before relaxing)
 .debug_str     0x000032c2       0x4a ../../bsp/mpsoc_hello_ucosii//libucosii_bsp.a(altera_avalon_jtag_uart_write.o)
                                0x3cb (size before relaxing)
 .debug_str     0x0000330c       0xf8 ../../bsp/mpsoc_hello_ucosii//libucosii_bsp.a(altera_avalon_mutex.o)
                                0x336 (size before relaxing)
 .debug_str     0x00003404       0x66 ../../bsp/mpsoc_hello_ucosii//libucosii_bsp.a(altera_avalon_timer_sc.o)
                                0x218 (size before relaxing)
 .debug_str     0x0000346a       0xe6 ../../bsp/mpsoc_hello_ucosii//libucosii_bsp.a(perf_print_formatted_report.o)
                                0x1d1 (size before relaxing)
 .debug_str     0x00003550       0x5f ../../bsp/mpsoc_hello_ucosii//libucosii_bsp.a(alt_alarm_start.o)
                                0x252 (size before relaxing)
 .debug_str     0x000035af       0x34 ../../bsp/mpsoc_hello_ucosii//libucosii_bsp.a(alt_dcache_flush_all.o)
                                0x108 (size before relaxing)
 .debug_str     0x000035e3       0x42 ../../bsp/mpsoc_hello_ucosii//libucosii_bsp.a(alt_dev_llist_insert.o)
                                0x17f (size before relaxing)
 .debug_str     0x00003625       0x48 ../../bsp/mpsoc_hello_ucosii//libucosii_bsp.a(alt_do_ctors.o)
                                 0x98 (size before relaxing)
 .debug_str     0x0000366d       0x4c ../../bsp/mpsoc_hello_ucosii//libucosii_bsp.a(alt_do_dtors.o)
                                 0x97 (size before relaxing)
 .debug_str     0x000036b9       0x24 ../../bsp/mpsoc_hello_ucosii//libucosii_bsp.a(alt_find_dev.o)
                                0x1f0 (size before relaxing)
 .debug_str     0x000036dd       0x34 ../../bsp/mpsoc_hello_ucosii//libucosii_bsp.a(alt_icache_flush_all.o)
                                0x108 (size before relaxing)
 .debug_str     0x00003711       0x56 ../../bsp/mpsoc_hello_ucosii//libucosii_bsp.a(alt_io_redirect.o)
                                0x31a (size before relaxing)
 .debug_str     0x00003767       0x77 ../../bsp/mpsoc_hello_ucosii//libucosii_bsp.a(alt_irq_register.o)
                                0x1e3 (size before relaxing)
 .debug_str     0x000037de       0x17 ../../bsp/mpsoc_hello_ucosii//libucosii_bsp.a(alt_irq_vars.o)
                                0x102 (size before relaxing)
 .debug_str     0x000037f5       0x29 ../../bsp/mpsoc_hello_ucosii//libucosii_bsp.a(alt_open.o)
                                0x247 (size before relaxing)
 .debug_str     0x0000381e       0x4a ../../bsp/mpsoc_hello_ucosii//libucosii_bsp.a(alt_tick.o)
                                0x233 (size before relaxing)
 .debug_str     0x00003868       0x3b ../../bsp/mpsoc_hello_ucosii//libucosii_bsp.a(altera_nios2_qsys_irq.o)
                                0x138 (size before relaxing)
 .debug_str     0x000038a3       0xe4 ../../bsp/mpsoc_hello_ucosii//libucosii_bsp.a(os_cpu_c.o)
                                0x7f9 (size before relaxing)
 .debug_str     0x00003987       0xbe ../../bsp/mpsoc_hello_ucosii//libucosii_bsp.a(altera_avalon_performance_counter.o)
                                0x197 (size before relaxing)
 .debug_str     0x00003a45       0x26 ../../bsp/mpsoc_hello_ucosii//libucosii_bsp.a(alt_find_file.o)
                                0x1fe (size before relaxing)
 .debug_str     0x00003a6b       0x30 ../../bsp/mpsoc_hello_ucosii//libucosii_bsp.a(alt_get_fd.o)
                                0x29c (size before relaxing)
 .debug_str     0x00003a9b       0x3a ../../bsp/mpsoc_hello_ucosii//libucosii_bsp.a(alt_irq_handler.o)
                                0x193 (size before relaxing)
 .debug_str     0x00003ad5       0x3e /opt/altera/13.0sp1/nios2eds/bin/gnu/H-i686-pc-linux-gnu/bin/../lib/gcc/nios2-elf/4.1.2/../../../../nios2-elf/lib/mno-hw-mul/libc.a(lib_a-atexit.o)
                                0x1d2 (size before relaxing)
 .debug_str     0x00003b13       0x3c /opt/altera/13.0sp1/nios2eds/bin/gnu/H-i686-pc-linux-gnu/bin/../lib/gcc/nios2-elf/4.1.2/../../../../nios2-elf/lib/mno-hw-mul/libc.a(lib_a-exit.o)
                                0x51f (size before relaxing)
 .debug_str     0x00003b4f       0x45 /opt/altera/13.0sp1/nios2eds/bin/gnu/H-i686-pc-linux-gnu/bin/../lib/gcc/nios2-elf/4.1.2/../../../../nios2-elf/lib/mno-hw-mul/libc.a(lib_a-memcmp.o)
                                0x17d (size before relaxing)
 .debug_str     0x00003b94       0x47 /opt/altera/13.0sp1/nios2eds/bin/gnu/H-i686-pc-linux-gnu/bin/../lib/gcc/nios2-elf/4.1.2/../../../../nios2-elf/lib/mno-hw-mul/libc.a(lib_a-printf.o)
                                0x536 (size before relaxing)
 .debug_str     0x00003bdb      0x17c /opt/altera/13.0sp1/nios2eds/bin/gnu/H-i686-pc-linux-gnu/bin/../lib/gcc/nios2-elf/4.1.2/../../../../nios2-elf/lib/mno-hw-mul/libc.a(lib_a-vfprintf.o)
                                0x70b (size before relaxing)
 .debug_str     0x00003d57       0x54 /opt/altera/13.0sp1/nios2eds/bin/gnu/H-i686-pc-linux-gnu/bin/../lib/gcc/nios2-elf/4.1.2/../../../../nios2-elf/lib/mno-hw-mul/libc.a(lib_a-__atexit.o)
                                0x537 (size before relaxing)
 .debug_str     0x00003dab       0x7e /opt/altera/13.0sp1/nios2eds/bin/gnu/H-i686-pc-linux-gnu/bin/../lib/gcc/nios2-elf/4.1.2/../../../../nios2-elf/lib/mno-hw-mul/libc.a(lib_a-__call_atexit.o)
                                0x561 (size before relaxing)
 .debug_str     0x00003e29      0x105 /opt/altera/13.0sp1/nios2eds/bin/gnu/H-i686-pc-linux-gnu/bin/../lib/gcc/nios2-elf/4.1.2/../../../../nios2-elf/lib/mno-hw-mul/libc.a(lib_a-dtoa.o)
                                0x614 (size before relaxing)
 .debug_str     0x00003f2e      0x238 /opt/altera/13.0sp1/nios2eds/bin/gnu/H-i686-pc-linux-gnu/bin/../lib/gcc/nios2-elf/4.1.2/../../../../nios2-elf/lib/mno-hw-mul/libc.a(lib_a-locale.o)
                                0x6bc (size before relaxing)
 .debug_str     0x00004166       0xfb /opt/altera/13.0sp1/nios2eds/bin/gnu/H-i686-pc-linux-gnu/bin/../lib/gcc/nios2-elf/4.1.2/../../../../nios2-elf/lib/mno-hw-mul/libc.a(lib_a-mprec.o)
                                0x621 (size before relaxing)
 .debug_str     0x00004261       0xef /opt/altera/13.0sp1/nios2eds/bin/gnu/H-i686-pc-linux-gnu/bin/../lib/gcc/nios2-elf/4.1.2/../../../../nios2-elf/lib/mno-hw-mul/libc.a(lib_a-s_isinfd.o)
                                0x19d (size before relaxing)
 .debug_str     0x00004350       0x49 /opt/altera/13.0sp1/nios2eds/bin/gnu/H-i686-pc-linux-gnu/bin/../lib/gcc/nios2-elf/4.1.2/../../../../nios2-elf/lib/mno-hw-mul/libc.a(lib_a-s_isnand.o)
                                0x19d (size before relaxing)
 .debug_str     0x00004399       0x45 /opt/altera/13.0sp1/nios2eds/bin/gnu/H-i686-pc-linux-gnu/bin/../lib/gcc/nios2-elf/4.1.2/../../../../nios2-elf/lib/mno-hw-mul/libc.a(lib_a-strcmp.o)
                                0x176 (size before relaxing)
 .debug_str     0x000043de       0x19 /opt/altera/13.0sp1/nios2eds/bin/gnu/H-i686-pc-linux-gnu/bin/../lib/gcc/nios2-elf/4.1.2/../../../../nios2-elf/lib/mno-hw-mul/libc.a(lib_a-callocr.o)
                                0x555 (size before relaxing)
 .debug_str     0x000043f7        0xd /opt/altera/13.0sp1/nios2eds/bin/gnu/H-i686-pc-linux-gnu/bin/../lib/gcc/nios2-elf/4.1.2/mno-hw-mul/libgcc.a(_fixunsdfsi.o)
                                0x170 (size before relaxing)
 .debug_str     0x00004404        0xe /opt/altera/13.0sp1/nios2eds/bin/gnu/H-i686-pc-linux-gnu/bin/../lib/gcc/nios2-elf/4.1.2/mno-hw-mul/libgcc.a(_floatundidf.o)
                                0x171 (size before relaxing)
 .debug_str     0x00004412       0x35 /opt/altera/13.0sp1/nios2eds/bin/gnu/H-i686-pc-linux-gnu/bin/../lib/gcc/nios2-elf/4.1.2/mno-hw-mul/libgcc.a(_udivdi3.o)
                                0x1fc (size before relaxing)
 .debug_str     0x00004447        0xa /opt/altera/13.0sp1/nios2eds/bin/gnu/H-i686-pc-linux-gnu/bin/../lib/gcc/nios2-elf/4.1.2/mno-hw-mul/libgcc.a(_umoddi3.o)
                                0x1fc (size before relaxing)
 .debug_str     0x00004451       0x35 /opt/altera/13.0sp1/nios2eds/bin/gnu/H-i686-pc-linux-gnu/bin/../lib/gcc/nios2-elf/4.1.2/mno-hw-mul/libgcc.a(_div_df.o)
                                0x236 (size before relaxing)
 .debug_str     0x00004486        0x8 /opt/altera/13.0sp1/nios2eds/bin/gnu/H-i686-pc-linux-gnu/bin/../lib/gcc/nios2-elf/4.1.2/mno-hw-mul/libgcc.a(_eq_df.o)
                                0x203 (size before relaxing)
 .debug_str     0x0000448e        0x8 /opt/altera/13.0sp1/nios2eds/bin/gnu/H-i686-pc-linux-gnu/bin/../lib/gcc/nios2-elf/4.1.2/mno-hw-mul/libgcc.a(_ne_df.o)
                                0x203 (size before relaxing)
 .debug_str     0x00004496        0x8 /opt/altera/13.0sp1/nios2eds/bin/gnu/H-i686-pc-linux-gnu/bin/../lib/gcc/nios2-elf/4.1.2/mno-hw-mul/libgcc.a(_gt_df.o)
                                0x203 (size before relaxing)
 .debug_str     0x0000449e        0x8 /opt/altera/13.0sp1/nios2eds/bin/gnu/H-i686-pc-linux-gnu/bin/../lib/gcc/nios2-elf/4.1.2/mno-hw-mul/libgcc.a(_ge_df.o)
                                0x203 (size before relaxing)
 .debug_str     0x000044a6        0x8 /opt/altera/13.0sp1/nios2eds/bin/gnu/H-i686-pc-linux-gnu/bin/../lib/gcc/nios2-elf/4.1.2/mno-hw-mul/libgcc.a(_lt_df.o)
                                0x203 (size before relaxing)
 .debug_str     0x000044ae        0xa /opt/altera/13.0sp1/nios2eds/bin/gnu/H-i686-pc-linux-gnu/bin/../lib/gcc/nios2-elf/4.1.2/mno-hw-mul/libgcc.a(_df_to_si.o)
                                0x20c (size before relaxing)
 .debug_str     0x000044b8       0x14 /opt/altera/13.0sp1/nios2eds/bin/gnu/H-i686-pc-linux-gnu/bin/../lib/gcc/nios2-elf/4.1.2/mno-hw-mul/libgcc.a(_usi_to_df.o)
                                0x1df (size before relaxing)
 .debug_str     0x000044cc       0x10 /opt/altera/13.0sp1/nios2eds/bin/gnu/H-i686-pc-linux-gnu/bin/../lib/gcc/nios2-elf/4.1.2/mno-hw-mul/libgcc.a(_fpcmp_parts_df.o)
                                0x1cb (size before relaxing)
 .debug_str     0x000044dc       0x2a ../../bsp/mpsoc_hello_ucosii//libucosii_bsp.a(alt_exit.o)
                                0x167 (size before relaxing)

.debug_loc      0x00000000    0x1148f
 *(.debug_loc)
 .debug_loc     0x00000000      0x4a8 obj/default/src/image_bare.o
 .debug_loc     0x000004a8      0x47a /opt/altera/13.0sp1/nios2eds/bin/gnu/H-i686-pc-linux-gnu/bin/../lib/gcc/nios2-elf/4.1.2/mno-hw-mul/libgcc.a(_addsub_df.o)
 .debug_loc     0x00000922      0x3b4 /opt/altera/13.0sp1/nios2eds/bin/gnu/H-i686-pc-linux-gnu/bin/../lib/gcc/nios2-elf/4.1.2/mno-hw-mul/libgcc.a(_mul_df.o)
 .debug_loc     0x00000cd6       0x9a /opt/altera/13.0sp1/nios2eds/bin/gnu/H-i686-pc-linux-gnu/bin/../lib/gcc/nios2-elf/4.1.2/mno-hw-mul/libgcc.a(_si_to_df.o)
 .debug_loc     0x00000d70       0x6a /opt/altera/13.0sp1/nios2eds/bin/gnu/H-i686-pc-linux-gnu/bin/../lib/gcc/nios2-elf/4.1.2/mno-hw-mul/libgcc.a(_df_to_sf.o)
 .debug_loc     0x00000dda      0x1d2 /opt/altera/13.0sp1/nios2eds/bin/gnu/H-i686-pc-linux-gnu/bin/../lib/gcc/nios2-elf/4.1.2/mno-hw-mul/libgcc.a(lib2-divmod.o)
 .debug_loc     0x00000fac       0x4f /opt/altera/13.0sp1/nios2eds/bin/gnu/H-i686-pc-linux-gnu/bin/../lib/gcc/nios2-elf/4.1.2/mno-hw-mul/libgcc.a(lib2-mul.o)
 .debug_loc     0x00000ffb      0x103 /opt/altera/13.0sp1/nios2eds/bin/gnu/H-i686-pc-linux-gnu/bin/../lib/gcc/nios2-elf/4.1.2/mno-hw-mul/libgcc.a(_muldi3.o)
 .debug_loc     0x000010fe       0x1e /opt/altera/13.0sp1/nios2eds/bin/gnu/H-i686-pc-linux-gnu/bin/../lib/gcc/nios2-elf/4.1.2/mno-hw-mul/libgcc.a(_clzsi2.o)
 .debug_loc     0x0000111c       0x6b /opt/altera/13.0sp1/nios2eds/bin/gnu/H-i686-pc-linux-gnu/bin/../lib/gcc/nios2-elf/4.1.2/mno-hw-mul/libgcc.a(_make_sf.o)
 .debug_loc     0x00001187      0x184 /opt/altera/13.0sp1/nios2eds/bin/gnu/H-i686-pc-linux-gnu/bin/../lib/gcc/nios2-elf/4.1.2/mno-hw-mul/libgcc.a(_pack_df.o)
 .debug_loc     0x0000130b       0xe5 /opt/altera/13.0sp1/nios2eds/bin/gnu/H-i686-pc-linux-gnu/bin/../lib/gcc/nios2-elf/4.1.2/mno-hw-mul/libgcc.a(_unpack_df.o)
 .debug_loc     0x000013f0       0xf9 /opt/altera/13.0sp1/nios2eds/bin/gnu/H-i686-pc-linux-gnu/bin/../lib/gcc/nios2-elf/4.1.2/mno-hw-mul/libgcc.a(_pack_sf.o)
 .debug_loc     0x000014e9       0x3c /opt/altera/13.0sp1/nios2eds/bin/gnu/H-i686-pc-linux-gnu/bin/../lib/gcc/nios2-elf/4.1.2/../../../../nios2-elf/lib/mno-hw-mul/libc.a(lib_a-malloc.o)
 .debug_loc     0x00001525      0xaeb /opt/altera/13.0sp1/nios2eds/bin/gnu/H-i686-pc-linux-gnu/bin/../lib/gcc/nios2-elf/4.1.2/../../../../nios2-elf/lib/mno-hw-mul/libc.a(lib_a-mallocr.o)
 .debug_loc     0x00002010       0xca /opt/altera/13.0sp1/nios2eds/bin/gnu/H-i686-pc-linux-gnu/bin/../lib/gcc/nios2-elf/4.1.2/../../../../nios2-elf/lib/mno-hw-mul/libc.a(lib_a-memcpy.o)
 .debug_loc     0x000020da       0x44 /opt/altera/13.0sp1/nios2eds/bin/gnu/H-i686-pc-linux-gnu/bin/../lib/gcc/nios2-elf/4.1.2/../../../../nios2-elf/lib/mno-hw-mul/libc.a(lib_a-putchar.o)
 .debug_loc     0x0000211e       0xa2 /opt/altera/13.0sp1/nios2eds/bin/gnu/H-i686-pc-linux-gnu/bin/../lib/gcc/nios2-elf/4.1.2/../../../../nios2-elf/lib/mno-hw-mul/libc.a(lib_a-puts.o)
 .debug_loc     0x000021c0       0x5b /opt/altera/13.0sp1/nios2eds/bin/gnu/H-i686-pc-linux-gnu/bin/../lib/gcc/nios2-elf/4.1.2/../../../../nios2-elf/lib/mno-hw-mul/libc.a(lib_a-sbrkr.o)
 .debug_loc     0x0000221b       0x3c /opt/altera/13.0sp1/nios2eds/bin/gnu/H-i686-pc-linux-gnu/bin/../lib/gcc/nios2-elf/4.1.2/../../../../nios2-elf/lib/mno-hw-mul/libc.a(lib_a-strlen.o)
 .debug_loc     0x00002257      0x4a7 /opt/altera/13.0sp1/nios2eds/bin/gnu/H-i686-pc-linux-gnu/bin/../lib/gcc/nios2-elf/4.1.2/../../../../nios2-elf/lib/mno-hw-mul/libc.a(lib_a-freer.o)
 .debug_loc     0x000026fe      0x4e4 /opt/altera/13.0sp1/nios2eds/bin/gnu/H-i686-pc-linux-gnu/bin/../lib/gcc/nios2-elf/4.1.2/../../../../nios2-elf/lib/mno-hw-mul/libc.a(lib_a-fvwrite.o)
 .debug_loc     0x00002be2      0x106 /opt/altera/13.0sp1/nios2eds/bin/gnu/H-i686-pc-linux-gnu/bin/../lib/gcc/nios2-elf/4.1.2/../../../../nios2-elf/lib/mno-hw-mul/libc.a(lib_a-memchr.o)
 .debug_loc     0x00002ce8      0x117 /opt/altera/13.0sp1/nios2eds/bin/gnu/H-i686-pc-linux-gnu/bin/../lib/gcc/nios2-elf/4.1.2/../../../../nios2-elf/lib/mno-hw-mul/libc.a(lib_a-memmove.o)
 .debug_loc     0x00002dff      0x20d /opt/altera/13.0sp1/nios2eds/bin/gnu/H-i686-pc-linux-gnu/bin/../lib/gcc/nios2-elf/4.1.2/../../../../nios2-elf/lib/mno-hw-mul/libc.a(lib_a-putc.o)
 .debug_loc     0x0000300c      0x8c0 /opt/altera/13.0sp1/nios2eds/bin/gnu/H-i686-pc-linux-gnu/bin/../lib/gcc/nios2-elf/4.1.2/../../../../nios2-elf/lib/mno-hw-mul/libc.a(lib_a-reallocr.o)
 .debug_loc     0x000038cc      0x157 /opt/altera/13.0sp1/nios2eds/bin/gnu/H-i686-pc-linux-gnu/bin/../lib/gcc/nios2-elf/4.1.2/../../../../nios2-elf/lib/mno-hw-mul/libc.a(lib_a-wbuf.o)
 .debug_loc     0x00003a23       0x7c /opt/altera/13.0sp1/nios2eds/bin/gnu/H-i686-pc-linux-gnu/bin/../lib/gcc/nios2-elf/4.1.2/../../../../nios2-elf/lib/mno-hw-mul/libc.a(lib_a-wsetup.o)
 .debug_loc     0x00003a9f      0x1f6 /opt/altera/13.0sp1/nios2eds/bin/gnu/H-i686-pc-linux-gnu/bin/../lib/gcc/nios2-elf/4.1.2/../../../../nios2-elf/lib/mno-hw-mul/libc.a(lib_a-fflush.o)
 .debug_loc     0x00003c95      0x1e1 /opt/altera/13.0sp1/nios2eds/bin/gnu/H-i686-pc-linux-gnu/bin/../lib/gcc/nios2-elf/4.1.2/../../../../nios2-elf/lib/mno-hw-mul/libc.a(lib_a-findfp.o)
 .debug_loc     0x00003e76      0x1d2 /opt/altera/13.0sp1/nios2eds/bin/gnu/H-i686-pc-linux-gnu/bin/../lib/gcc/nios2-elf/4.1.2/../../../../nios2-elf/lib/mno-hw-mul/libc.a(lib_a-fwalk.o)
 .debug_loc     0x00004048      0x11c /opt/altera/13.0sp1/nios2eds/bin/gnu/H-i686-pc-linux-gnu/bin/../lib/gcc/nios2-elf/4.1.2/../../../../nios2-elf/lib/mno-hw-mul/libc.a(lib_a-makebuf.o)
 .debug_loc     0x00004164       0xa1 /opt/altera/13.0sp1/nios2eds/bin/gnu/H-i686-pc-linux-gnu/bin/../lib/gcc/nios2-elf/4.1.2/../../../../nios2-elf/lib/mno-hw-mul/libc.a(lib_a-memset.o)
 .debug_loc     0x00004205      0x21f /opt/altera/13.0sp1/nios2eds/bin/gnu/H-i686-pc-linux-gnu/bin/../lib/gcc/nios2-elf/4.1.2/../../../../nios2-elf/lib/mno-hw-mul/libc.a(lib_a-stdio.o)
 .debug_loc     0x00004424       0x97 /opt/altera/13.0sp1/nios2eds/bin/gnu/H-i686-pc-linux-gnu/bin/../lib/gcc/nios2-elf/4.1.2/../../../../nios2-elf/lib/mno-hw-mul/libc.a(lib_a-writer.o)
 .debug_loc     0x000044bb       0x5b /opt/altera/13.0sp1/nios2eds/bin/gnu/H-i686-pc-linux-gnu/bin/../lib/gcc/nios2-elf/4.1.2/../../../../nios2-elf/lib/mno-hw-mul/libc.a(lib_a-closer.o)
 .debug_loc     0x00004516       0xe4 /opt/altera/13.0sp1/nios2eds/bin/gnu/H-i686-pc-linux-gnu/bin/../lib/gcc/nios2-elf/4.1.2/../../../../nios2-elf/lib/mno-hw-mul/libc.a(lib_a-fclose.o)
 .debug_loc     0x000045fa       0x79 /opt/altera/13.0sp1/nios2eds/bin/gnu/H-i686-pc-linux-gnu/bin/../lib/gcc/nios2-elf/4.1.2/../../../../nios2-elf/lib/mno-hw-mul/libc.a(lib_a-fstatr.o)
 .debug_loc     0x00004673       0x5b /opt/altera/13.0sp1/nios2eds/bin/gnu/H-i686-pc-linux-gnu/bin/../lib/gcc/nios2-elf/4.1.2/../../../../nios2-elf/lib/mno-hw-mul/libc.a(lib_a-isattyr.o)
 .debug_loc     0x000046ce       0x97 /opt/altera/13.0sp1/nios2eds/bin/gnu/H-i686-pc-linux-gnu/bin/../lib/gcc/nios2-elf/4.1.2/../../../../nios2-elf/lib/mno-hw-mul/libc.a(lib_a-lseekr.o)
 .debug_loc     0x00004765       0x97 /opt/altera/13.0sp1/nios2eds/bin/gnu/H-i686-pc-linux-gnu/bin/../lib/gcc/nios2-elf/4.1.2/../../../../nios2-elf/lib/mno-hw-mul/libc.a(lib_a-readr.o)
 .debug_loc     0x000047fc       0x8f ../../bsp/mpsoc_hello_ucosii//libucosii_bsp.a(alt_close.o)
 .debug_loc     0x0000488b       0xbb ../../bsp/mpsoc_hello_ucosii//libucosii_bsp.a(alt_fstat.o)
 .debug_loc     0x00004946       0x7d ../../bsp/mpsoc_hello_ucosii//libucosii_bsp.a(alt_isatty.o)
 .debug_loc     0x000049c3       0x1f ../../bsp/mpsoc_hello_ucosii//libucosii_bsp.a(alt_load.o)
 .debug_loc     0x000049e2      0x165 ../../bsp/mpsoc_hello_ucosii//libucosii_bsp.a(alt_lseek.o)
 .debug_loc     0x00004b47       0x1f ../../bsp/mpsoc_hello_ucosii//libucosii_bsp.a(alt_main.o)
 .debug_loc     0x00004b66      0x102 ../../bsp/mpsoc_hello_ucosii//libucosii_bsp.a(alt_read.o)
 .debug_loc     0x00004c68       0x48 ../../bsp/mpsoc_hello_ucosii//libucosii_bsp.a(alt_release_fd.o)
 .debug_loc     0x00004cb0       0x13 ../../bsp/mpsoc_hello_ucosii//libucosii_bsp.a(alt_sbrk.o)
 .debug_loc     0x00004cc3      0x102 ../../bsp/mpsoc_hello_ucosii//libucosii_bsp.a(alt_write.o)
 .debug_loc     0x00004dc5       0x64 ../../bsp/mpsoc_hello_ucosii//libucosii_bsp.a(alt_env_lock.o)
 .debug_loc     0x00004e29       0xa0 ../../bsp/mpsoc_hello_ucosii//libucosii_bsp.a(alt_malloc_lock.o)
 .debug_loc     0x00004ec9      0xa93 ../../bsp/mpsoc_hello_ucosii//libucosii_bsp.a(os_core.o)
 .debug_loc     0x0000595c      0xc39 ../../bsp/mpsoc_hello_ucosii//libucosii_bsp.a(os_flag.o)
 .debug_loc     0x00006595      0x32f ../../bsp/mpsoc_hello_ucosii//libucosii_bsp.a(os_mem.o)
 .debug_loc     0x000068c4      0x816 ../../bsp/mpsoc_hello_ucosii//libucosii_bsp.a(os_q.o)
 .debug_loc     0x000070da      0x3c4 ../../bsp/mpsoc_hello_ucosii//libucosii_bsp.a(os_sem.o)
 .debug_loc     0x0000749e      0xb22 ../../bsp/mpsoc_hello_ucosii//libucosii_bsp.a(os_task.o)
 .debug_loc     0x00007fc0      0x2bc ../../bsp/mpsoc_hello_ucosii//libucosii_bsp.a(os_time.o)
 .debug_loc     0x0000827c      0x8c5 ../../bsp/mpsoc_hello_ucosii//libucosii_bsp.a(os_tmr.o)
 .debug_loc     0x00008b41       0xb7 ../../bsp/mpsoc_hello_ucosii//libucosii_bsp.a(alt_sys_init.o)
 .debug_loc     0x00008bf8       0xbe ../../bsp/mpsoc_hello_ucosii//libucosii_bsp.a(altera_avalon_jtag_uart_fd.o)
 .debug_loc     0x00008cb6      0x24b ../../bsp/mpsoc_hello_ucosii//libucosii_bsp.a(altera_avalon_jtag_uart_init.o)
 .debug_loc     0x00008f01       0x7b ../../bsp/mpsoc_hello_ucosii//libucosii_bsp.a(altera_avalon_jtag_uart_ioctl.o)
 .debug_loc     0x00008f7c      0x190 ../../bsp/mpsoc_hello_ucosii//libucosii_bsp.a(altera_avalon_jtag_uart_read.o)
 .debug_loc     0x0000910c      0x167 ../../bsp/mpsoc_hello_ucosii//libucosii_bsp.a(altera_avalon_jtag_uart_write.o)
 .debug_loc     0x00009273      0x14a ../../bsp/mpsoc_hello_ucosii//libucosii_bsp.a(altera_avalon_mutex.o)
 .debug_loc     0x000093bd       0xba ../../bsp/mpsoc_hello_ucosii//libucosii_bsp.a(altera_avalon_timer_sc.o)
 .debug_loc     0x00009477      0x138 ../../bsp/mpsoc_hello_ucosii//libucosii_bsp.a(perf_print_formatted_report.o)
 .debug_loc     0x000095af       0x31 ../../bsp/mpsoc_hello_ucosii//libucosii_bsp.a(alt_alarm_start.o)
 .debug_loc     0x000095e0       0x5b ../../bsp/mpsoc_hello_ucosii//libucosii_bsp.a(alt_dev_llist_insert.o)
 .debug_loc     0x0000963b       0x32 ../../bsp/mpsoc_hello_ucosii//libucosii_bsp.a(alt_do_ctors.o)
 .debug_loc     0x0000966d       0x32 ../../bsp/mpsoc_hello_ucosii//libucosii_bsp.a(alt_do_dtors.o)
 .debug_loc     0x0000969f       0xef ../../bsp/mpsoc_hello_ucosii//libucosii_bsp.a(alt_find_dev.o)
 .debug_loc     0x0000978e      0x15a ../../bsp/mpsoc_hello_ucosii//libucosii_bsp.a(alt_io_redirect.o)
 .debug_loc     0x000098e8       0x52 ../../bsp/mpsoc_hello_ucosii//libucosii_bsp.a(alt_irq_register.o)
 .debug_loc     0x0000993a      0x1fe ../../bsp/mpsoc_hello_ucosii//libucosii_bsp.a(alt_open.o)
 .debug_loc     0x00009b38       0x71 ../../bsp/mpsoc_hello_ucosii//libucosii_bsp.a(alt_tick.o)
 .debug_loc     0x00009ba9       0xc6 ../../bsp/mpsoc_hello_ucosii//libucosii_bsp.a(os_cpu_c.o)
 .debug_loc     0x00009c6f       0x5f ../../bsp/mpsoc_hello_ucosii//libucosii_bsp.a(altera_avalon_performance_counter.o)
 .debug_loc     0x00009cce       0x9a ../../bsp/mpsoc_hello_ucosii//libucosii_bsp.a(alt_find_file.o)
 .debug_loc     0x00009d68       0x8f ../../bsp/mpsoc_hello_ucosii//libucosii_bsp.a(alt_get_fd.o)
 .debug_loc     0x00009df7       0x79 ../../bsp/mpsoc_hello_ucosii//libucosii_bsp.a(alt_irq_handler.o)
 .debug_loc     0x00009e70       0x1e /opt/altera/13.0sp1/nios2eds/bin/gnu/H-i686-pc-linux-gnu/bin/../lib/gcc/nios2-elf/4.1.2/../../../../nios2-elf/lib/mno-hw-mul/libc.a(lib_a-atexit.o)
 .debug_loc     0x00009e8e       0x3d /opt/altera/13.0sp1/nios2eds/bin/gnu/H-i686-pc-linux-gnu/bin/../lib/gcc/nios2-elf/4.1.2/../../../../nios2-elf/lib/mno-hw-mul/libc.a(lib_a-exit.o)
 .debug_loc     0x00009ecb      0x114 /opt/altera/13.0sp1/nios2eds/bin/gnu/H-i686-pc-linux-gnu/bin/../lib/gcc/nios2-elf/4.1.2/../../../../nios2-elf/lib/mno-hw-mul/libc.a(lib_a-memcmp.o)
 .debug_loc     0x00009fdf       0xcb /opt/altera/13.0sp1/nios2eds/bin/gnu/H-i686-pc-linux-gnu/bin/../lib/gcc/nios2-elf/4.1.2/../../../../nios2-elf/lib/mno-hw-mul/libc.a(lib_a-printf.o)
 .debug_loc     0x0000a0aa     0x1dc0 /opt/altera/13.0sp1/nios2eds/bin/gnu/H-i686-pc-linux-gnu/bin/../lib/gcc/nios2-elf/4.1.2/../../../../nios2-elf/lib/mno-hw-mul/libc.a(lib_a-vfprintf.o)
 .debug_loc     0x0000be6a      0x120 /opt/altera/13.0sp1/nios2eds/bin/gnu/H-i686-pc-linux-gnu/bin/../lib/gcc/nios2-elf/4.1.2/../../../../nios2-elf/lib/mno-hw-mul/libc.a(lib_a-__atexit.o)
 .debug_loc     0x0000bf8a      0x1cb /opt/altera/13.0sp1/nios2eds/bin/gnu/H-i686-pc-linux-gnu/bin/../lib/gcc/nios2-elf/4.1.2/../../../../nios2-elf/lib/mno-hw-mul/libc.a(lib_a-__call_atexit.o)
 .debug_loc     0x0000c155     0x1da7 /opt/altera/13.0sp1/nios2eds/bin/gnu/H-i686-pc-linux-gnu/bin/../lib/gcc/nios2-elf/4.1.2/../../../../nios2-elf/lib/mno-hw-mul/libc.a(lib_a-dtoa.o)
 .debug_loc     0x0000defc       0xe1 /opt/altera/13.0sp1/nios2eds/bin/gnu/H-i686-pc-linux-gnu/bin/../lib/gcc/nios2-elf/4.1.2/../../../../nios2-elf/lib/mno-hw-mul/libc.a(lib_a-locale.o)
 .debug_loc     0x0000dfdd     0x1547 /opt/altera/13.0sp1/nios2eds/bin/gnu/H-i686-pc-linux-gnu/bin/../lib/gcc/nios2-elf/4.1.2/../../../../nios2-elf/lib/mno-hw-mul/libc.a(lib_a-mprec.o)
 .debug_loc     0x0000f524       0x36 /opt/altera/13.0sp1/nios2eds/bin/gnu/H-i686-pc-linux-gnu/bin/../lib/gcc/nios2-elf/4.1.2/../../../../nios2-elf/lib/mno-hw-mul/libc.a(lib_a-s_isinfd.o)
 .debug_loc     0x0000f55a       0x18 /opt/altera/13.0sp1/nios2eds/bin/gnu/H-i686-pc-linux-gnu/bin/../lib/gcc/nios2-elf/4.1.2/../../../../nios2-elf/lib/mno-hw-mul/libc.a(lib_a-s_isnand.o)
 .debug_loc     0x0000f572       0x65 /opt/altera/13.0sp1/nios2eds/bin/gnu/H-i686-pc-linux-gnu/bin/../lib/gcc/nios2-elf/4.1.2/../../../../nios2-elf/lib/mno-hw-mul/libc.a(lib_a-strcmp.o)
 .debug_loc     0x0000f5d7       0xff /opt/altera/13.0sp1/nios2eds/bin/gnu/H-i686-pc-linux-gnu/bin/../lib/gcc/nios2-elf/4.1.2/../../../../nios2-elf/lib/mno-hw-mul/libc.a(lib_a-callocr.o)
 .debug_loc     0x0000f6d6       0x87 /opt/altera/13.0sp1/nios2eds/bin/gnu/H-i686-pc-linux-gnu/bin/../lib/gcc/nios2-elf/4.1.2/mno-hw-mul/libgcc.a(_fixunsdfsi.o)
 .debug_loc     0x0000f75d       0x5f /opt/altera/13.0sp1/nios2eds/bin/gnu/H-i686-pc-linux-gnu/bin/../lib/gcc/nios2-elf/4.1.2/mno-hw-mul/libgcc.a(_floatundidf.o)
 .debug_loc     0x0000f7bc      0xc12 /opt/altera/13.0sp1/nios2eds/bin/gnu/H-i686-pc-linux-gnu/bin/../lib/gcc/nios2-elf/4.1.2/mno-hw-mul/libgcc.a(_udivdi3.o)
 .debug_loc     0x000103ce      0xbcc /opt/altera/13.0sp1/nios2eds/bin/gnu/H-i686-pc-linux-gnu/bin/../lib/gcc/nios2-elf/4.1.2/mno-hw-mul/libgcc.a(_umoddi3.o)
 .debug_loc     0x00010f9a      0x1df /opt/altera/13.0sp1/nios2eds/bin/gnu/H-i686-pc-linux-gnu/bin/../lib/gcc/nios2-elf/4.1.2/mno-hw-mul/libgcc.a(_div_df.o)
 .debug_loc     0x00011179       0x70 /opt/altera/13.0sp1/nios2eds/bin/gnu/H-i686-pc-linux-gnu/bin/../lib/gcc/nios2-elf/4.1.2/mno-hw-mul/libgcc.a(_eq_df.o)
 .debug_loc     0x000111e9       0x70 /opt/altera/13.0sp1/nios2eds/bin/gnu/H-i686-pc-linux-gnu/bin/../lib/gcc/nios2-elf/4.1.2/mno-hw-mul/libgcc.a(_ne_df.o)
 .debug_loc     0x00011259       0x70 /opt/altera/13.0sp1/nios2eds/bin/gnu/H-i686-pc-linux-gnu/bin/../lib/gcc/nios2-elf/4.1.2/mno-hw-mul/libgcc.a(_gt_df.o)
 .debug_loc     0x000112c9       0x70 /opt/altera/13.0sp1/nios2eds/bin/gnu/H-i686-pc-linux-gnu/bin/../lib/gcc/nios2-elf/4.1.2/mno-hw-mul/libgcc.a(_ge_df.o)
 .debug_loc     0x00011339       0x70 /opt/altera/13.0sp1/nios2eds/bin/gnu/H-i686-pc-linux-gnu/bin/../lib/gcc/nios2-elf/4.1.2/mno-hw-mul/libgcc.a(_lt_df.o)
 .debug_loc     0x000113a9       0x8b /opt/altera/13.0sp1/nios2eds/bin/gnu/H-i686-pc-linux-gnu/bin/../lib/gcc/nios2-elf/4.1.2/mno-hw-mul/libgcc.a(_df_to_si.o)
 .debug_loc     0x00011434       0x5b /opt/altera/13.0sp1/nios2eds/bin/gnu/H-i686-pc-linux-gnu/bin/../lib/gcc/nios2-elf/4.1.2/mno-hw-mul/libgcc.a(_usi_to_df.o)

.debug_macinfo
 *(.debug_macinfo)

.debug_weaknames
 *(.debug_weaknames)

.debug_funcnames
 *(.debug_funcnames)

.debug_typenames
 *(.debug_typenames)

.debug_varnames
 *(.debug_varnames)

.debug_alt_sim_info
                0x00000000       0x10
 *(.debug_alt_sim_info)
 .debug_alt_sim_info
                0x00000000       0x10 ../../bsp/mpsoc_hello_ucosii//obj/HAL/src/crt0.o
                0x00100000                __alt_data_end = 0x100000
                0x00100000                PROVIDE (__alt_stack_pointer, __alt_data_end)
                0x000b19e4                PROVIDE (__alt_stack_limit, __alt_stack_base)
                0x000b19e4                PROVIDE (__alt_heap_start, end)
                0x00100000                PROVIDE (__alt_heap_limit, 0x100000)
OUTPUT(bare.elf elf32-littlenios2)

.debug_ranges   0x00000000     0x1060
 .debug_ranges  0x00000000       0x20 ../../bsp/mpsoc_hello_ucosii//obj/HAL/src/crt0.o
 .debug_ranges  0x00000020       0x30 /opt/altera/13.0sp1/nios2eds/bin/gnu/H-i686-pc-linux-gnu/bin/../lib/gcc/nios2-elf/4.1.2/mno-hw-mul/libgcc.a(_addsub_df.o)
 .debug_ranges  0x00000050       0x88 /opt/altera/13.0sp1/nios2eds/bin/gnu/H-i686-pc-linux-gnu/bin/../lib/gcc/nios2-elf/4.1.2/mno-hw-mul/libgcc.a(_mul_df.o)
 .debug_ranges  0x000000d8       0x88 /opt/altera/13.0sp1/nios2eds/bin/gnu/H-i686-pc-linux-gnu/bin/../lib/gcc/nios2-elf/4.1.2/mno-hw-mul/libgcc.a(_muldi3.o)
 .debug_ranges  0x00000160       0x28 /opt/altera/13.0sp1/nios2eds/bin/gnu/H-i686-pc-linux-gnu/bin/../lib/gcc/nios2-elf/4.1.2/mno-hw-mul/libgcc.a(_clzsi2.o)
 .debug_ranges  0x00000188       0x28 /opt/altera/13.0sp1/nios2eds/bin/gnu/H-i686-pc-linux-gnu/bin/../lib/gcc/nios2-elf/4.1.2/mno-hw-mul/libgcc.a(_pack_df.o)
 .debug_ranges  0x000001b0       0x70 /opt/altera/13.0sp1/nios2eds/bin/gnu/H-i686-pc-linux-gnu/bin/../lib/gcc/nios2-elf/4.1.2/../../../../nios2-elf/lib/mno-hw-mul/libc.a(lib_a-mallocr.o)
 .debug_ranges  0x00000220       0x28 /opt/altera/13.0sp1/nios2eds/bin/gnu/H-i686-pc-linux-gnu/bin/../lib/gcc/nios2-elf/4.1.2/../../../../nios2-elf/lib/mno-hw-mul/libc.a(lib_a-fvwrite.o)
 .debug_ranges  0x00000248      0x110 /opt/altera/13.0sp1/nios2eds/bin/gnu/H-i686-pc-linux-gnu/bin/../lib/gcc/nios2-elf/4.1.2/../../../../nios2-elf/lib/mno-hw-mul/libc.a(lib_a-reallocr.o)
 .debug_ranges  0x00000358       0x20 /opt/altera/13.0sp1/nios2eds/bin/gnu/H-i686-pc-linux-gnu/bin/../lib/gcc/nios2-elf/4.1.2/../../../../nios2-elf/lib/mno-hw-mul/libc.a(lib_a-fflush.o)
 .debug_ranges  0x00000378       0xa0 /opt/altera/13.0sp1/nios2eds/bin/gnu/H-i686-pc-linux-gnu/bin/../lib/gcc/nios2-elf/4.1.2/../../../../nios2-elf/lib/mno-hw-mul/libc.a(lib_a-fwalk.o)
 .debug_ranges  0x00000418       0x18 ../../bsp/mpsoc_hello_ucosii//libucosii_bsp.a(alt_main.o)
 .debug_ranges  0x00000430      0x1c8 ../../bsp/mpsoc_hello_ucosii//libucosii_bsp.a(os_core.o)
 .debug_ranges  0x000005f8       0x18 ../../bsp/mpsoc_hello_ucosii//libucosii_bsp.a(os_mem.o)
 .debug_ranges  0x00000610       0x48 ../../bsp/mpsoc_hello_ucosii//libucosii_bsp.a(os_q.o)
 .debug_ranges  0x00000658       0x48 ../../bsp/mpsoc_hello_ucosii//libucosii_bsp.a(os_sem.o)
 .debug_ranges  0x000006a0       0x60 ../../bsp/mpsoc_hello_ucosii//libucosii_bsp.a(os_task.o)
 .debug_ranges  0x00000700       0x30 ../../bsp/mpsoc_hello_ucosii//libucosii_bsp.a(os_tmr.o)
 .debug_ranges  0x00000730       0x20 ../../bsp/mpsoc_hello_ucosii//libucosii_bsp.a(alt_sys_init.o)
 .debug_ranges  0x00000750      0x110 ../../bsp/mpsoc_hello_ucosii//libucosii_bsp.a(altera_avalon_jtag_uart_init.o)
 .debug_ranges  0x00000860       0x58 ../../bsp/mpsoc_hello_ucosii//libucosii_bsp.a(altera_avalon_jtag_uart_read.o)
 .debug_ranges  0x000008b8       0x88 ../../bsp/mpsoc_hello_ucosii//libucosii_bsp.a(altera_avalon_jtag_uart_write.o)
 .debug_ranges  0x00000940       0xa0 ../../bsp/mpsoc_hello_ucosii//libucosii_bsp.a(altera_avalon_mutex.o)
 .debug_ranges  0x000009e0       0x18 ../../bsp/mpsoc_hello_ucosii//libucosii_bsp.a(altera_avalon_timer_sc.o)
 .debug_ranges  0x000009f8       0x18 ../../bsp/mpsoc_hello_ucosii//libucosii_bsp.a(alt_dev_llist_insert.o)
 .debug_ranges  0x00000a10       0x30 ../../bsp/mpsoc_hello_ucosii//libucosii_bsp.a(alt_open.o)
 .debug_ranges  0x00000a40       0x40 ../../bsp/mpsoc_hello_ucosii//libucosii_bsp.a(alt_get_fd.o)
 .debug_ranges  0x00000a80       0x28 ../../bsp/mpsoc_hello_ucosii//libucosii_bsp.a(alt_irq_entry.o)
 .debug_ranges  0x00000aa8       0x18 ../../bsp/mpsoc_hello_ucosii//libucosii_bsp.a(alt_irq_handler.o)
 .debug_ranges  0x00000ac0       0x30 ../../bsp/mpsoc_hello_ucosii//libucosii_bsp.a(alt_exception_entry.o)
 .debug_ranges  0x00000af0      0x168 /opt/altera/13.0sp1/nios2eds/bin/gnu/H-i686-pc-linux-gnu/bin/../lib/gcc/nios2-elf/4.1.2/../../../../nios2-elf/lib/mno-hw-mul/libc.a(lib_a-vfprintf.o)
 .debug_ranges  0x00000c58       0x18 /opt/altera/13.0sp1/nios2eds/bin/gnu/H-i686-pc-linux-gnu/bin/../lib/gcc/nios2-elf/4.1.2/../../../../nios2-elf/lib/mno-hw-mul/libc.a(lib_a-__call_atexit.o)
 .debug_ranges  0x00000c70       0x38 /opt/altera/13.0sp1/nios2eds/bin/gnu/H-i686-pc-linux-gnu/bin/../lib/gcc/nios2-elf/4.1.2/../../../../nios2-elf/lib/mno-hw-mul/libc.a(lib_a-callocr.o)
 .debug_ranges  0x00000ca8      0x190 /opt/altera/13.0sp1/nios2eds/bin/gnu/H-i686-pc-linux-gnu/bin/../lib/gcc/nios2-elf/4.1.2/mno-hw-mul/libgcc.a(_udivdi3.o)
 .debug_ranges  0x00000e38      0x1c0 /opt/altera/13.0sp1/nios2eds/bin/gnu/H-i686-pc-linux-gnu/bin/../lib/gcc/nios2-elf/4.1.2/mno-hw-mul/libgcc.a(_umoddi3.o)
 .debug_ranges  0x00000ff8       0x50 /opt/altera/13.0sp1/nios2eds/bin/gnu/H-i686-pc-linux-gnu/bin/../lib/gcc/nios2-elf/4.1.2/mno-hw-mul/libgcc.a(_div_df.o)
 .debug_ranges  0x00001048       0x18 /opt/altera/13.0sp1/nios2eds/bin/gnu/H-i686-pc-linux-gnu/bin/../lib/gcc/nios2-elf/4.1.2/mno-hw-mul/libgcc.a(_usi_to_df.o)
