
task6_0.elf:     file format elf32-littlenios2
task6_0.elf
architecture: nios2, flags 0x00000112:
EXEC_P, HAS_SYMS, D_PAGED
start address 0x0008014c

Program Header:
    LOAD off    0x00001000 vaddr 0x00080000 paddr 0x00080000 align 2**12
         filesz 0x00000020 memsz 0x00000020 flags r-x
    LOAD off    0x00001020 vaddr 0x00080020 paddr 0x00080020 align 2**12
         filesz 0x0000a3cc memsz 0x0000a3cc flags r-x
    LOAD off    0x0000b3ec vaddr 0x0008a3ec paddr 0x00096af4 align 2**12
         filesz 0x0000c708 memsz 0x0000c708 flags rw-
    LOAD off    0x000181fc vaddr 0x000a31fc paddr 0x000a31fc align 2**12
         filesz 0x00000000 memsz 0x00003fd0 flags rw-

Sections:
Idx Name          Size      VMA       LMA       File off  Algn
  0 .entry        00000020  00080000  00080000  00001000  2**5
                  CONTENTS, ALLOC, LOAD, READONLY, CODE
  1 .exceptions   0000012c  00080020  00080020  00001020  2**2
                  CONTENTS, ALLOC, LOAD, READONLY, CODE
  2 .text         00009e68  0008014c  0008014c  0000114c  2**2
                  CONTENTS, ALLOC, LOAD, READONLY, CODE
  3 .rodata       00000438  00089fb4  00089fb4  0000afb4  2**2
                  CONTENTS, ALLOC, LOAD, READONLY, DATA
  4 .rwdata       0000c708  0008a3ec  00096af4  0000b3ec  2**2
                  CONTENTS, ALLOC, LOAD, DATA, SMALL_DATA
  5 .bss          00003fd0  000a31fc  000a31fc  000181fc  2**2
                  ALLOC, SMALL_DATA
  6 .comment      00000026  00000000  00000000  00017af4  2**0
                  CONTENTS, READONLY
  7 .debug_aranges 00000998  00000000  00000000  00017b20  2**3
                  CONTENTS, READONLY, DEBUGGING
  8 .debug_pubnames 00001b3c  00000000  00000000  000184b8  2**0
                  CONTENTS, READONLY, DEBUGGING
  9 .debug_info   000172f7  00000000  00000000  00019ff4  2**0
                  CONTENTS, READONLY, DEBUGGING
 10 .debug_abbrev 00006381  00000000  00000000  000312eb  2**0
                  CONTENTS, READONLY, DEBUGGING
 11 .debug_line   00011c9c  00000000  00000000  0003766c  2**0
                  CONTENTS, READONLY, DEBUGGING
 12 .debug_frame  000017c0  00000000  00000000  00049308  2**2
                  CONTENTS, READONLY, DEBUGGING
 13 .debug_str    000035c2  00000000  00000000  0004aac8  2**0
                  CONTENTS, READONLY, DEBUGGING
 14 .debug_loc    00008c16  00000000  00000000  0004e08a  2**0
                  CONTENTS, READONLY, DEBUGGING
 15 .debug_alt_sim_info 00000010  00000000  00000000  00056ca0  2**2
                  CONTENTS, READONLY, DEBUGGING
 16 .debug_ranges 00000a18  00000000  00000000  00056cb0  2**3
                  CONTENTS, READONLY, DEBUGGING
 17 .thread_model 00000006  00000000  00000000  0005b48d  2**0
                  CONTENTS, READONLY
 18 .cpu          00000005  00000000  00000000  0005b493  2**0
                  CONTENTS, READONLY
 19 .qsys         00000001  00000000  00000000  0005b498  2**0
                  CONTENTS, READONLY
 20 .simulation_enabled 00000001  00000000  00000000  0005b499  2**0
                  CONTENTS, READONLY
 21 .sysid_hash   00000004  00000000  00000000  0005b49a  2**0
                  CONTENTS, READONLY
 22 .sysid_base   00000004  00000000  00000000  0005b49e  2**0
                  CONTENTS, READONLY
 23 .sysid_time   00000004  00000000  00000000  0005b4a2  2**0
                  CONTENTS, READONLY
 24 .stderr_dev   0000000b  00000000  00000000  0005b4a6  2**0
                  CONTENTS, READONLY
 25 .stdin_dev    0000000b  00000000  00000000  0005b4b1  2**0
                  CONTENTS, READONLY
 26 .stdout_dev   0000000b  00000000  00000000  0005b4bc  2**0
                  CONTENTS, READONLY
 27 .sopc_system_name 0000000b  00000000  00000000  0005b4c7  2**0
                  CONTENTS, READONLY
 28 .jdi          000175b7  00000000  00000000  0005b4d2  2**0
                  CONTENTS, READONLY
 29 .sopcinfo     00157894  00000000  00000000  00072a89  2**0
                  CONTENTS, READONLY
SYMBOL TABLE:
00080000 l    d  .entry	00000000 .entry
00080020 l    d  .exceptions	00000000 .exceptions
0008014c l    d  .text	00000000 .text
00089fb4 l    d  .rodata	00000000 .rodata
0008a3ec l    d  .rwdata	00000000 .rwdata
000a31fc l    d  .bss	00000000 .bss
00000000 l    d  .comment	00000000 .comment
00000000 l    d  .debug_aranges	00000000 .debug_aranges
00000000 l    d  .debug_pubnames	00000000 .debug_pubnames
00000000 l    d  .debug_info	00000000 .debug_info
00000000 l    d  .debug_abbrev	00000000 .debug_abbrev
00000000 l    d  .debug_line	00000000 .debug_line
00000000 l    d  .debug_frame	00000000 .debug_frame
00000000 l    d  .debug_str	00000000 .debug_str
00000000 l    d  .debug_loc	00000000 .debug_loc
00000000 l    d  .debug_alt_sim_info	00000000 .debug_alt_sim_info
00000000 l    d  .debug_ranges	00000000 .debug_ranges
00080184 l       .text	00000000 alt_after_alt_main
00000000 l    df *ABS*	00000000 alt_irq_handler.c
00000000 l    df *ABS*	00000000 cpu_0.c
00089fd8 l     O .rodata	00000010 C.13.2944
00000000 l    df *ABS*	00000000 lib2-divmod.c
0008084c l     F .text	0000007c udivmodsi4
00000000 l    df *ABS*	00000000 lib2-mul.c
00000000 l    df *ABS*	00000000 malloc.c
00000000 l    df *ABS*	00000000 mallocr.c
00000000 l    df *ABS*	00000000 memcpy.c
00000000 l    df *ABS*	00000000 putchar.c
00000000 l    df *ABS*	00000000 puts.c
00000000 l    df *ABS*	00000000 sbrkr.c
00000000 l    df *ABS*	00000000 strlen.c
00000000 l    df *ABS*	00000000 mallocr.c
00000000 l    df *ABS*	00000000 fvwrite_small_dev.c
00000000 l    df *ABS*	00000000 impure.c
00096810 l     O .rwdata	000000e0 impure_data
00000000 l    df *ABS*	00000000 int_errno.c
00000000 l    df *ABS*	00000000 putc.c
00000000 l    df *ABS*	00000000 writer.c
00000000 l    df *ABS*	00000000 alt_load.c
00081914 l     F .text	00000020 alt_load_section
00000000 l    df *ABS*	00000000 alt_main.c
00000000 l    df *ABS*	00000000 alt_sbrk.c
00096a44 l     O .rwdata	00000004 heap_end
00000000 l    df *ABS*	00000000 alt_write.c
00000000 l    df *ABS*	00000000 alt_env_lock.c
000a3218 l     O .bss	00000004 locks
00096a48 l     O .rwdata	00000004 lockid
00000000 l    df *ABS*	00000000 alt_malloc_lock.c
000a3220 l     O .bss	00000004 locks
00096a4c l     O .rwdata	00000004 lockid
00000000 l    df *ABS*	00000000 os_core.c
00000000 l    df *ABS*	00000000 os_dbg.c
00000000 l    df *ABS*	00000000 os_flag.c
00082dd0 l     F .text	000000b8 OS_FlagBlock
00082ec4 l     F .text	00000090 OS_FlagTaskRdy
00000000 l    df *ABS*	00000000 os_mem.c
00000000 l    df *ABS*	00000000 os_q.c
00000000 l    df *ABS*	00000000 os_sem.c
00000000 l    df *ABS*	00000000 os_task.c
00000000 l    df *ABS*	00000000 os_time.c
00000000 l    df *ABS*	00000000 os_tmr.c
00085f74 l     F .text	00000068 OSTmr_Free
00085fdc l     F .text	000000a0 OSTmr_Link
0008607c l     F .text	00000064 OSTmr_Unlink
0008627c l     F .text	000000c0 OSTmr_Task
00086240 l     F .text	0000002c OSTmr_Lock
0008626c l     F .text	00000010 OSTmr_Unlock
00000000 l    df *ABS*	00000000 alt_sys_init.c
00086b08 l     F .text	0000000c alt_dev_reg
00086b14 l     F .text	0000007c alt_avalon_mutex_reg
000968f0 l     O .rwdata	00000014 mutex_0
00096904 l     O .rwdata	00000014 mutex_1
00096918 l     O .rwdata	00000014 mutex_2
0009692c l     O .rwdata	00000014 mutex_3
00096940 l     O .rwdata	00000014 mutex_4
00096954 l     O .rwdata	0000002c Buttons
00096980 l     O .rwdata	0000002c HEX3_HEX0
000969ac l     O .rwdata	0000002c HEX7_HEX4
00000000 l    df *ABS*	00000000 altera_avalon_jtag_uart_write.c
00000000 l    df *ABS*	00000000 altera_avalon_mutex.c
00086cb8 l     F .text	00000028 alt_mutex_trylock
00000000 l    df *ABS*	00000000 altera_avalon_timer_sc.c
00086e34 l     F .text	0000003c alt_avalon_timer_sc_irq
00000000 l    df *ABS*	00000000 perf_print_formatted_report.c
00000000 l    df *ABS*	00000000 alt_close.c
00000000 l    df *ABS*	00000000 alt_dcache_flush_all.c
00000000 l    df *ABS*	00000000 alt_dev.c
000870dc l     F .text	00000008 alt_dev_null_write
00000000 l    df *ABS*	00000000 alt_dev_llist_insert.c
00000000 l    df *ABS*	00000000 alt_do_ctors.c
00000000 l    df *ABS*	00000000 alt_do_dtors.c
00000000 l    df *ABS*	00000000 alt_errno.c
00000000 l    df *ABS*	00000000 alt_find_dev.c
00000000 l    df *ABS*	00000000 alt_icache_flush_all.c
00000000 l    df *ABS*	00000000 alt_irq_register.c
00000000 l    df *ABS*	00000000 alt_irq_vars.c
00000000 l    df *ABS*	00000000 alt_tick.c
00000000 l    df *ABS*	00000000 altera_nios2_qsys_irq.c
00000040 l       *ABS*	00000000 OSCtxSw_SWITCH_PC
00000000 l    df *ABS*	00000000 os_cpu_c.c
000a32a0 l     O .bss	00000002 OSTmrCtr
00000014 l       *ABS*	00000000 OSTCBNext_OFFSET
00000032 l       *ABS*	00000000 OSTCBPrio_OFFSET
00000000 l       *ABS*	00000000 OSTCBStkPtr_OFFSET
00000000 l    df *ABS*	00000000 altera_avalon_performance_counter.c
00000000 l    df *ABS*	00000000 atexit.c
00000000 l    df *ABS*	00000000 exit.c
00000000 l    df *ABS*	00000000 memcmp.c
00000000 l    df *ABS*	00000000 memset.c
00000000 l    df *ABS*	00000000 printf.c
00000000 l    df *ABS*	00000000 vfprintf.c
00087850 l     F .text	00000080 print_repeat
00000000 l    df *ABS*	00000000 __atexit.c
00000000 l    df *ABS*	00000000 __call_atexit.c
000880fc l     F .text	00000004 register_fini
00000000 l    df *ABS*	00000000 libgcc2.c
00000000 l    df *ABS*	00000000 libgcc2.c
00000000 l    df *ABS*	00000000 libgcc2.c
00000000 l    df *ABS*	00000000 dp-bit.c
00088af0 l     F .text	00000410 _fpadd_parts
00000000 l    df *ABS*	00000000 dp-bit.c
00000000 l    df *ABS*	00000000 dp-bit.c
00000000 l    df *ABS*	00000000 dp-bit.c
00000000 l    df *ABS*	00000000 dp-bit.c
00000000 l    df *ABS*	00000000 dp-bit.c
00000000 l    df *ABS*	00000000 dp-bit.c
00000000 l    df *ABS*	00000000 dp-bit.c
00000000 l    df *ABS*	00000000 libgcc2.c
00000000 l    df *ABS*	00000000 libgcc2.c
00000000 l    df *ABS*	00000000 dp-bit.c
00000000 l    df *ABS*	00000000 dp-bit.c
00000000 l    df *ABS*	00000000 dp-bit.c
00000000 l    df *ABS*	00000000 alt_exit.c
00081164 g     F .text	0000001c putchar
00096a9a g     O .rwdata	00000002 OSTaskNameSize
000819a0 g     F .text	00000094 alt_main
00081188 g     F .text	00000090 _puts_r
000a3228 g     O .bss	00000004 OSTmrFreeList
000a7040 g     O .bss	00000100 alt_irq
000903f2 g     O .rwdata	00003003 test_ppm_3
00083a2c g     F .text	00000068 OS_MemInit
00096af4 g       *ABS*	00000000 __flash_rwdata_start
00085bfc g     F .text	00000024 OSTimeSet
000a32cc g     O .bss	00000010 OSTmrWheelTbl
00082468 g     F .text	00000358 OSEventPendMulti
000a71cc g       *ABS*	00000000 __alt_heap_start
000874a0 g     F .text	00000004 OSTaskCreateHook
000877b8 g     F .text	00000054 printf
00096a72 g     O .rwdata	00000002 OSMboxEn
000827c0 g     F .text	0000003c OSIntEnter
00080000 g       *ABS*	00000000 __alt_mem_sram
000876d4 g     F .text	0000000c alt_get_cpu_freq
00096a82 g     O .rwdata	00000002 OSQEn
00081ba4 g     F .text	0000005c __malloc_unlock
000874ac g     F .text	00000004 OSTaskStatHook
000a322c g     O .bss	00000001 OSLockNesting
000a3230 g     O .bss	00000004 OSTmrSemSignal
00096ac0 g     O .rwdata	00000002 OSDataSize
000a3234 g     O .bss	00000001 OSRunning
000874b0 g     F .text	00000008 OSInitHookBegin
00086e70 g     F .text	00000228 perf_print_formatted_report
00096ab8 g     O .rwdata	00000002 OSTmrSize
00086d04 g     F .text	0000005c altera_avalon_mutex_trylock
000801cc g     F .text	00000034 copyImageGray
000a3238 g     O .bss	00000004 OSIdleCtr
0008747c g       .text	00000000 OSStartTsk
00000000  w      *UND*	00000000 __errno
00082ab8 g     F .text	00000184 OS_TCBInit
00096a30 g     O .rwdata	00000001 sequence_length
00080000 g     F .entry	0000000c __reset
000a323c g     O .bss	00000002 OSTmrUsed
00096abe g     O .rwdata	00000002 OSTmrWheelTblSize
00086c90 g     F .text	00000028 altera_avalon_mutex_is_mine
00080020 g       *ABS*	00000000 __flash_exceptions_start
00096a5e g     O .rwdata	00000002 OSEventSize
000a323e g     O .bss	00000001 OSPrioHighRdy
000874a4 g     F .text	00000004 OSTaskDelHook
000a3208 g     O .bss	00000004 errno
0008745c g       .text	00000000 OSStartHighRdy
00085228 g     F .text	00000178 OSTaskCreateExt
0008380c g     F .text	0000002c OSFlagPendGetFlagsRdy
00096a9e g     O .rwdata	00000002 OSTaskStatStkSize
00083020 g     F .text	00000170 OSFlagAccept
000841ec g     F .text	00000050 OSQFlush
00083ecc g     F .text	0000009c OSQAccept
000a3210 g     O .bss	00000004 alt_argv
0009ea30 g       *ABS*	00000000 _gp
000804cc g     F .text	000000b8 reset
0008511c g     F .text	0000010c OSTaskCreate
00084e80 g     F .text	0000029c OSTaskChangePrio
000a3224 g     O .bss	00000004 alt_heapsem
00082dcc g     F .text	00000004 OSDebugInit
000853a0 g     F .text	0000024c OSTaskDel
00096a00 g     O .rwdata	00000030 alt_fd_list
000a32dc g     O .bss	00000370 OSFlagTbl
00081180 g     F .text	00000008 _putchar_r
00081de4 g     F .text	0000004c OS_EventTaskRemove
000871d4 g     F .text	00000070 alt_find_dev
00081138 g     F .text	0000002c memcpy
00096a88 g     O .rwdata	00000002 OSRdyTblSize
000a364c g     O .bss	00000340 OSTmrTbl
00089698 g     F .text	000000f8 __floatsidf
00089fb4 g       *ABS*	00000000 __DTOR_END__
00081218 g     F .text	00000014 puts
000823b0 g     F .text	000000b8 OSEventNameGet
00096a6c g     O .rwdata	00000002 OSFlagMax
00082c3c g     F .text	000000d4 OSIntExit
00096aa6 g     O .rwdata	00000002 OSTCBSize
000963f8 g     O .rwdata	00000010 image_sequence
000a323f g     O .bss	00000001 OSPrioCur
000809e4 g     F .text	00000014 malloc
0008780c g     F .text	00000044 _printf_r
00080988 g     F .text	00000008 __udivsi3
00096a8c g     O .rwdata	00000002 OSStkWidth
00096a80 g     O .rwdata	00000002 OSPtrSize
00096a60 g     O .rwdata	00000002 OSEventTblSize
000883e0 g     F .text	000000a4 __fixunsdfsi
000873d0 g       .text	00000000 OSCtxSw
000a31fc g     O .bss	00000004 __malloc_top_pad
000a3240 g     O .bss	00000004 OSTCBList
00086858 g     F .text	00000028 OSTmrSignal
000876e0 g     F .text	00000010 perf_get_num_starts
000a3290 g     O .bss	00000004 alt_fd_list_lock
000a398c g     O .bss	00000c30 OSMemTbl
000a3244 g     O .bss	00000001 OSTickStepState
0008122c g     F .text	00000070 _sbrk_r
00096a84 g     O .rwdata	00000002 OSQMax
000a45bc g     O .bss	00000800 OSTaskStatStk
00083c34 g     F .text	0000009c OSMemNameGet
00096a64 g     O .rwdata	00000002 OSFlagEn
00096aaa g     O .rwdata	00000002 OSTimeTickHookEn
000844e4 g     F .text	000000bc OSQPost
00082e88 g     F .text	0000003c OS_FlagUnlink
00096ae0 g     O .rwdata	00000004 alt_max_fd
00081fb8 g     F .text	00000024 OS_MemCopy
00089d90 g     F .text	00000138 __unpack_d
000820ac g     F .text	000000b8 OS_Sched
00083bc8 g     F .text	0000006c OSMemGet
000857a8 g     F .text	0000011c OSTaskNameSet
000a3200 g     O .bss	00000004 __malloc_max_sbrked_mem
000a3248 g     O .bss	00000004 OSCtxSwCtr
000874c4 g     F .text	00000058 OSTimeTickHook
000806bc g     F .text	00000104 printP3ToAscii
00087248 g     F .text	000000a0 alt_irq_register
00096a6e g     O .rwdata	00000002 OSFlagNameSize
00081e30 g     F .text	0000005c OS_EventTaskRemoveMulti
00088f80 g     F .text	00000074 __adddf3
00081d44 g     F .text	000000a0 OS_EventTaskWaitMulti
00096a86 g     O .rwdata	00000002 OSQSize
00086c80 g     F .text	00000010 altera_avalon_mutex_first_lock
00084a30 g     F .text	00000168 OSSemPend
00096a40 g     O .rwdata	00000004 _global_impure_ptr
00096a70 g     O .rwdata	00000002 OSLowestPrio
000a71cc g       *ABS*	00000000 __bss_end
000874c0 g     F .text	00000004 OSTCBInitHook
00096ab6 g     O .rwdata	00000002 OSTmrCfgTicksPerSec
0008731c g     F .text	000000ac alt_tick
00088484 g     F .text	0000066c __udivdi3
00096a58 g     O .rwdata	00000002 OSEventEn
00096ab2 g     O .rwdata	00000002 OSTmrCfgNameSize
00089868 g     F .text	00000194 __floatunsidf
000a324c g     O .bss	00000002 OSTmrFree
00082f54 g     F .text	00000070 OS_FlagInit
000872e8 g     F .text	00000034 alt_alarm_stop
0008675c g     F .text	000000fc OSTmrDel
00096a94 g     O .rwdata	00000002 OSTaskIdleStkSize
000a3294 g     O .bss	00000004 alt_irq_active
0008480c g     F .text	00000044 OSSemAccept
00083d8c g     F .text	00000058 OSMemPut
00083af8 g     F .text	000000d0 OSMemCreate
000a3250 g     O .bss	00000004 OSIdleCtrMax
000800ec g     F .exceptions	00000060 alt_irq_handler
000969d8 g     O .rwdata	00000028 alt_dev_null
00096aa8 g     O .rwdata	00000002 OSTicksPerSec
00086d60 g     F .text	00000058 altera_avalon_mutex_open
0008d3ef g     O .rwdata	00003003 test_ppm_2
000873d0 g       .text	00000000 OSIntCtxSw
000870d8 g     F .text	00000004 alt_dcache_flush_all
00089790 g     F .text	000000d8 __fixdfsi
000933f5 g     O .rwdata	00003003 test_ppm_4
000a3254 g     O .bss	00000004 OSTCBFreeList
00096af4 g       *ABS*	00000000 __ram_rwdata_end
00084b98 g     F .text	000000ec OSSemPendAbort
00096ad8 g     O .rwdata	00000008 alt_dev_list
00081a84 g     F .text	00000078 write
00081828 g     F .text	00000074 _putc_r
00096aac g     O .rwdata	00000002 OSVersionNbr
00096ac8 g     O .rwdata	00000008 alt_mutex_list
0008a3ec g       *ABS*	00000000 __ram_rodata_end
00096ac4 g     O .rwdata	00000004 jtag_uart_0
00086644 g     F .text	00000118 OSTmrRemainGet
00096a54 g     O .rwdata	00000004 OSEndiannessTest
00080990 g     F .text	00000008 __umodsi3
00096a66 g     O .rwdata	00000002 OSFlagGrpSize
00080368 g     F .text	00000164 executeGrayResizeAscii
0008659c g     F .text	000000a8 OSTmrStateGet
000a71cc g       *ABS*	00000000 end
00080188 g     F .text	00000044 copyImageP3
00082a34 g     F .text	00000084 OS_TaskStat
00089fb0 g       *ABS*	00000000 __CTOR_LIST__
00100000 g       *ABS*	00000000 __alt_stack_pointer
00086e04 g     F .text	00000030 alt_avalon_timer_sc_init
000899fc g     F .text	00000080 __clzsi2
00086c48 g     F .text	00000034 altera_avalon_jtag_uart_write
000860e0 g     F .text	00000160 OSTmr_Init
00081f9c g     F .text	0000001c OS_MemClr
000878d0 g     F .text	0000069c ___vfprintf_internal_r
0008751c g     F .text	000001ac OSTaskStkInit
000813e8 g     F .text	00000314 _free_r
00081e8c g     F .text	000000f4 OS_EventTaskRdy
00088100 g     F .text	000001bc __call_exitprocs
000a3258 g     O .bss	00000001 OSCPUUsage
00096a38 g     O .rwdata	00000004 __malloc_sbrk_base
0008014c g     F .text	0000003c _start
000a3298 g     O .bss	00000004 _alt_tick_rate
0008423c g     F .text	000001c0 OSQPend
00085c20 g     F .text	00000098 OSTimeDly
000a329c g     O .bss	00000004 _alt_nticks
00086b90 g     F .text	00000098 alt_sys_init
00087f90 g     F .text	0000016c __register_exitproc
000a3259 g     O .bss	00000001 OSTaskCtr
00086ce0 g     F .text	00000024 altera_avalon_mutex_unlock
00085cb8 g     F .text	000001a0 OSTimeDlyHMSM
00080998 g     F .text	00000038 __mulsi3
0008a3ec g       *ABS*	00000000 __ram_rwdata_start
00089fb4 g       *ABS*	00000000 __ram_rodata_start
000a32a4 g     O .bss	00000028 __malloc_current_mallinfo
00096a5a g     O .rwdata	00000002 OSEventMax
00084c84 g     F .text	0000009c OSSemPost
00082840 g     F .text	00000054 OSSchedUnlock
000a325c g     O .bss	00000004 OSMemFreeList
00082894 g     F .text	00000064 OSStatInit
00082fc4 g     F .text	0000005c OSFlagQuery
00089ec8 g     F .text	000000c8 __fpcmp_parts_d
00096a90 g     O .rwdata	00000002 OSTaskCreateExtEn
000876f0 g     F .text	00000030 perf_get_section_time
0008775c g     F .text	0000003c memcmp
00081cbc g     F .text	00000004 OS_Dummy
000a71cc g       *ABS*	00000000 __alt_stack_base
000a4dbc g     O .bss	000001e0 OSQTbl
000893b8 g     F .text	00000258 __divdf3
00087720 g     F .text	00000008 perf_get_total_time
00096408 g     O .rwdata	00000408 __malloc_av_
00088ff4 g     F .text	000003c4 __muldf3
000a3260 g     O .bss	00000004 OSTCBHighRdy
000a3264 g     O .bss	00000004 OSQFreeList
000870e4 g     F .text	00000070 alt_dev_llist_insert
00081c00 g     F .text	000000b4 __malloc_lock
00081a34 g     F .text	00000050 sbrk
00082d10 g     F .text	000000bc OSEventNameSet
000a3268 g     O .bss	00000001 OSRdyGrp
000816fc g     F .text	000000bc __sfvwrite_small_dev
00086498 g     F .text	00000104 OSTmrStart
000a31fc g       *ABS*	00000000 __bss_start
00087798 g     F .text	00000020 memset
00080584 g     F .text	00000138 main
000a3214 g     O .bss	00000004 alt_envp
000a3204 g     O .bss	00000004 __malloc_max_total_mem
00080200 g     F .text	00000168 splitImage
0008a006 g     O .rodata	00000100 OSUnMapTbl
00096a8a g     O .rwdata	00000002 OSSemEn
00083838 g     F .text	000001f4 OSFlagPost
00100000 g       *ABS*	00000000 __alt_heap_limit
00081cc0 g     F .text	00000084 OS_EventTaskWait
00082028 g     F .text	00000084 OS_TaskStatStkChk
000a7140 g     O .bss	0000008c _atexit0
00086db8 g     F .text	0000004c altera_avalon_mutex_lock
000855ec g     F .text	000000b4 OSTaskDelReq
000809f8 g     F .text	00000740 _malloc_r
00096ae4 g     O .rwdata	00000004 alt_errno
00082164 g     F .text	0000006c OSStart
00081afc g     F .text	00000028 __env_unlock
000858c4 g     F .text	00000104 OSTaskResume
00083a94 g     F .text	00000064 OSMemQuery
00096a9c g     O .rwdata	00000002 OSTaskStatEn
00096a76 g     O .rwdata	00000002 OSMemMax
000845a0 g     F .text	000000c4 OSQPostFront
000817b8 g     F .text	00000070 putc
000808c8 g     F .text	00000060 __divsi3
000a3269 g     O .bss	00000003 OSRdyTbl
00096a50 g     O .rwdata	00000002 OSDebugEn
0008a2d8 g     O .rodata	00000014 __thenan_df
000812bc g     F .text	0000012c _malloc_trim_r
00089fb4 g       *ABS*	00000000 __CTOR_END__
00096a68 g     O .rwdata	00000002 OSFlagNodeSize
00096ab0 g     O .rwdata	00000002 OSTmrCfgMax
00083f68 g     F .text	00000100 OSQCreate
000856a0 g     F .text	00000108 OSTaskNameGet
00089fb4 g       *ABS*	00000000 __flash_rodata_start
00084664 g     F .text	00000144 OSQPostOpt
000828f8 g     F .text	0000010c OSTimeTick
00096a98 g     O .rwdata	00000002 OSTaskMax
00089fb4 g       *ABS*	00000000 __DTOR_LIST__
00084850 g     F .text	0000008c OSSemCreate
00096abc g     O .rwdata	00000002 OSTmrWheelSize
00096a92 g     O .rwdata	00000002 OSTaskDelEn
0008a3ec g     O .rwdata	00003003 test_ppm_1
00084d20 g     F .text	00000068 OSSemQuery
00084068 g     F .text	00000184 OSQDel
000843fc g     F .text	000000e8 OSQPendAbort
00086c28 g     F .text	00000020 alt_irq_init
00102000 g       *ABS*	00000000 __alt_mem_shared_onchip
0008a2ec g     O .rodata	00000100 __clz_tab
000807c0 g     F .text	0000008c printAscii
0008633c g     F .text	0000015c OSTmrStop
00087728 g     F .text	00000014 atexit
0008189c g     F .text	00000078 _write_r
000827fc g     F .text	00000044 OSSchedLock
000a4f9c g     O .bss	00000800 OSTmrTaskStk
00083190 g     F .text	00000088 OSFlagCreate
00096a3c g     O .rwdata	00000004 _impure_ptr
000a320c g     O .bss	00000004 alt_argc
00087194 g     F .text	00000040 _do_dtors
00096a62 g     O .rwdata	00000002 OSEventMultiEn
0008696c g     F .text	0000019c OSTmrCreate
00083218 g     F .text	00000160 OSFlagDel
000a326c g     O .bss	00000004 OSEventFreeList
00080020 g       .exceptions	00000000 alt_irq_entry
0008350c g     F .text	00000300 OSFlagPend
00096aae g     O .rwdata	00000002 OSTmrEn
00096ad0 g     O .rwdata	00000008 alt_fs_list
00086880 g     F .text	000000ec OSTmrNameGet
00081fdc g     F .text	0000002c OS_StrCopy
00096a78 g     O .rwdata	00000002 OSMemNameSize
000874b8 g     F .text	00000004 OSInitHookEnd
00080020 g       *ABS*	00000000 __ram_exceptions_start
00096aa4 g     O .rwdata	00000002 OSTCBPrioTblMax
00096aa0 g     O .rwdata	00000002 OSTaskStatStkChkEn
00096a74 g     O .rwdata	00000002 OSMemEn
00096a7e g     O .rwdata	00000002 OSMutexEn
00096af4 g       *ABS*	00000000 _edata
000a71cc g       *ABS*	00000000 _end
000a3270 g     O .bss	00000001 OSIntNesting
0008014c g       *ABS*	00000000 __ram_exceptions_end
00085e58 g     F .text	000000f8 OSTimeDlyResume
00083438 g     F .text	000000d4 OSFlagNameSet
000859c8 g     F .text	000000f0 OSTaskStkChk
00096a7a g     O .rwdata	00000002 OSMemSize
00096a34 g     O .rwdata	00000004 __malloc_trim_threshold
000876c8 g     F .text	0000000c alt_get_performance_counter_base
000873c8 g     F .text	00000008 altera_nios2_qsys_irq_init
000a3274 g     O .bss	00000004 OSTCBCur
0008773c g     F .text	00000020 exit
00096a7c g     O .rwdata	00000002 OSMemTblSize
00080928 g     F .text	00000060 __modsi3
00100000 g       *ABS*	00000000 __alt_data_end
00080020 g     F .exceptions	00000000 alt_exception
000821d0 g     F .text	000001e0 OSInit
000a3278 g     O .bss	00000004 OSTmrTime
01000000 g       *ABS*	00000000 __alt_mem_sdram
00084db8 g     F .text	000000c8 OSTaskQuery
00083de4 g     F .text	00000050 OS_QInit
00082008 g     F .text	00000020 OS_StrLen
00083cd0 g     F .text	000000bc OSMemNameSet
00096a96 g     O .rwdata	00000002 OSTaskProfileEn
000a327c g     O .bss	00000004 OSTime
000a3280 g     O .bss	00000004 OSTmrSem
000a579c g     O .bss	00000800 OSTaskIdleStk
00089f90 g     F .text	00000020 _exit
00083378 g     F .text	000000c0 OSFlagNameGet
00085f50 g     F .text	00000024 OSTimeGet
000882bc g     F .text	00000124 __muldi3
0008129c g     F .text	00000020 strlen
000874a8 g     F .text	00000004 OSTaskSwHook
000a5f9c g     O .bss	00000b40 OSEventTbl
00089610 g     F .text	00000088 __gedf2
000a6adc g     O .bss	00000510 OSTCBTbl
000847a8 g     F .text	00000064 OSSemSet
00087244 g     F .text	00000004 alt_icache_flush_all
00096ae8 g     O .rwdata	00000004 alt_priority_mask
000848dc g     F .text	00000154 OSSemDel
000a3284 g     O .bss	00000004 OSFlagFreeList
00096a5c g     O .rwdata	00000002 OSEventNameSize
00087f6c g     F .text	00000024 __vfprintf_internal
000a3288 g     O .bss	00000001 OSStatRdy
00086c7c g     F .text	00000004 altera_avalon_mutex_close
000a6fec g     O .bss	00000054 OSTCBPrioTbl
00081b24 g     F .text	00000080 __env_lock
00096aa2 g     O .rwdata	00000002 OSTaskSwHookEn
00088f00 g     F .text	00000080 __subdf3
00096aec g     O .rwdata	00000008 alt_alarm_list
00096a6a g     O .rwdata	00000002 OSFlagWidth
00087154 g     F .text	00000040 _do_ctors
00087098 g     F .text	00000040 close
000a321c g     O .bss	00000004 alt_envsem
000a328c g     O .bss	00000004 OSIdleCtrRun
00081cb4 g     F .text	00000008 OSVersion
00096ab4 g     O .rwdata	00000002 OSTmrCfgWheelSize
00081934 g     F .text	0000006c alt_load
00084d88 g     F .text	00000030 OS_TaskStkClr
00089a7c g     F .text	00000314 __pack_d
00096a8e g     O .rwdata	00000002 OSTaskCreateEn
00081f80 g     F .text	0000001c OS_EventWaitListInit
000874bc g     F .text	00000004 OSTaskIdleHook
000809d0 g     F .text	00000014 free
00085ab8 g     F .text	00000144 OSTaskSuspend
00082a04 g     F .text	00000030 OS_TaskIdle
00096aba g     O .rwdata	00000002 OSTmrTblSize
00083e34 g     F .text	00000098 OSQQuery



Disassembly of section .entry:

00080000 <__reset>:
   80000:	00400234 	movhi	at,8
   80004:	08405314 	ori	at,at,332
   80008:	0800683a 	jmp	at
	...

Disassembly of section .exceptions:

00080020 <alt_exception>:
   80020:	deffed04 	addi	sp,sp,-76
   80024:	dfc00015 	stw	ra,0(sp)
   80028:	d8400215 	stw	at,8(sp)
   8002c:	d8800315 	stw	r2,12(sp)
   80030:	d8c00415 	stw	r3,16(sp)
   80034:	d9000515 	stw	r4,20(sp)
   80038:	d9400615 	stw	r5,24(sp)
   8003c:	d9800715 	stw	r6,28(sp)
   80040:	d9c00815 	stw	r7,32(sp)
   80044:	000b307a 	rdctl	r5,estatus
   80048:	da000915 	stw	r8,36(sp)
   8004c:	da400a15 	stw	r9,40(sp)
   80050:	da800b15 	stw	r10,44(sp)
   80054:	dac00c15 	stw	r11,48(sp)
   80058:	db000d15 	stw	r12,52(sp)
   8005c:	db400e15 	stw	r13,56(sp)
   80060:	db800f15 	stw	r14,60(sp)
   80064:	dbc01015 	stw	r15,64(sp)
   80068:	d9401115 	stw	r5,68(sp)
   8006c:	ebffff04 	addi	r15,ea,-4
   80070:	dbc01215 	stw	r15,72(sp)
   80074:	0009313a 	rdctl	r4,ipending
   80078:	2880004c 	andi	r2,r5,1
   8007c:	10000326 	beq	r2,zero,8008c <alt_exception+0x6c>
   80080:	20000226 	beq	r4,zero,8008c <alt_exception+0x6c>
   80084:	00800ec0 	call	800ec <alt_irq_handler>
   80088:	00000306 	br	80098 <alt_exception+0x78>
   8008c:	df401215 	stw	ea,72(sp)
   80090:	e8bfff17 	ldw	r2,-4(ea)
   80094:	003da03a 	break	0
   80098:	d9401117 	ldw	r5,68(sp)
   8009c:	df401217 	ldw	ea,72(sp)
   800a0:	dfc00017 	ldw	ra,0(sp)
   800a4:	2801707a 	wrctl	estatus,r5
   800a8:	d8400217 	ldw	at,8(sp)
   800ac:	d8800317 	ldw	r2,12(sp)
   800b0:	d8c00417 	ldw	r3,16(sp)
   800b4:	d9000517 	ldw	r4,20(sp)
   800b8:	d9400617 	ldw	r5,24(sp)
   800bc:	d9800717 	ldw	r6,28(sp)
   800c0:	d9c00817 	ldw	r7,32(sp)
   800c4:	da000917 	ldw	r8,36(sp)
   800c8:	da400a17 	ldw	r9,40(sp)
   800cc:	da800b17 	ldw	r10,44(sp)
   800d0:	dac00c17 	ldw	r11,48(sp)
   800d4:	db000d17 	ldw	r12,52(sp)
   800d8:	db400e17 	ldw	r13,56(sp)
   800dc:	db800f17 	ldw	r14,60(sp)
   800e0:	dbc01017 	ldw	r15,64(sp)
   800e4:	dec01304 	addi	sp,sp,76
   800e8:	ef80083a 	eret

000800ec <alt_irq_handler>:
   800ec:	deffff04 	addi	sp,sp,-4
   800f0:	dfc00015 	stw	ra,0(sp)
   800f4:	00827c00 	call	827c0 <OSIntEnter>
   800f8:	0009313a 	rdctl	r4,ipending
   800fc:	00c00044 	movi	r3,1
   80100:	000b883a 	mov	r5,zero
   80104:	018002b4 	movhi	r6,10
   80108:	319c1004 	addi	r6,r6,28736
   8010c:	20c4703a 	and	r2,r4,r3
   80110:	18c7883a 	add	r3,r3,r3
   80114:	10000726 	beq	r2,zero,80134 <alt_irq_handler+0x48>
   80118:	31000117 	ldw	r4,4(r6)
   8011c:	30800017 	ldw	r2,0(r6)
   80120:	103ee83a 	callr	r2
   80124:	0005313a 	rdctl	r2,ipending
   80128:	10000526 	beq	r2,zero,80140 <alt_irq_handler+0x54>
   8012c:	1009883a 	mov	r4,r2
   80130:	003ff206 	br	800fc <alt_irq_handler+0x10>
   80134:	29400044 	addi	r5,r5,1
   80138:	31800204 	addi	r6,r6,8
   8013c:	003ff306 	br	8010c <alt_irq_handler+0x20>
   80140:	dfc00017 	ldw	ra,0(sp)
   80144:	dec00104 	addi	sp,sp,4
   80148:	0082c3c1 	jmpi	82c3c <OSIntExit>

Disassembly of section .text:

0008014c <_start>:
   8014c:	06c00434 	movhi	sp,16
   80150:	dec00014 	ori	sp,sp,0
   80154:	06800274 	movhi	gp,9
   80158:	d6ba8c14 	ori	gp,gp,59952
   8015c:	008002b4 	movhi	r2,10
   80160:	108c7f14 	ori	r2,r2,12796
   80164:	00c002b4 	movhi	r3,10
   80168:	18dc7314 	ori	r3,r3,29132
   8016c:	10c00326 	beq	r2,r3,8017c <_start+0x30>
   80170:	10000015 	stw	zero,0(r2)
   80174:	10800104 	addi	r2,r2,4
   80178:	10fffd36 	bltu	r2,r3,80170 <_start+0x24>
   8017c:	00819340 	call	81934 <alt_load>
   80180:	00819a00 	call	819a0 <alt_main>

00080184 <alt_after_alt_main>:
   80184:	003fff06 	br	80184 <alt_after_alt_main>

00080188 <copyImageP3>:
   80188:	0011883a 	mov	r8,zero
   8018c:	00000b06 	br	801bc <copyImageP3+0x34>
   80190:	20800003 	ldbu	r2,0(r4)
   80194:	18c00044 	addi	r3,r3,1
   80198:	28800005 	stb	r2,0(r5)
   8019c:	20800043 	ldbu	r2,1(r4)
   801a0:	28800045 	stb	r2,1(r5)
   801a4:	20800083 	ldbu	r2,2(r4)
   801a8:	210000c4 	addi	r4,r4,3
   801ac:	28800085 	stb	r2,2(r5)
   801b0:	294000c4 	addi	r5,r5,3
   801b4:	19bff616 	blt	r3,r6,80190 <copyImageP3+0x8>
   801b8:	42000044 	addi	r8,r8,1
   801bc:	41c0020e 	bge	r8,r7,801c8 <copyImageP3+0x40>
   801c0:	0007883a 	mov	r3,zero
   801c4:	003ffb06 	br	801b4 <copyImageP3+0x2c>
   801c8:	f800283a 	ret

000801cc <copyImageGray>:
   801cc:	0011883a 	mov	r8,zero
   801d0:	00000706 	br	801f0 <copyImageGray+0x24>
   801d4:	20800003 	ldbu	r2,0(r4)
   801d8:	18c00044 	addi	r3,r3,1
   801dc:	21000044 	addi	r4,r4,1
   801e0:	28800005 	stb	r2,0(r5)
   801e4:	29400044 	addi	r5,r5,1
   801e8:	19bffa16 	blt	r3,r6,801d4 <copyImageGray+0x8>
   801ec:	42000044 	addi	r8,r8,1
   801f0:	41c0020e 	bge	r8,r7,801fc <copyImageGray+0x30>
   801f4:	0007883a 	mov	r3,zero
   801f8:	003ffb06 	br	801e8 <copyImageGray+0x1c>
   801fc:	f800283a 	ret

00080200 <splitImage>:
   80200:	db000017 	ldw	r12,0(sp)
   80204:	22c000c4 	addi	r11,r4,3
   80208:	5815883a 	mov	r10,r11
   8020c:	00004006 	br	80310 <splitImage+0x110>
   80210:	40800003 	ldbu	r2,0(r8)
   80214:	4a400044 	addi	r9,r9,1
   80218:	18800005 	stb	r2,0(r3)
   8021c:	40800043 	ldbu	r2,1(r8)
   80220:	18800045 	stb	r2,1(r3)
   80224:	40800083 	ldbu	r2,2(r8)
   80228:	420000c4 	addi	r8,r8,3
   8022c:	18800085 	stb	r2,2(r3)
   80230:	00801004 	movi	r2,64
   80234:	18c000c4 	addi	r3,r3,3
   80238:	48bff51e 	bne	r9,r2,80210 <splitImage+0x10>
   8023c:	52803004 	addi	r10,r10,192
   80240:	208300c4 	addi	r2,r4,3075
   80244:	29403004 	addi	r5,r5,192
   80248:	50803526 	beq	r10,r2,80320 <splitImage+0x120>
   8024c:	00003006 	br	80310 <splitImage+0x110>
   80250:	28800003 	ldbu	r2,0(r5)
   80254:	42000044 	addi	r8,r8,1
   80258:	18800005 	stb	r2,0(r3)
   8025c:	28800043 	ldbu	r2,1(r5)
   80260:	18800045 	stb	r2,1(r3)
   80264:	28800083 	ldbu	r2,2(r5)
   80268:	294000c4 	addi	r5,r5,3
   8026c:	18800085 	stb	r2,2(r3)
   80270:	00801004 	movi	r2,64
   80274:	18c000c4 	addi	r3,r3,3
   80278:	40bff51e 	bne	r8,r2,80250 <splitImage+0x50>
   8027c:	4a403004 	addi	r9,r9,192
   80280:	208600c4 	addi	r2,r4,6147
   80284:	31803004 	addi	r6,r6,192
   80288:	48802b26 	beq	r9,r2,80338 <splitImage+0x138>
   8028c:	00002606 	br	80328 <splitImage+0x128>
   80290:	28800003 	ldbu	r2,0(r5)
   80294:	31800044 	addi	r6,r6,1
   80298:	18800005 	stb	r2,0(r3)
   8029c:	28800043 	ldbu	r2,1(r5)
   802a0:	18800045 	stb	r2,1(r3)
   802a4:	28800083 	ldbu	r2,2(r5)
   802a8:	294000c4 	addi	r5,r5,3
   802ac:	18800085 	stb	r2,2(r3)
   802b0:	00801004 	movi	r2,64
   802b4:	18c000c4 	addi	r3,r3,3
   802b8:	30bff51e 	bne	r6,r2,80290 <splitImage+0x90>
   802bc:	42003004 	addi	r8,r8,192
   802c0:	208900c4 	addi	r2,r4,9219
   802c4:	39c03004 	addi	r7,r7,192
   802c8:	40802126 	beq	r8,r2,80350 <splitImage+0x150>
   802cc:	00001c06 	br	80340 <splitImage+0x140>
   802d0:	28800003 	ldbu	r2,0(r5)
   802d4:	31800044 	addi	r6,r6,1
   802d8:	18800005 	stb	r2,0(r3)
   802dc:	28800043 	ldbu	r2,1(r5)
   802e0:	18800045 	stb	r2,1(r3)
   802e4:	28800083 	ldbu	r2,2(r5)
   802e8:	294000c4 	addi	r5,r5,3
   802ec:	18800085 	stb	r2,2(r3)
   802f0:	00801004 	movi	r2,64
   802f4:	18c000c4 	addi	r3,r3,3
   802f8:	30bff51e 	bne	r6,r2,802d0 <splitImage+0xd0>
   802fc:	39c03004 	addi	r7,r7,192
   80300:	208c00c4 	addi	r2,r4,12291
   80304:	63003004 	addi	r12,r12,192
   80308:	38801626 	beq	r7,r2,80364 <splitImage+0x164>
   8030c:	00001106 	br	80354 <splitImage+0x154>
   80310:	5011883a 	mov	r8,r10
   80314:	2807883a 	mov	r3,r5
   80318:	0013883a 	mov	r9,zero
   8031c:	003fbc06 	br	80210 <splitImage+0x10>
   80320:	5a830004 	addi	r10,r11,3072
   80324:	5013883a 	mov	r9,r10
   80328:	480b883a 	mov	r5,r9
   8032c:	3007883a 	mov	r3,r6
   80330:	0011883a 	mov	r8,zero
   80334:	003fc606 	br	80250 <splitImage+0x50>
   80338:	52430004 	addi	r9,r10,3072
   8033c:	4811883a 	mov	r8,r9
   80340:	400b883a 	mov	r5,r8
   80344:	3807883a 	mov	r3,r7
   80348:	000d883a 	mov	r6,zero
   8034c:	003fd006 	br	80290 <splitImage+0x90>
   80350:	49c30004 	addi	r7,r9,3072
   80354:	380b883a 	mov	r5,r7
   80358:	6007883a 	mov	r3,r12
   8035c:	000d883a 	mov	r6,zero
   80360:	003fdb06 	br	802d0 <splitImage+0xd0>
   80364:	f800283a 	ret

00080368 <executeGrayResizeAscii>:
   80368:	defffa04 	addi	sp,sp,-24
   8036c:	dd000415 	stw	r20,16(sp)
   80370:	dcc00315 	stw	r19,12(sp)
   80374:	dc800215 	stw	r18,8(sp)
   80378:	dc400115 	stw	r17,4(sp)
   8037c:	dc000015 	stw	r16,0(sp)
   80380:	dfc00515 	stw	ra,20(sp)
   80384:	00c00804 	movi	r3,32
   80388:	00bfffc4 	movi	r2,-1
   8038c:	dd000617 	ldw	r20,24(sp)
   80390:	3821883a 	mov	r16,r7
   80394:	38c00045 	stb	r3,1(r7)
   80398:	38800085 	stb	r2,2(r7)
   8039c:	38c00005 	stb	r3,0(r7)
   803a0:	2827883a 	mov	r19,r5
   803a4:	3025883a 	mov	r18,r6
   803a8:	3c4000c4 	addi	r17,r7,3
   803ac:	99000017 	ldw	r4,0(r19)
   803b0:	01400434 	movhi	r5,16
   803b4:	29484004 	addi	r5,r5,8448
   803b8:	01801004 	movi	r6,64
   803bc:	01c00404 	movi	r7,16
   803c0:	00801880 	call	80188 <copyImageP3>
   803c4:	00c00044 	movi	r3,1
   803c8:	00800434 	movhi	r2,16
   803cc:	108801c4 	addi	r2,r2,8199
   803d0:	10c00025 	stbio	r3,0(r2)
   803d4:	10c5883a 	add	r2,r2,r3
   803d8:	10c00025 	stbio	r3,0(r2)
   803dc:	10c5883a 	add	r2,r2,r3
   803e0:	10c00025 	stbio	r3,0(r2)
   803e4:	01800434 	movhi	r6,16
   803e8:	31880084 	addi	r6,r6,8194
   803ec:	30800023 	ldbuio	r2,0(r6)
   803f0:	01400434 	movhi	r5,16
   803f4:	294800c4 	addi	r5,r5,8195
   803f8:	10fffc1e 	bne	r2,r3,803ec <executeGrayResizeAscii+0x84>
   803fc:	29000023 	ldbuio	r4,0(r5)
   80400:	20bffa1e 	bne	r4,r2,803ec <executeGrayResizeAscii+0x84>
   80404:	30000025 	stbio	zero,0(r6)
   80408:	28000025 	stbio	zero,0(r5)
   8040c:	00800434 	movhi	r2,16
   80410:	10880184 	addi	r2,r2,8198
   80414:	11000025 	stbio	r4,0(r2)
   80418:	01000434 	movhi	r4,16
   8041c:	210c4004 	addi	r4,r4,12544
   80420:	900b883a 	mov	r5,r18
   80424:	01801004 	movi	r6,64
   80428:	01c00404 	movi	r7,16
   8042c:	00801cc0 	call	801cc <copyImageGray>
   80430:	00c00044 	movi	r3,1
   80434:	01000434 	movhi	r4,16
   80438:	21080104 	addi	r4,r4,8196
   8043c:	20800023 	ldbuio	r2,0(r4)
   80440:	10fffe1e 	bne	r2,r3,8043c <executeGrayResizeAscii+0xd4>
   80444:	20000025 	stbio	zero,0(r4)
   80448:	01000434 	movhi	r4,16
   8044c:	210e4004 	addi	r4,r4,14592
   80450:	880b883a 	mov	r5,r17
   80454:	01800804 	movi	r6,32
   80458:	01c00204 	movi	r7,8
   8045c:	00801880 	call	80188 <copyImageP3>
   80460:	00c00044 	movi	r3,1
   80464:	01000434 	movhi	r4,16
   80468:	21080044 	addi	r4,r4,8193
   8046c:	20800023 	ldbuio	r2,0(r4)
   80470:	10fffe1e 	bne	r2,r3,8046c <executeGrayResizeAscii+0x104>
   80474:	20000025 	stbio	zero,0(r4)
   80478:	01000434 	movhi	r4,16
   8047c:	210d4004 	addi	r4,r4,13568
   80480:	a00b883a 	mov	r5,r20
   80484:	01801004 	movi	r6,64
   80488:	01c00404 	movi	r7,16
   8048c:	00801cc0 	call	801cc <copyImageGray>
   80490:	808240c4 	addi	r2,r16,2307
   80494:	9cc00104 	addi	r19,r19,4
   80498:	88800426 	beq	r17,r2,804ac <executeGrayResizeAscii+0x144>
   8049c:	94810004 	addi	r18,r18,1024
   804a0:	8c40c004 	addi	r17,r17,768
   804a4:	a5010004 	addi	r20,r20,1024
   804a8:	003fc006 	br	803ac <executeGrayResizeAscii+0x44>
   804ac:	dfc00517 	ldw	ra,20(sp)
   804b0:	dd000417 	ldw	r20,16(sp)
   804b4:	dcc00317 	ldw	r19,12(sp)
   804b8:	dc800217 	ldw	r18,8(sp)
   804bc:	dc400117 	ldw	r17,4(sp)
   804c0:	dc000017 	ldw	r16,0(sp)
   804c4:	dec00604 	addi	sp,sp,24
   804c8:	f800283a 	ret

000804cc <reset>:
   804cc:	defffd04 	addi	sp,sp,-12
   804d0:	00800434 	movhi	r2,16
   804d4:	10880044 	addi	r2,r2,8193
   804d8:	dfc00215 	stw	ra,8(sp)
   804dc:	dc400115 	stw	r17,4(sp)
   804e0:	dc000015 	stw	r16,0(sp)
   804e4:	10000025 	stbio	zero,0(r2)
   804e8:	10800044 	addi	r2,r2,1
   804ec:	10000025 	stbio	zero,0(r2)
   804f0:	10800044 	addi	r2,r2,1
   804f4:	10000025 	stbio	zero,0(r2)
   804f8:	10800044 	addi	r2,r2,1
   804fc:	10000025 	stbio	zero,0(r2)
   80500:	10800084 	addi	r2,r2,2
   80504:	10000025 	stbio	zero,0(r2)
   80508:	10800044 	addi	r2,r2,1
   8050c:	10000025 	stbio	zero,0(r2)
   80510:	10800044 	addi	r2,r2,1
   80514:	10000025 	stbio	zero,0(r2)
   80518:	10800044 	addi	r2,r2,1
   8051c:	10000025 	stbio	zero,0(r2)
   80520:	01400144 	movi	r5,5
   80524:	00809280 	call	80928 <__modsi3>
   80528:	04400434 	movhi	r17,16
   8052c:	8c540004 	addi	r17,r17,20480
   80530:	04000044 	movi	r16,1
   80534:	800d883a 	mov	r6,r16
   80538:	8809883a 	mov	r4,r17
   8053c:	0140bef4 	movhi	r5,763
   80540:	297c2004 	addi	r5,r5,-3968
   80544:	01c00274 	movhi	r7,9
   80548:	39e7ed04 	addi	r7,r7,-24652
   8054c:	1000051e 	bne	r2,zero,80564 <reset+0x98>
   80550:	0086e700 	call	86e70 <perf_print_formatted_report>
   80554:	8c000035 	stwio	r16,0(r17)
   80558:	00800434 	movhi	r2,16
   8055c:	10940104 	addi	r2,r2,20484
   80560:	10000035 	stwio	zero,0(r2)
   80564:	00800434 	movhi	r2,16
   80568:	10946404 	addi	r2,r2,20880
   8056c:	10000035 	stwio	zero,0(r2)
   80570:	dfc00217 	ldw	ra,8(sp)
   80574:	dc400117 	ldw	r17,4(sp)
   80578:	dc000017 	ldw	r16,0(sp)
   8057c:	dec00304 	addi	sp,sp,12
   80580:	f800283a 	ret

00080584 <main>:
   80584:	defff104 	addi	sp,sp,-60
   80588:	01000274 	movhi	r4,9
   8058c:	2127f304 	addi	r4,r4,-24628
   80590:	dfc00e15 	stw	ra,56(sp)
   80594:	df000d15 	stw	fp,52(sp)
   80598:	ddc00c15 	stw	r23,48(sp)
   8059c:	dd800b15 	stw	r22,44(sp)
   805a0:	dd400a15 	stw	r21,40(sp)
   805a4:	dd000915 	stw	r20,36(sp)
   805a8:	dcc00815 	stw	r19,32(sp)
   805ac:	dc800715 	stw	r18,28(sp)
   805b0:	dc400615 	stw	r17,24(sp)
   805b4:	dc000515 	stw	r16,20(sp)
   805b8:	00812180 	call	81218 <puts>
   805bc:	01030004 	movi	r4,3072
   805c0:	00809e40 	call	809e4 <malloc>
   805c4:	01030004 	movi	r4,3072
   805c8:	102d883a 	mov	r22,r2
   805cc:	00809e40 	call	809e4 <malloc>
   805d0:	01030004 	movi	r4,3072
   805d4:	102b883a 	mov	r21,r2
   805d8:	00809e40 	call	809e4 <malloc>
   805dc:	01030004 	movi	r4,3072
   805e0:	1027883a 	mov	r19,r2
   805e4:	00809e40 	call	809e4 <malloc>
   805e8:	01040004 	movi	r4,4096
   805ec:	1025883a 	mov	r18,r2
   805f0:	dd800115 	stw	r22,4(sp)
   805f4:	dd400215 	stw	r21,8(sp)
   805f8:	dcc00315 	stw	r19,12(sp)
   805fc:	d8800415 	stw	r2,16(sp)
   80600:	00809e40 	call	809e4 <malloc>
   80604:	01040004 	movi	r4,4096
   80608:	1039883a 	mov	fp,r2
   8060c:	00809e40 	call	809e4 <malloc>
   80610:	010300c4 	movi	r4,3075
   80614:	102f883a 	mov	r23,r2
   80618:	00809e40 	call	809e4 <malloc>
   8061c:	1029883a 	mov	r20,r2
   80620:	0023883a 	mov	r17,zero
   80624:	0021883a 	mov	r16,zero
   80628:	8809883a 	mov	r4,r17
   8062c:	00804cc0 	call	804cc <reset>
   80630:	00800434 	movhi	r2,16
   80634:	10940504 	addi	r2,r2,20500
   80638:	10000035 	stwio	zero,0(r2)
   8063c:	8405883a 	add	r2,r16,r16
   80640:	00c00274 	movhi	r3,9
   80644:	18d8fe04 	addi	r3,r3,25592
   80648:	1085883a 	add	r2,r2,r2
   8064c:	10c5883a 	add	r2,r2,r3
   80650:	11000017 	ldw	r4,0(r2)
   80654:	b00b883a 	mov	r5,r22
   80658:	a80d883a 	mov	r6,r21
   8065c:	980f883a 	mov	r7,r19
   80660:	dc800015 	stw	r18,0(sp)
   80664:	00802000 	call	80200 <splitImage>
   80668:	8009883a 	mov	r4,r16
   8066c:	d9400104 	addi	r5,sp,4
   80670:	e00d883a 	mov	r6,fp
   80674:	a00f883a 	mov	r7,r20
   80678:	ddc00015 	stw	r23,0(sp)
   8067c:	00803680 	call	80368 <executeGrayResizeAscii>
   80680:	00800434 	movhi	r2,16
   80684:	10940404 	addi	r2,r2,20496
   80688:	10000035 	stwio	zero,0(r2)
   8068c:	00c00044 	movi	r3,1
   80690:	10806004 	addi	r2,r2,384
   80694:	10c00035 	stwio	r3,0(r2)
   80698:	88c9883a 	add	r4,r17,r3
   8069c:	01400144 	movi	r5,5
   806a0:	00809280 	call	80928 <__modsi3>
   806a4:	d1600007 	ldb	r5,-32768(gp)
   806a8:	81000044 	addi	r4,r16,1
   806ac:	1023883a 	mov	r17,r2
   806b0:	00809280 	call	80928 <__modsi3>
   806b4:	1021883a 	mov	r16,r2
   806b8:	003fdb06 	br	80628 <main+0xa4>

000806bc <printP3ToAscii>:
   806bc:	defff304 	addi	sp,sp,-52
   806c0:	ddc00b15 	stw	r23,44(sp)
   806c4:	dcc00715 	stw	r19,28(sp)
   806c8:	dc000415 	stw	r16,16(sp)
   806cc:	2827883a 	mov	r19,r5
   806d0:	2021883a 	mov	r16,r4
   806d4:	302f883a 	mov	r23,r6
   806d8:	d809883a 	mov	r4,sp
   806dc:	01400274 	movhi	r5,9
   806e0:	2967f604 	addi	r5,r5,-24616
   806e4:	01800404 	movi	r6,16
   806e8:	dd800a15 	stw	r22,40(sp)
   806ec:	dd400915 	stw	r21,36(sp)
   806f0:	dd000815 	stw	r20,32(sp)
   806f4:	dfc00c15 	stw	ra,48(sp)
   806f8:	dc800615 	stw	r18,24(sp)
   806fc:	dc400515 	stw	r17,20(sp)
   80700:	00811380 	call	81138 <memcpy>
   80704:	9cc5883a 	add	r2,r19,r19
   80708:	14ed883a 	add	r22,r2,r19
   8070c:	8029883a 	mov	r20,r16
   80710:	002b883a 	mov	r21,zero
   80714:	00001b06 	br	80784 <printP3ToAscii+0xc8>
   80718:	893fff43 	ldbu	r4,-3(r17)
   8071c:	94800044 	addi	r18,r18,1
   80720:	00809980 	call	80998 <__mulsi3>
   80724:	893fff83 	ldbu	r4,-2(r17)
   80728:	01400244 	movi	r5,9
   8072c:	1021883a 	mov	r16,r2
   80730:	00809980 	call	80998 <__mulsi3>
   80734:	88ffffc3 	ldbu	r3,-1(r17)
   80738:	80a1883a 	add	r16,r16,r2
   8073c:	01400444 	movi	r5,17
   80740:	18c7883a 	add	r3,r3,r3
   80744:	80c9883a 	add	r4,r16,r3
   80748:	2000010e 	bge	r4,zero,80750 <printP3ToAscii+0x94>
   8074c:	210003c4 	addi	r4,r4,15
   80750:	2009d13a 	srai	r4,r4,4
   80754:	21003fcc 	andi	r4,r4,255
   80758:	00808c80 	call	808c8 <__divsi3>
   8075c:	d885883a 	add	r2,sp,r2
   80760:	11000007 	ldb	r4,0(r2)
   80764:	00811640 	call	81164 <putchar>
   80768:	01400144 	movi	r5,5
   8076c:	8c4000c4 	addi	r17,r17,3
   80770:	94ffe916 	blt	r18,r19,80718 <printP3ToAscii+0x5c>
   80774:	01000284 	movi	r4,10
   80778:	00811640 	call	81164 <putchar>
   8077c:	ad400044 	addi	r21,r21,1
   80780:	a5a9883a 	add	r20,r20,r22
   80784:	adc0030e 	bge	r21,r23,80794 <printP3ToAscii+0xd8>
   80788:	a023883a 	mov	r17,r20
   8078c:	0025883a 	mov	r18,zero
   80790:	003ff506 	br	80768 <printP3ToAscii+0xac>
   80794:	dfc00c17 	ldw	ra,48(sp)
   80798:	ddc00b17 	ldw	r23,44(sp)
   8079c:	dd800a17 	ldw	r22,40(sp)
   807a0:	dd400917 	ldw	r21,36(sp)
   807a4:	dd000817 	ldw	r20,32(sp)
   807a8:	dcc00717 	ldw	r19,28(sp)
   807ac:	dc800617 	ldw	r18,24(sp)
   807b0:	dc400517 	ldw	r17,20(sp)
   807b4:	dc000417 	ldw	r16,16(sp)
   807b8:	dec00d04 	addi	sp,sp,52
   807bc:	f800283a 	ret

000807c0 <printAscii>:
   807c0:	defff904 	addi	sp,sp,-28
   807c4:	dd400515 	stw	r21,20(sp)
   807c8:	dd000415 	stw	r20,16(sp)
   807cc:	dcc00315 	stw	r19,12(sp)
   807d0:	dc800215 	stw	r18,8(sp)
   807d4:	2829883a 	mov	r20,r5
   807d8:	302b883a 	mov	r21,r6
   807dc:	2025883a 	mov	r18,r4
   807e0:	0027883a 	mov	r19,zero
   807e4:	dfc00615 	stw	ra,24(sp)
   807e8:	dc400115 	stw	r17,4(sp)
   807ec:	dc000015 	stw	r16,0(sp)
   807f0:	00000906 	br	80818 <printAscii+0x58>
   807f4:	893fffc3 	ldbu	r4,-1(r17)
   807f8:	84000044 	addi	r16,r16,1
   807fc:	00811640 	call	81164 <putchar>
   80800:	8c400044 	addi	r17,r17,1
   80804:	853ffb16 	blt	r16,r20,807f4 <printAscii+0x34>
   80808:	01000284 	movi	r4,10
   8080c:	00811640 	call	81164 <putchar>
   80810:	9cc00044 	addi	r19,r19,1
   80814:	9525883a 	add	r18,r18,r20
   80818:	9d40030e 	bge	r19,r21,80828 <printAscii+0x68>
   8081c:	9023883a 	mov	r17,r18
   80820:	0021883a 	mov	r16,zero
   80824:	003ff606 	br	80800 <printAscii+0x40>
   80828:	dfc00617 	ldw	ra,24(sp)
   8082c:	dd400517 	ldw	r21,20(sp)
   80830:	dd000417 	ldw	r20,16(sp)
   80834:	dcc00317 	ldw	r19,12(sp)
   80838:	dc800217 	ldw	r18,8(sp)
   8083c:	dc400117 	ldw	r17,4(sp)
   80840:	dc000017 	ldw	r16,0(sp)
   80844:	dec00704 	addi	sp,sp,28
   80848:	f800283a 	ret

0008084c <udivmodsi4>:
   8084c:	29001b2e 	bgeu	r5,r4,808bc <udivmodsi4+0x70>
   80850:	28001a16 	blt	r5,zero,808bc <udivmodsi4+0x70>
   80854:	00800044 	movi	r2,1
   80858:	0007883a 	mov	r3,zero
   8085c:	01c007c4 	movi	r7,31
   80860:	00000306 	br	80870 <udivmodsi4+0x24>
   80864:	19c01326 	beq	r3,r7,808b4 <udivmodsi4+0x68>
   80868:	18c00044 	addi	r3,r3,1
   8086c:	28000416 	blt	r5,zero,80880 <udivmodsi4+0x34>
   80870:	294b883a 	add	r5,r5,r5
   80874:	1085883a 	add	r2,r2,r2
   80878:	293ffa36 	bltu	r5,r4,80864 <udivmodsi4+0x18>
   8087c:	10000d26 	beq	r2,zero,808b4 <udivmodsi4+0x68>
   80880:	0007883a 	mov	r3,zero
   80884:	21400236 	bltu	r4,r5,80890 <udivmodsi4+0x44>
   80888:	2149c83a 	sub	r4,r4,r5
   8088c:	1886b03a 	or	r3,r3,r2
   80890:	1004d07a 	srli	r2,r2,1
   80894:	280ad07a 	srli	r5,r5,1
   80898:	103ffa1e 	bne	r2,zero,80884 <udivmodsi4+0x38>
   8089c:	30000226 	beq	r6,zero,808a8 <udivmodsi4+0x5c>
   808a0:	2005883a 	mov	r2,r4
   808a4:	f800283a 	ret
   808a8:	1809883a 	mov	r4,r3
   808ac:	2005883a 	mov	r2,r4
   808b0:	f800283a 	ret
   808b4:	0007883a 	mov	r3,zero
   808b8:	003ff806 	br	8089c <udivmodsi4+0x50>
   808bc:	00800044 	movi	r2,1
   808c0:	0007883a 	mov	r3,zero
   808c4:	003fef06 	br	80884 <udivmodsi4+0x38>

000808c8 <__divsi3>:
   808c8:	defffe04 	addi	sp,sp,-8
   808cc:	dc000015 	stw	r16,0(sp)
   808d0:	dfc00115 	stw	ra,4(sp)
   808d4:	0021883a 	mov	r16,zero
   808d8:	20000c16 	blt	r4,zero,8090c <__divsi3+0x44>
   808dc:	000d883a 	mov	r6,zero
   808e0:	28000e16 	blt	r5,zero,8091c <__divsi3+0x54>
   808e4:	008084c0 	call	8084c <udivmodsi4>
   808e8:	1007883a 	mov	r3,r2
   808ec:	8005003a 	cmpeq	r2,r16,zero
   808f0:	1000011e 	bne	r2,zero,808f8 <__divsi3+0x30>
   808f4:	00c7c83a 	sub	r3,zero,r3
   808f8:	1805883a 	mov	r2,r3
   808fc:	dfc00117 	ldw	ra,4(sp)
   80900:	dc000017 	ldw	r16,0(sp)
   80904:	dec00204 	addi	sp,sp,8
   80908:	f800283a 	ret
   8090c:	0109c83a 	sub	r4,zero,r4
   80910:	04000044 	movi	r16,1
   80914:	000d883a 	mov	r6,zero
   80918:	283ff20e 	bge	r5,zero,808e4 <__divsi3+0x1c>
   8091c:	014bc83a 	sub	r5,zero,r5
   80920:	8021003a 	cmpeq	r16,r16,zero
   80924:	003fef06 	br	808e4 <__divsi3+0x1c>

00080928 <__modsi3>:
   80928:	deffff04 	addi	sp,sp,-4
   8092c:	dfc00015 	stw	ra,0(sp)
   80930:	01800044 	movi	r6,1
   80934:	2807883a 	mov	r3,r5
   80938:	20000416 	blt	r4,zero,8094c <__modsi3+0x24>
   8093c:	28000c16 	blt	r5,zero,80970 <__modsi3+0x48>
   80940:	dfc00017 	ldw	ra,0(sp)
   80944:	dec00104 	addi	sp,sp,4
   80948:	008084c1 	jmpi	8084c <udivmodsi4>
   8094c:	0109c83a 	sub	r4,zero,r4
   80950:	28000b16 	blt	r5,zero,80980 <__modsi3+0x58>
   80954:	180b883a 	mov	r5,r3
   80958:	01800044 	movi	r6,1
   8095c:	008084c0 	call	8084c <udivmodsi4>
   80960:	0085c83a 	sub	r2,zero,r2
   80964:	dfc00017 	ldw	ra,0(sp)
   80968:	dec00104 	addi	sp,sp,4
   8096c:	f800283a 	ret
   80970:	014bc83a 	sub	r5,zero,r5
   80974:	dfc00017 	ldw	ra,0(sp)
   80978:	dec00104 	addi	sp,sp,4
   8097c:	008084c1 	jmpi	8084c <udivmodsi4>
   80980:	0147c83a 	sub	r3,zero,r5
   80984:	003ff306 	br	80954 <__modsi3+0x2c>

00080988 <__udivsi3>:
   80988:	000d883a 	mov	r6,zero
   8098c:	008084c1 	jmpi	8084c <udivmodsi4>

00080990 <__umodsi3>:
   80990:	01800044 	movi	r6,1
   80994:	008084c1 	jmpi	8084c <udivmodsi4>

00080998 <__mulsi3>:
   80998:	20000a26 	beq	r4,zero,809c4 <__mulsi3+0x2c>
   8099c:	0007883a 	mov	r3,zero
   809a0:	2080004c 	andi	r2,r4,1
   809a4:	1005003a 	cmpeq	r2,r2,zero
   809a8:	2008d07a 	srli	r4,r4,1
   809ac:	1000011e 	bne	r2,zero,809b4 <__mulsi3+0x1c>
   809b0:	1947883a 	add	r3,r3,r5
   809b4:	294b883a 	add	r5,r5,r5
   809b8:	203ff91e 	bne	r4,zero,809a0 <__mulsi3+0x8>
   809bc:	1805883a 	mov	r2,r3
   809c0:	f800283a 	ret
   809c4:	0007883a 	mov	r3,zero
   809c8:	1805883a 	mov	r2,r3
   809cc:	f800283a 	ret

000809d0 <free>:
   809d0:	00800274 	movhi	r2,9
   809d4:	109a8f04 	addi	r2,r2,27196
   809d8:	200b883a 	mov	r5,r4
   809dc:	11000017 	ldw	r4,0(r2)
   809e0:	00813e81 	jmpi	813e8 <_free_r>

000809e4 <malloc>:
   809e4:	00800274 	movhi	r2,9
   809e8:	109a8f04 	addi	r2,r2,27196
   809ec:	200b883a 	mov	r5,r4
   809f0:	11000017 	ldw	r4,0(r2)
   809f4:	00809f81 	jmpi	809f8 <_malloc_r>

000809f8 <_malloc_r>:
   809f8:	defff604 	addi	sp,sp,-40
   809fc:	28c002c4 	addi	r3,r5,11
   80a00:	00800584 	movi	r2,22
   80a04:	dc800215 	stw	r18,8(sp)
   80a08:	dfc00915 	stw	ra,36(sp)
   80a0c:	df000815 	stw	fp,32(sp)
   80a10:	ddc00715 	stw	r23,28(sp)
   80a14:	dd800615 	stw	r22,24(sp)
   80a18:	dd400515 	stw	r21,20(sp)
   80a1c:	dd000415 	stw	r20,16(sp)
   80a20:	dcc00315 	stw	r19,12(sp)
   80a24:	dc400115 	stw	r17,4(sp)
   80a28:	dc000015 	stw	r16,0(sp)
   80a2c:	2025883a 	mov	r18,r4
   80a30:	10c01236 	bltu	r2,r3,80a7c <_malloc_r+0x84>
   80a34:	04400404 	movi	r17,16
   80a38:	8940142e 	bgeu	r17,r5,80a8c <_malloc_r+0x94>
   80a3c:	00800304 	movi	r2,12
   80a40:	0007883a 	mov	r3,zero
   80a44:	90800015 	stw	r2,0(r18)
   80a48:	1805883a 	mov	r2,r3
   80a4c:	dfc00917 	ldw	ra,36(sp)
   80a50:	df000817 	ldw	fp,32(sp)
   80a54:	ddc00717 	ldw	r23,28(sp)
   80a58:	dd800617 	ldw	r22,24(sp)
   80a5c:	dd400517 	ldw	r21,20(sp)
   80a60:	dd000417 	ldw	r20,16(sp)
   80a64:	dcc00317 	ldw	r19,12(sp)
   80a68:	dc800217 	ldw	r18,8(sp)
   80a6c:	dc400117 	ldw	r17,4(sp)
   80a70:	dc000017 	ldw	r16,0(sp)
   80a74:	dec00a04 	addi	sp,sp,40
   80a78:	f800283a 	ret
   80a7c:	00bffe04 	movi	r2,-8
   80a80:	18a2703a 	and	r17,r3,r2
   80a84:	883fed16 	blt	r17,zero,80a3c <_malloc_r+0x44>
   80a88:	897fec36 	bltu	r17,r5,80a3c <_malloc_r+0x44>
   80a8c:	9009883a 	mov	r4,r18
   80a90:	0081c000 	call	81c00 <__malloc_lock>
   80a94:	00807dc4 	movi	r2,503
   80a98:	14402b2e 	bgeu	r2,r17,80b48 <_malloc_r+0x150>
   80a9c:	8806d27a 	srli	r3,r17,9
   80aa0:	18003f1e 	bne	r3,zero,80ba0 <_malloc_r+0x1a8>
   80aa4:	880cd0fa 	srli	r6,r17,3
   80aa8:	300490fa 	slli	r2,r6,3
   80aac:	02c00274 	movhi	r11,9
   80ab0:	5ad90204 	addi	r11,r11,25608
   80ab4:	12cb883a 	add	r5,r2,r11
   80ab8:	2c000317 	ldw	r16,12(r5)
   80abc:	580f883a 	mov	r7,r11
   80ac0:	2c00041e 	bne	r5,r16,80ad4 <_malloc_r+0xdc>
   80ac4:	00000a06 	br	80af0 <_malloc_r+0xf8>
   80ac8:	1800860e 	bge	r3,zero,80ce4 <_malloc_r+0x2ec>
   80acc:	84000317 	ldw	r16,12(r16)
   80ad0:	2c000726 	beq	r5,r16,80af0 <_malloc_r+0xf8>
   80ad4:	80800117 	ldw	r2,4(r16)
   80ad8:	00ffff04 	movi	r3,-4
   80adc:	10c8703a 	and	r4,r2,r3
   80ae0:	2447c83a 	sub	r3,r4,r17
   80ae4:	008003c4 	movi	r2,15
   80ae8:	10fff70e 	bge	r2,r3,80ac8 <_malloc_r+0xd0>
   80aec:	31bfffc4 	addi	r6,r6,-1
   80af0:	32400044 	addi	r9,r6,1
   80af4:	02800274 	movhi	r10,9
   80af8:	52990404 	addi	r10,r10,25616
   80afc:	54000217 	ldw	r16,8(r10)
   80b00:	8280a026 	beq	r16,r10,80d84 <_malloc_r+0x38c>
   80b04:	80800117 	ldw	r2,4(r16)
   80b08:	00ffff04 	movi	r3,-4
   80b0c:	10ca703a 	and	r5,r2,r3
   80b10:	2c4dc83a 	sub	r6,r5,r17
   80b14:	008003c4 	movi	r2,15
   80b18:	11808316 	blt	r2,r6,80d28 <_malloc_r+0x330>
   80b1c:	52800315 	stw	r10,12(r10)
   80b20:	52800215 	stw	r10,8(r10)
   80b24:	30002916 	blt	r6,zero,80bcc <_malloc_r+0x1d4>
   80b28:	8147883a 	add	r3,r16,r5
   80b2c:	18800117 	ldw	r2,4(r3)
   80b30:	9009883a 	mov	r4,r18
   80b34:	10800054 	ori	r2,r2,1
   80b38:	18800115 	stw	r2,4(r3)
   80b3c:	0081ba40 	call	81ba4 <__malloc_unlock>
   80b40:	80c00204 	addi	r3,r16,8
   80b44:	003fc006 	br	80a48 <_malloc_r+0x50>
   80b48:	02c00274 	movhi	r11,9
   80b4c:	5ad90204 	addi	r11,r11,25608
   80b50:	8ac5883a 	add	r2,r17,r11
   80b54:	14000317 	ldw	r16,12(r2)
   80b58:	580f883a 	mov	r7,r11
   80b5c:	8806d0fa 	srli	r3,r17,3
   80b60:	14006c26 	beq	r2,r16,80d14 <_malloc_r+0x31c>
   80b64:	80c00117 	ldw	r3,4(r16)
   80b68:	00bfff04 	movi	r2,-4
   80b6c:	81800317 	ldw	r6,12(r16)
   80b70:	1886703a 	and	r3,r3,r2
   80b74:	80c7883a 	add	r3,r16,r3
   80b78:	18800117 	ldw	r2,4(r3)
   80b7c:	81400217 	ldw	r5,8(r16)
   80b80:	9009883a 	mov	r4,r18
   80b84:	10800054 	ori	r2,r2,1
   80b88:	18800115 	stw	r2,4(r3)
   80b8c:	31400215 	stw	r5,8(r6)
   80b90:	29800315 	stw	r6,12(r5)
   80b94:	0081ba40 	call	81ba4 <__malloc_unlock>
   80b98:	80c00204 	addi	r3,r16,8
   80b9c:	003faa06 	br	80a48 <_malloc_r+0x50>
   80ba0:	00800104 	movi	r2,4
   80ba4:	10c0052e 	bgeu	r2,r3,80bbc <_malloc_r+0x1c4>
   80ba8:	00800504 	movi	r2,20
   80bac:	10c07836 	bltu	r2,r3,80d90 <_malloc_r+0x398>
   80bb0:	198016c4 	addi	r6,r3,91
   80bb4:	300490fa 	slli	r2,r6,3
   80bb8:	003fbc06 	br	80aac <_malloc_r+0xb4>
   80bbc:	8804d1ba 	srli	r2,r17,6
   80bc0:	11800e04 	addi	r6,r2,56
   80bc4:	300490fa 	slli	r2,r6,3
   80bc8:	003fb806 	br	80aac <_malloc_r+0xb4>
   80bcc:	00807fc4 	movi	r2,511
   80bd0:	1140bb36 	bltu	r2,r5,80ec0 <_malloc_r+0x4c8>
   80bd4:	2806d0fa 	srli	r3,r5,3
   80bd8:	573ffe04 	addi	fp,r10,-8
   80bdc:	00800044 	movi	r2,1
   80be0:	180890fa 	slli	r4,r3,3
   80be4:	1807d0ba 	srai	r3,r3,2
   80be8:	e1c00117 	ldw	r7,4(fp)
   80bec:	5909883a 	add	r4,r11,r4
   80bf0:	21400217 	ldw	r5,8(r4)
   80bf4:	10c4983a 	sll	r2,r2,r3
   80bf8:	81000315 	stw	r4,12(r16)
   80bfc:	81400215 	stw	r5,8(r16)
   80c00:	388eb03a 	or	r7,r7,r2
   80c04:	2c000315 	stw	r16,12(r5)
   80c08:	24000215 	stw	r16,8(r4)
   80c0c:	e1c00115 	stw	r7,4(fp)
   80c10:	4807883a 	mov	r3,r9
   80c14:	4800cd16 	blt	r9,zero,80f4c <_malloc_r+0x554>
   80c18:	1807d0ba 	srai	r3,r3,2
   80c1c:	00800044 	movi	r2,1
   80c20:	10c8983a 	sll	r4,r2,r3
   80c24:	39004436 	bltu	r7,r4,80d38 <_malloc_r+0x340>
   80c28:	21c4703a 	and	r2,r4,r7
   80c2c:	10000a1e 	bne	r2,zero,80c58 <_malloc_r+0x260>
   80c30:	2109883a 	add	r4,r4,r4
   80c34:	00bfff04 	movi	r2,-4
   80c38:	4884703a 	and	r2,r9,r2
   80c3c:	3906703a 	and	r3,r7,r4
   80c40:	12400104 	addi	r9,r2,4
   80c44:	1800041e 	bne	r3,zero,80c58 <_malloc_r+0x260>
   80c48:	2109883a 	add	r4,r4,r4
   80c4c:	3904703a 	and	r2,r7,r4
   80c50:	4a400104 	addi	r9,r9,4
   80c54:	103ffc26 	beq	r2,zero,80c48 <_malloc_r+0x250>
   80c58:	480490fa 	slli	r2,r9,3
   80c5c:	4819883a 	mov	r12,r9
   80c60:	023fff04 	movi	r8,-4
   80c64:	589b883a 	add	r13,r11,r2
   80c68:	6807883a 	mov	r3,r13
   80c6c:	014003c4 	movi	r5,15
   80c70:	1c000317 	ldw	r16,12(r3)
   80c74:	1c00041e 	bne	r3,r16,80c88 <_malloc_r+0x290>
   80c78:	0000a706 	br	80f18 <_malloc_r+0x520>
   80c7c:	3000ab0e 	bge	r6,zero,80f2c <_malloc_r+0x534>
   80c80:	84000317 	ldw	r16,12(r16)
   80c84:	1c00a426 	beq	r3,r16,80f18 <_malloc_r+0x520>
   80c88:	80800117 	ldw	r2,4(r16)
   80c8c:	1204703a 	and	r2,r2,r8
   80c90:	144dc83a 	sub	r6,r2,r17
   80c94:	29bff90e 	bge	r5,r6,80c7c <_malloc_r+0x284>
   80c98:	81000317 	ldw	r4,12(r16)
   80c9c:	80c00217 	ldw	r3,8(r16)
   80ca0:	89400054 	ori	r5,r17,1
   80ca4:	8445883a 	add	r2,r16,r17
   80ca8:	20c00215 	stw	r3,8(r4)
   80cac:	19000315 	stw	r4,12(r3)
   80cb0:	81400115 	stw	r5,4(r16)
   80cb4:	1187883a 	add	r3,r2,r6
   80cb8:	31000054 	ori	r4,r6,1
   80cbc:	50800315 	stw	r2,12(r10)
   80cc0:	50800215 	stw	r2,8(r10)
   80cc4:	19800015 	stw	r6,0(r3)
   80cc8:	11000115 	stw	r4,4(r2)
   80ccc:	12800215 	stw	r10,8(r2)
   80cd0:	12800315 	stw	r10,12(r2)
   80cd4:	9009883a 	mov	r4,r18
   80cd8:	0081ba40 	call	81ba4 <__malloc_unlock>
   80cdc:	80c00204 	addi	r3,r16,8
   80ce0:	003f5906 	br	80a48 <_malloc_r+0x50>
   80ce4:	8109883a 	add	r4,r16,r4
   80ce8:	20800117 	ldw	r2,4(r4)
   80cec:	80c00217 	ldw	r3,8(r16)
   80cf0:	81400317 	ldw	r5,12(r16)
   80cf4:	10800054 	ori	r2,r2,1
   80cf8:	20800115 	stw	r2,4(r4)
   80cfc:	28c00215 	stw	r3,8(r5)
   80d00:	19400315 	stw	r5,12(r3)
   80d04:	9009883a 	mov	r4,r18
   80d08:	0081ba40 	call	81ba4 <__malloc_unlock>
   80d0c:	80c00204 	addi	r3,r16,8
   80d10:	003f4d06 	br	80a48 <_malloc_r+0x50>
   80d14:	80800204 	addi	r2,r16,8
   80d18:	14000317 	ldw	r16,12(r2)
   80d1c:	143f911e 	bne	r2,r16,80b64 <_malloc_r+0x16c>
   80d20:	1a400084 	addi	r9,r3,2
   80d24:	003f7306 	br	80af4 <_malloc_r+0xfc>
   80d28:	88c00054 	ori	r3,r17,1
   80d2c:	8445883a 	add	r2,r16,r17
   80d30:	80c00115 	stw	r3,4(r16)
   80d34:	003fdf06 	br	80cb4 <_malloc_r+0x2bc>
   80d38:	e4000217 	ldw	r16,8(fp)
   80d3c:	00bfff04 	movi	r2,-4
   80d40:	80c00117 	ldw	r3,4(r16)
   80d44:	802d883a 	mov	r22,r16
   80d48:	18aa703a 	and	r21,r3,r2
   80d4c:	ac401636 	bltu	r21,r17,80da8 <_malloc_r+0x3b0>
   80d50:	ac49c83a 	sub	r4,r21,r17
   80d54:	008003c4 	movi	r2,15
   80d58:	1100130e 	bge	r2,r4,80da8 <_malloc_r+0x3b0>
   80d5c:	88800054 	ori	r2,r17,1
   80d60:	8447883a 	add	r3,r16,r17
   80d64:	80800115 	stw	r2,4(r16)
   80d68:	20800054 	ori	r2,r4,1
   80d6c:	18800115 	stw	r2,4(r3)
   80d70:	e0c00215 	stw	r3,8(fp)
   80d74:	9009883a 	mov	r4,r18
   80d78:	0081ba40 	call	81ba4 <__malloc_unlock>
   80d7c:	80c00204 	addi	r3,r16,8
   80d80:	003f3106 	br	80a48 <_malloc_r+0x50>
   80d84:	39c00117 	ldw	r7,4(r7)
   80d88:	573ffe04 	addi	fp,r10,-8
   80d8c:	003fa006 	br	80c10 <_malloc_r+0x218>
   80d90:	00801504 	movi	r2,84
   80d94:	10c06736 	bltu	r2,r3,80f34 <_malloc_r+0x53c>
   80d98:	8804d33a 	srli	r2,r17,12
   80d9c:	11801b84 	addi	r6,r2,110
   80da0:	300490fa 	slli	r2,r6,3
   80da4:	003f4106 	br	80aac <_malloc_r+0xb4>
   80da8:	d091f317 	ldw	r2,18380(gp)
   80dac:	d0e00217 	ldw	r3,-32760(gp)
   80db0:	053fffc4 	movi	r20,-1
   80db4:	10800404 	addi	r2,r2,16
   80db8:	88a7883a 	add	r19,r17,r2
   80dbc:	1d000326 	beq	r3,r20,80dcc <_malloc_r+0x3d4>
   80dc0:	98c01fc4 	addi	r3,r19,127
   80dc4:	00bfe004 	movi	r2,-128
   80dc8:	18a6703a 	and	r19,r3,r2
   80dcc:	9009883a 	mov	r4,r18
   80dd0:	980b883a 	mov	r5,r19
   80dd4:	008122c0 	call	8122c <_sbrk_r>
   80dd8:	1009883a 	mov	r4,r2
   80ddc:	15000426 	beq	r2,r20,80df0 <_malloc_r+0x3f8>
   80de0:	854b883a 	add	r5,r16,r21
   80de4:	1029883a 	mov	r20,r2
   80de8:	11405a2e 	bgeu	r2,r5,80f54 <_malloc_r+0x55c>
   80dec:	87000c26 	beq	r16,fp,80e20 <_malloc_r+0x428>
   80df0:	e4000217 	ldw	r16,8(fp)
   80df4:	80c00117 	ldw	r3,4(r16)
   80df8:	00bfff04 	movi	r2,-4
   80dfc:	1884703a 	and	r2,r3,r2
   80e00:	14400336 	bltu	r2,r17,80e10 <_malloc_r+0x418>
   80e04:	1449c83a 	sub	r4,r2,r17
   80e08:	008003c4 	movi	r2,15
   80e0c:	113fd316 	blt	r2,r4,80d5c <_malloc_r+0x364>
   80e10:	9009883a 	mov	r4,r18
   80e14:	0081ba40 	call	81ba4 <__malloc_unlock>
   80e18:	0007883a 	mov	r3,zero
   80e1c:	003f0a06 	br	80a48 <_malloc_r+0x50>
   80e20:	05c002b4 	movhi	r23,10
   80e24:	bdcca904 	addi	r23,r23,12964
   80e28:	b8800017 	ldw	r2,0(r23)
   80e2c:	988d883a 	add	r6,r19,r2
   80e30:	b9800015 	stw	r6,0(r23)
   80e34:	d0e00217 	ldw	r3,-32760(gp)
   80e38:	00bfffc4 	movi	r2,-1
   80e3c:	18808e26 	beq	r3,r2,81078 <_malloc_r+0x680>
   80e40:	2145c83a 	sub	r2,r4,r5
   80e44:	3085883a 	add	r2,r6,r2
   80e48:	b8800015 	stw	r2,0(r23)
   80e4c:	20c001cc 	andi	r3,r4,7
   80e50:	18005f1e 	bne	r3,zero,80fd0 <_malloc_r+0x5d8>
   80e54:	000b883a 	mov	r5,zero
   80e58:	a4c5883a 	add	r2,r20,r19
   80e5c:	10801fcc 	andi	r2,r2,127
   80e60:	00c02004 	movi	r3,128
   80e64:	1887c83a 	sub	r3,r3,r2
   80e68:	28e7883a 	add	r19,r5,r3
   80e6c:	9009883a 	mov	r4,r18
   80e70:	980b883a 	mov	r5,r19
   80e74:	008122c0 	call	8122c <_sbrk_r>
   80e78:	1007883a 	mov	r3,r2
   80e7c:	00bfffc4 	movi	r2,-1
   80e80:	18807a26 	beq	r3,r2,8106c <_malloc_r+0x674>
   80e84:	1d05c83a 	sub	r2,r3,r20
   80e88:	9885883a 	add	r2,r19,r2
   80e8c:	10c00054 	ori	r3,r2,1
   80e90:	b8800017 	ldw	r2,0(r23)
   80e94:	a021883a 	mov	r16,r20
   80e98:	a0c00115 	stw	r3,4(r20)
   80e9c:	9885883a 	add	r2,r19,r2
   80ea0:	b8800015 	stw	r2,0(r23)
   80ea4:	e5000215 	stw	r20,8(fp)
   80ea8:	b7003626 	beq	r22,fp,80f84 <_malloc_r+0x58c>
   80eac:	018003c4 	movi	r6,15
   80eb0:	35404b36 	bltu	r6,r21,80fe0 <_malloc_r+0x5e8>
   80eb4:	00800044 	movi	r2,1
   80eb8:	a0800115 	stw	r2,4(r20)
   80ebc:	003fcd06 	br	80df4 <_malloc_r+0x3fc>
   80ec0:	2808d27a 	srli	r4,r5,9
   80ec4:	2000371e 	bne	r4,zero,80fa4 <_malloc_r+0x5ac>
   80ec8:	2808d0fa 	srli	r4,r5,3
   80ecc:	200690fa 	slli	r3,r4,3
   80ed0:	58d1883a 	add	r8,r11,r3
   80ed4:	41800217 	ldw	r6,8(r8)
   80ed8:	41805b26 	beq	r8,r6,81048 <_malloc_r+0x650>
   80edc:	30800117 	ldw	r2,4(r6)
   80ee0:	00ffff04 	movi	r3,-4
   80ee4:	10c4703a 	and	r2,r2,r3
   80ee8:	2880022e 	bgeu	r5,r2,80ef4 <_malloc_r+0x4fc>
   80eec:	31800217 	ldw	r6,8(r6)
   80ef0:	41bffa1e 	bne	r8,r6,80edc <_malloc_r+0x4e4>
   80ef4:	32000317 	ldw	r8,12(r6)
   80ef8:	39c00117 	ldw	r7,4(r7)
   80efc:	82000315 	stw	r8,12(r16)
   80f00:	81800215 	stw	r6,8(r16)
   80f04:	07000274 	movhi	fp,9
   80f08:	e7190204 	addi	fp,fp,25608
   80f0c:	34000315 	stw	r16,12(r6)
   80f10:	44000215 	stw	r16,8(r8)
   80f14:	003f3e06 	br	80c10 <_malloc_r+0x218>
   80f18:	63000044 	addi	r12,r12,1
   80f1c:	608000cc 	andi	r2,r12,3
   80f20:	10005d26 	beq	r2,zero,81098 <_malloc_r+0x6a0>
   80f24:	18c00204 	addi	r3,r3,8
   80f28:	003f5106 	br	80c70 <_malloc_r+0x278>
   80f2c:	8089883a 	add	r4,r16,r2
   80f30:	003f6d06 	br	80ce8 <_malloc_r+0x2f0>
   80f34:	00805504 	movi	r2,340
   80f38:	10c02036 	bltu	r2,r3,80fbc <_malloc_r+0x5c4>
   80f3c:	8804d3fa 	srli	r2,r17,15
   80f40:	11801dc4 	addi	r6,r2,119
   80f44:	300490fa 	slli	r2,r6,3
   80f48:	003ed806 	br	80aac <_malloc_r+0xb4>
   80f4c:	48c000c4 	addi	r3,r9,3
   80f50:	003f3106 	br	80c18 <_malloc_r+0x220>
   80f54:	05c002b4 	movhi	r23,10
   80f58:	bdcca904 	addi	r23,r23,12964
   80f5c:	b8800017 	ldw	r2,0(r23)
   80f60:	988d883a 	add	r6,r19,r2
   80f64:	b9800015 	stw	r6,0(r23)
   80f68:	293fb21e 	bne	r5,r4,80e34 <_malloc_r+0x43c>
   80f6c:	20801fcc 	andi	r2,r4,127
   80f70:	103fb01e 	bne	r2,zero,80e34 <_malloc_r+0x43c>
   80f74:	e4000217 	ldw	r16,8(fp)
   80f78:	9d45883a 	add	r2,r19,r21
   80f7c:	10800054 	ori	r2,r2,1
   80f80:	80800115 	stw	r2,4(r16)
   80f84:	b8c00017 	ldw	r3,0(r23)
   80f88:	d091f417 	ldw	r2,18384(gp)
   80f8c:	10c0012e 	bgeu	r2,r3,80f94 <_malloc_r+0x59c>
   80f90:	d0d1f415 	stw	r3,18384(gp)
   80f94:	d091f517 	ldw	r2,18388(gp)
   80f98:	10ff962e 	bgeu	r2,r3,80df4 <_malloc_r+0x3fc>
   80f9c:	d0d1f515 	stw	r3,18388(gp)
   80fa0:	003f9406 	br	80df4 <_malloc_r+0x3fc>
   80fa4:	00800104 	movi	r2,4
   80fa8:	11001e36 	bltu	r2,r4,81024 <_malloc_r+0x62c>
   80fac:	2804d1ba 	srli	r2,r5,6
   80fb0:	11000e04 	addi	r4,r2,56
   80fb4:	200690fa 	slli	r3,r4,3
   80fb8:	003fc506 	br	80ed0 <_malloc_r+0x4d8>
   80fbc:	00815504 	movi	r2,1364
   80fc0:	10c01d2e 	bgeu	r2,r3,81038 <_malloc_r+0x640>
   80fc4:	01801f84 	movi	r6,126
   80fc8:	0080fc04 	movi	r2,1008
   80fcc:	003eb706 	br	80aac <_malloc_r+0xb4>
   80fd0:	00800204 	movi	r2,8
   80fd4:	10cbc83a 	sub	r5,r2,r3
   80fd8:	2169883a 	add	r20,r4,r5
   80fdc:	003f9e06 	br	80e58 <_malloc_r+0x460>
   80fe0:	00bffe04 	movi	r2,-8
   80fe4:	a93ffd04 	addi	r4,r21,-12
   80fe8:	2088703a 	and	r4,r4,r2
   80fec:	b10b883a 	add	r5,r22,r4
   80ff0:	00c00144 	movi	r3,5
   80ff4:	28c00215 	stw	r3,8(r5)
   80ff8:	28c00115 	stw	r3,4(r5)
   80ffc:	b0800117 	ldw	r2,4(r22)
   81000:	1080004c 	andi	r2,r2,1
   81004:	2084b03a 	or	r2,r4,r2
   81008:	b0800115 	stw	r2,4(r22)
   8100c:	313fdd2e 	bgeu	r6,r4,80f84 <_malloc_r+0x58c>
   81010:	b1400204 	addi	r5,r22,8
   81014:	9009883a 	mov	r4,r18
   81018:	00813e80 	call	813e8 <_free_r>
   8101c:	e4000217 	ldw	r16,8(fp)
   81020:	003fd806 	br	80f84 <_malloc_r+0x58c>
   81024:	00800504 	movi	r2,20
   81028:	11001536 	bltu	r2,r4,81080 <_malloc_r+0x688>
   8102c:	210016c4 	addi	r4,r4,91
   81030:	200690fa 	slli	r3,r4,3
   81034:	003fa606 	br	80ed0 <_malloc_r+0x4d8>
   81038:	8804d4ba 	srli	r2,r17,18
   8103c:	11801f04 	addi	r6,r2,124
   81040:	300490fa 	slli	r2,r6,3
   81044:	003e9906 	br	80aac <_malloc_r+0xb4>
   81048:	2009d0ba 	srai	r4,r4,2
   8104c:	01400274 	movhi	r5,9
   81050:	29590204 	addi	r5,r5,25608
   81054:	00c00044 	movi	r3,1
   81058:	28800117 	ldw	r2,4(r5)
   8105c:	1906983a 	sll	r3,r3,r4
   81060:	10c4b03a 	or	r2,r2,r3
   81064:	28800115 	stw	r2,4(r5)
   81068:	003fa306 	br	80ef8 <_malloc_r+0x500>
   8106c:	0027883a 	mov	r19,zero
   81070:	00c00044 	movi	r3,1
   81074:	003f8606 	br	80e90 <_malloc_r+0x498>
   81078:	d1200215 	stw	r4,-32760(gp)
   8107c:	003f7306 	br	80e4c <_malloc_r+0x454>
   81080:	00801504 	movi	r2,84
   81084:	11001936 	bltu	r2,r4,810ec <_malloc_r+0x6f4>
   81088:	2804d33a 	srli	r2,r5,12
   8108c:	11001b84 	addi	r4,r2,110
   81090:	200690fa 	slli	r3,r4,3
   81094:	003f8e06 	br	80ed0 <_malloc_r+0x4d8>
   81098:	480b883a 	mov	r5,r9
   8109c:	6807883a 	mov	r3,r13
   810a0:	288000cc 	andi	r2,r5,3
   810a4:	18fffe04 	addi	r3,r3,-8
   810a8:	297fffc4 	addi	r5,r5,-1
   810ac:	10001526 	beq	r2,zero,81104 <_malloc_r+0x70c>
   810b0:	18800217 	ldw	r2,8(r3)
   810b4:	10fffa26 	beq	r2,r3,810a0 <_malloc_r+0x6a8>
   810b8:	2109883a 	add	r4,r4,r4
   810bc:	393f1e36 	bltu	r7,r4,80d38 <_malloc_r+0x340>
   810c0:	203f1d26 	beq	r4,zero,80d38 <_malloc_r+0x340>
   810c4:	21c4703a 	and	r2,r4,r7
   810c8:	10000226 	beq	r2,zero,810d4 <_malloc_r+0x6dc>
   810cc:	6013883a 	mov	r9,r12
   810d0:	003ee106 	br	80c58 <_malloc_r+0x260>
   810d4:	2109883a 	add	r4,r4,r4
   810d8:	3904703a 	and	r2,r7,r4
   810dc:	63000104 	addi	r12,r12,4
   810e0:	103ffc26 	beq	r2,zero,810d4 <_malloc_r+0x6dc>
   810e4:	6013883a 	mov	r9,r12
   810e8:	003edb06 	br	80c58 <_malloc_r+0x260>
   810ec:	00805504 	movi	r2,340
   810f0:	11000836 	bltu	r2,r4,81114 <_malloc_r+0x71c>
   810f4:	2804d3fa 	srli	r2,r5,15
   810f8:	11001dc4 	addi	r4,r2,119
   810fc:	200690fa 	slli	r3,r4,3
   81100:	003f7306 	br	80ed0 <_malloc_r+0x4d8>
   81104:	0104303a 	nor	r2,zero,r4
   81108:	388e703a 	and	r7,r7,r2
   8110c:	e1c00115 	stw	r7,4(fp)
   81110:	003fe906 	br	810b8 <_malloc_r+0x6c0>
   81114:	00815504 	movi	r2,1364
   81118:	1100032e 	bgeu	r2,r4,81128 <_malloc_r+0x730>
   8111c:	01001f84 	movi	r4,126
   81120:	00c0fc04 	movi	r3,1008
   81124:	003f6a06 	br	80ed0 <_malloc_r+0x4d8>
   81128:	2804d4ba 	srli	r2,r5,18
   8112c:	11001f04 	addi	r4,r2,124
   81130:	200690fa 	slli	r3,r4,3
   81134:	003f6606 	br	80ed0 <_malloc_r+0x4d8>

00081138 <memcpy>:
   81138:	2011883a 	mov	r8,r4
   8113c:	30000726 	beq	r6,zero,8115c <memcpy+0x24>
   81140:	000f883a 	mov	r7,zero
   81144:	29c5883a 	add	r2,r5,r7
   81148:	11000003 	ldbu	r4,0(r2)
   8114c:	41c7883a 	add	r3,r8,r7
   81150:	39c00044 	addi	r7,r7,1
   81154:	19000005 	stb	r4,0(r3)
   81158:	39bffa1e 	bne	r7,r6,81144 <memcpy+0xc>
   8115c:	4005883a 	mov	r2,r8
   81160:	f800283a 	ret

00081164 <putchar>:
   81164:	00800274 	movhi	r2,9
   81168:	109a8f04 	addi	r2,r2,27196
   8116c:	11800017 	ldw	r6,0(r2)
   81170:	200b883a 	mov	r5,r4
   81174:	3009883a 	mov	r4,r6
   81178:	31800217 	ldw	r6,8(r6)
   8117c:	00818281 	jmpi	81828 <_putc_r>

00081180 <_putchar_r>:
   81180:	21800217 	ldw	r6,8(r4)
   81184:	00818281 	jmpi	81828 <_putc_r>

00081188 <_puts_r>:
   81188:	defffd04 	addi	sp,sp,-12
   8118c:	dc000015 	stw	r16,0(sp)
   81190:	2021883a 	mov	r16,r4
   81194:	2809883a 	mov	r4,r5
   81198:	dfc00215 	stw	ra,8(sp)
   8119c:	dc400115 	stw	r17,4(sp)
   811a0:	2823883a 	mov	r17,r5
   811a4:	008129c0 	call	8129c <strlen>
   811a8:	80c00217 	ldw	r3,8(r16)
   811ac:	02000234 	movhi	r8,8
   811b0:	4205bf04 	addi	r8,r8,5884
   811b4:	880d883a 	mov	r6,r17
   811b8:	100f883a 	mov	r7,r2
   811bc:	8009883a 	mov	r4,r16
   811c0:	180b883a 	mov	r5,r3
   811c4:	1a000115 	stw	r8,4(r3)
   811c8:	403ee83a 	callr	r8
   811cc:	047fffc4 	movi	r17,-1
   811d0:	8009883a 	mov	r4,r16
   811d4:	01800274 	movhi	r6,9
   811d8:	31a8b104 	addi	r6,r6,-23868
   811dc:	01c00044 	movi	r7,1
   811e0:	1440071e 	bne	r2,r17,81200 <_puts_r+0x78>
   811e4:	00ffffc4 	movi	r3,-1
   811e8:	1805883a 	mov	r2,r3
   811ec:	dfc00217 	ldw	ra,8(sp)
   811f0:	dc400117 	ldw	r17,4(sp)
   811f4:	dc000017 	ldw	r16,0(sp)
   811f8:	dec00304 	addi	sp,sp,12
   811fc:	f800283a 	ret
   81200:	81400217 	ldw	r5,8(r16)
   81204:	28c00117 	ldw	r3,4(r5)
   81208:	183ee83a 	callr	r3
   8120c:	0007883a 	mov	r3,zero
   81210:	147ff51e 	bne	r2,r17,811e8 <_puts_r+0x60>
   81214:	003ff306 	br	811e4 <_puts_r+0x5c>

00081218 <puts>:
   81218:	00800274 	movhi	r2,9
   8121c:	109a8f04 	addi	r2,r2,27196
   81220:	200b883a 	mov	r5,r4
   81224:	11000017 	ldw	r4,0(r2)
   81228:	00811881 	jmpi	81188 <_puts_r>

0008122c <_sbrk_r>:
   8122c:	defffd04 	addi	sp,sp,-12
   81230:	dc000015 	stw	r16,0(sp)
   81234:	040002b4 	movhi	r16,10
   81238:	840c8204 	addi	r16,r16,12808
   8123c:	dc400115 	stw	r17,4(sp)
   81240:	80000015 	stw	zero,0(r16)
   81244:	2023883a 	mov	r17,r4
   81248:	2809883a 	mov	r4,r5
   8124c:	dfc00215 	stw	ra,8(sp)
   81250:	0081a340 	call	81a34 <sbrk>
   81254:	1007883a 	mov	r3,r2
   81258:	00bfffc4 	movi	r2,-1
   8125c:	18800626 	beq	r3,r2,81278 <_sbrk_r+0x4c>
   81260:	1805883a 	mov	r2,r3
   81264:	dfc00217 	ldw	ra,8(sp)
   81268:	dc400117 	ldw	r17,4(sp)
   8126c:	dc000017 	ldw	r16,0(sp)
   81270:	dec00304 	addi	sp,sp,12
   81274:	f800283a 	ret
   81278:	80800017 	ldw	r2,0(r16)
   8127c:	103ff826 	beq	r2,zero,81260 <_sbrk_r+0x34>
   81280:	88800015 	stw	r2,0(r17)
   81284:	1805883a 	mov	r2,r3
   81288:	dfc00217 	ldw	ra,8(sp)
   8128c:	dc400117 	ldw	r17,4(sp)
   81290:	dc000017 	ldw	r16,0(sp)
   81294:	dec00304 	addi	sp,sp,12
   81298:	f800283a 	ret

0008129c <strlen>:
   8129c:	20800007 	ldb	r2,0(r4)
   812a0:	10000526 	beq	r2,zero,812b8 <strlen+0x1c>
   812a4:	2007883a 	mov	r3,r4
   812a8:	18c00044 	addi	r3,r3,1
   812ac:	18800007 	ldb	r2,0(r3)
   812b0:	103ffd1e 	bne	r2,zero,812a8 <strlen+0xc>
   812b4:	1905c83a 	sub	r2,r3,r4
   812b8:	f800283a 	ret

000812bc <_malloc_trim_r>:
   812bc:	defffb04 	addi	sp,sp,-20
   812c0:	dcc00315 	stw	r19,12(sp)
   812c4:	04c00274 	movhi	r19,9
   812c8:	9cd90204 	addi	r19,r19,25608
   812cc:	dc800215 	stw	r18,8(sp)
   812d0:	dc400115 	stw	r17,4(sp)
   812d4:	dc000015 	stw	r16,0(sp)
   812d8:	2823883a 	mov	r17,r5
   812dc:	2025883a 	mov	r18,r4
   812e0:	dfc00415 	stw	ra,16(sp)
   812e4:	0081c000 	call	81c00 <__malloc_lock>
   812e8:	98800217 	ldw	r2,8(r19)
   812ec:	9009883a 	mov	r4,r18
   812f0:	000b883a 	mov	r5,zero
   812f4:	10c00117 	ldw	r3,4(r2)
   812f8:	00bfff04 	movi	r2,-4
   812fc:	18a0703a 	and	r16,r3,r2
   81300:	8463c83a 	sub	r17,r16,r17
   81304:	8c401bc4 	addi	r17,r17,111
   81308:	8822d1fa 	srli	r17,r17,7
   8130c:	00801fc4 	movi	r2,127
   81310:	8c7fffc4 	addi	r17,r17,-1
   81314:	882291fa 	slli	r17,r17,7
   81318:	1440060e 	bge	r2,r17,81334 <_malloc_trim_r+0x78>
   8131c:	008122c0 	call	8122c <_sbrk_r>
   81320:	98c00217 	ldw	r3,8(r19)
   81324:	9009883a 	mov	r4,r18
   81328:	044bc83a 	sub	r5,zero,r17
   8132c:	80c7883a 	add	r3,r16,r3
   81330:	10c00926 	beq	r2,r3,81358 <_malloc_trim_r+0x9c>
   81334:	0081ba40 	call	81ba4 <__malloc_unlock>
   81338:	0005883a 	mov	r2,zero
   8133c:	dfc00417 	ldw	ra,16(sp)
   81340:	dcc00317 	ldw	r19,12(sp)
   81344:	dc800217 	ldw	r18,8(sp)
   81348:	dc400117 	ldw	r17,4(sp)
   8134c:	dc000017 	ldw	r16,0(sp)
   81350:	dec00504 	addi	sp,sp,20
   81354:	f800283a 	ret
   81358:	9009883a 	mov	r4,r18
   8135c:	008122c0 	call	8122c <_sbrk_r>
   81360:	844dc83a 	sub	r6,r16,r17
   81364:	00ffffc4 	movi	r3,-1
   81368:	9009883a 	mov	r4,r18
   8136c:	000b883a 	mov	r5,zero
   81370:	01c002b4 	movhi	r7,10
   81374:	39cca904 	addi	r7,r7,12964
   81378:	31800054 	ori	r6,r6,1
   8137c:	10c00926 	beq	r2,r3,813a4 <_malloc_trim_r+0xe8>
   81380:	38800017 	ldw	r2,0(r7)
   81384:	98c00217 	ldw	r3,8(r19)
   81388:	9009883a 	mov	r4,r18
   8138c:	1445c83a 	sub	r2,r2,r17
   81390:	38800015 	stw	r2,0(r7)
   81394:	19800115 	stw	r6,4(r3)
   81398:	0081ba40 	call	81ba4 <__malloc_unlock>
   8139c:	00800044 	movi	r2,1
   813a0:	003fe606 	br	8133c <_malloc_trim_r+0x80>
   813a4:	008122c0 	call	8122c <_sbrk_r>
   813a8:	99800217 	ldw	r6,8(r19)
   813ac:	100f883a 	mov	r7,r2
   813b0:	9009883a 	mov	r4,r18
   813b4:	1187c83a 	sub	r3,r2,r6
   813b8:	008003c4 	movi	r2,15
   813bc:	19400054 	ori	r5,r3,1
   813c0:	10ffdc0e 	bge	r2,r3,81334 <_malloc_trim_r+0x78>
   813c4:	00800274 	movhi	r2,9
   813c8:	109a8e04 	addi	r2,r2,27192
   813cc:	10c00017 	ldw	r3,0(r2)
   813d0:	008002b4 	movhi	r2,10
   813d4:	108ca904 	addi	r2,r2,12964
   813d8:	31400115 	stw	r5,4(r6)
   813dc:	38c7c83a 	sub	r3,r7,r3
   813e0:	10c00015 	stw	r3,0(r2)
   813e4:	003fd306 	br	81334 <_malloc_trim_r+0x78>

000813e8 <_free_r>:
   813e8:	defffd04 	addi	sp,sp,-12
   813ec:	dc400115 	stw	r17,4(sp)
   813f0:	dc000015 	stw	r16,0(sp)
   813f4:	dfc00215 	stw	ra,8(sp)
   813f8:	2821883a 	mov	r16,r5
   813fc:	2023883a 	mov	r17,r4
   81400:	28005a26 	beq	r5,zero,8156c <_free_r+0x184>
   81404:	0081c000 	call	81c00 <__malloc_lock>
   81408:	823ffe04 	addi	r8,r16,-8
   8140c:	41400117 	ldw	r5,4(r8)
   81410:	00bfff84 	movi	r2,-2
   81414:	02800274 	movhi	r10,9
   81418:	52990204 	addi	r10,r10,25608
   8141c:	288e703a 	and	r7,r5,r2
   81420:	41cd883a 	add	r6,r8,r7
   81424:	30c00117 	ldw	r3,4(r6)
   81428:	51000217 	ldw	r4,8(r10)
   8142c:	00bfff04 	movi	r2,-4
   81430:	1892703a 	and	r9,r3,r2
   81434:	5017883a 	mov	r11,r10
   81438:	31006726 	beq	r6,r4,815d8 <_free_r+0x1f0>
   8143c:	2880004c 	andi	r2,r5,1
   81440:	1005003a 	cmpeq	r2,r2,zero
   81444:	32400115 	stw	r9,4(r6)
   81448:	10001a1e 	bne	r2,zero,814b4 <_free_r+0xcc>
   8144c:	000b883a 	mov	r5,zero
   81450:	3247883a 	add	r3,r6,r9
   81454:	18800117 	ldw	r2,4(r3)
   81458:	1080004c 	andi	r2,r2,1
   8145c:	1000231e 	bne	r2,zero,814ec <_free_r+0x104>
   81460:	280ac03a 	cmpne	r5,r5,zero
   81464:	3a4f883a 	add	r7,r7,r9
   81468:	2800451e 	bne	r5,zero,81580 <_free_r+0x198>
   8146c:	31000217 	ldw	r4,8(r6)
   81470:	00800274 	movhi	r2,9
   81474:	10990404 	addi	r2,r2,25616
   81478:	20807b26 	beq	r4,r2,81668 <_free_r+0x280>
   8147c:	30800317 	ldw	r2,12(r6)
   81480:	3a07883a 	add	r3,r7,r8
   81484:	19c00015 	stw	r7,0(r3)
   81488:	11000215 	stw	r4,8(r2)
   8148c:	20800315 	stw	r2,12(r4)
   81490:	38800054 	ori	r2,r7,1
   81494:	40800115 	stw	r2,4(r8)
   81498:	28001a26 	beq	r5,zero,81504 <_free_r+0x11c>
   8149c:	8809883a 	mov	r4,r17
   814a0:	dfc00217 	ldw	ra,8(sp)
   814a4:	dc400117 	ldw	r17,4(sp)
   814a8:	dc000017 	ldw	r16,0(sp)
   814ac:	dec00304 	addi	sp,sp,12
   814b0:	0081ba41 	jmpi	81ba4 <__malloc_unlock>
   814b4:	80bffe17 	ldw	r2,-8(r16)
   814b8:	50c00204 	addi	r3,r10,8
   814bc:	4091c83a 	sub	r8,r8,r2
   814c0:	41000217 	ldw	r4,8(r8)
   814c4:	388f883a 	add	r7,r7,r2
   814c8:	20c06126 	beq	r4,r3,81650 <_free_r+0x268>
   814cc:	40800317 	ldw	r2,12(r8)
   814d0:	3247883a 	add	r3,r6,r9
   814d4:	000b883a 	mov	r5,zero
   814d8:	11000215 	stw	r4,8(r2)
   814dc:	20800315 	stw	r2,12(r4)
   814e0:	18800117 	ldw	r2,4(r3)
   814e4:	1080004c 	andi	r2,r2,1
   814e8:	103fdd26 	beq	r2,zero,81460 <_free_r+0x78>
   814ec:	38800054 	ori	r2,r7,1
   814f0:	3a07883a 	add	r3,r7,r8
   814f4:	280ac03a 	cmpne	r5,r5,zero
   814f8:	40800115 	stw	r2,4(r8)
   814fc:	19c00015 	stw	r7,0(r3)
   81500:	283fe61e 	bne	r5,zero,8149c <_free_r+0xb4>
   81504:	00807fc4 	movi	r2,511
   81508:	11c01f2e 	bgeu	r2,r7,81588 <_free_r+0x1a0>
   8150c:	3806d27a 	srli	r3,r7,9
   81510:	1800481e 	bne	r3,zero,81634 <_free_r+0x24c>
   81514:	3804d0fa 	srli	r2,r7,3
   81518:	100690fa 	slli	r3,r2,3
   8151c:	1acd883a 	add	r6,r3,r11
   81520:	31400217 	ldw	r5,8(r6)
   81524:	31405926 	beq	r6,r5,8168c <_free_r+0x2a4>
   81528:	28800117 	ldw	r2,4(r5)
   8152c:	00ffff04 	movi	r3,-4
   81530:	10c4703a 	and	r2,r2,r3
   81534:	3880022e 	bgeu	r7,r2,81540 <_free_r+0x158>
   81538:	29400217 	ldw	r5,8(r5)
   8153c:	317ffa1e 	bne	r6,r5,81528 <_free_r+0x140>
   81540:	29800317 	ldw	r6,12(r5)
   81544:	41800315 	stw	r6,12(r8)
   81548:	41400215 	stw	r5,8(r8)
   8154c:	8809883a 	mov	r4,r17
   81550:	2a000315 	stw	r8,12(r5)
   81554:	32000215 	stw	r8,8(r6)
   81558:	dfc00217 	ldw	ra,8(sp)
   8155c:	dc400117 	ldw	r17,4(sp)
   81560:	dc000017 	ldw	r16,0(sp)
   81564:	dec00304 	addi	sp,sp,12
   81568:	0081ba41 	jmpi	81ba4 <__malloc_unlock>
   8156c:	dfc00217 	ldw	ra,8(sp)
   81570:	dc400117 	ldw	r17,4(sp)
   81574:	dc000017 	ldw	r16,0(sp)
   81578:	dec00304 	addi	sp,sp,12
   8157c:	f800283a 	ret
   81580:	31000217 	ldw	r4,8(r6)
   81584:	003fbd06 	br	8147c <_free_r+0x94>
   81588:	3806d0fa 	srli	r3,r7,3
   8158c:	00800044 	movi	r2,1
   81590:	51400117 	ldw	r5,4(r10)
   81594:	180890fa 	slli	r4,r3,3
   81598:	1807d0ba 	srai	r3,r3,2
   8159c:	22c9883a 	add	r4,r4,r11
   815a0:	21800217 	ldw	r6,8(r4)
   815a4:	10c4983a 	sll	r2,r2,r3
   815a8:	41000315 	stw	r4,12(r8)
   815ac:	41800215 	stw	r6,8(r8)
   815b0:	288ab03a 	or	r5,r5,r2
   815b4:	22000215 	stw	r8,8(r4)
   815b8:	8809883a 	mov	r4,r17
   815bc:	51400115 	stw	r5,4(r10)
   815c0:	32000315 	stw	r8,12(r6)
   815c4:	dfc00217 	ldw	ra,8(sp)
   815c8:	dc400117 	ldw	r17,4(sp)
   815cc:	dc000017 	ldw	r16,0(sp)
   815d0:	dec00304 	addi	sp,sp,12
   815d4:	0081ba41 	jmpi	81ba4 <__malloc_unlock>
   815d8:	2880004c 	andi	r2,r5,1
   815dc:	3a4d883a 	add	r6,r7,r9
   815e0:	1000071e 	bne	r2,zero,81600 <_free_r+0x218>
   815e4:	80bffe17 	ldw	r2,-8(r16)
   815e8:	4091c83a 	sub	r8,r8,r2
   815ec:	41000317 	ldw	r4,12(r8)
   815f0:	40c00217 	ldw	r3,8(r8)
   815f4:	308d883a 	add	r6,r6,r2
   815f8:	20c00215 	stw	r3,8(r4)
   815fc:	19000315 	stw	r4,12(r3)
   81600:	00800274 	movhi	r2,9
   81604:	109a8d04 	addi	r2,r2,27188
   81608:	11000017 	ldw	r4,0(r2)
   8160c:	30c00054 	ori	r3,r6,1
   81610:	52000215 	stw	r8,8(r10)
   81614:	40c00115 	stw	r3,4(r8)
   81618:	313fa036 	bltu	r6,r4,8149c <_free_r+0xb4>
   8161c:	008002b4 	movhi	r2,10
   81620:	108c7f04 	addi	r2,r2,12796
   81624:	11400017 	ldw	r5,0(r2)
   81628:	8809883a 	mov	r4,r17
   8162c:	00812bc0 	call	812bc <_malloc_trim_r>
   81630:	003f9a06 	br	8149c <_free_r+0xb4>
   81634:	00800104 	movi	r2,4
   81638:	10c0072e 	bgeu	r2,r3,81658 <_free_r+0x270>
   8163c:	00800504 	movi	r2,20
   81640:	10c01936 	bltu	r2,r3,816a8 <_free_r+0x2c0>
   81644:	188016c4 	addi	r2,r3,91
   81648:	100690fa 	slli	r3,r2,3
   8164c:	003fb306 	br	8151c <_free_r+0x134>
   81650:	01400044 	movi	r5,1
   81654:	003f7e06 	br	81450 <_free_r+0x68>
   81658:	3804d1ba 	srli	r2,r7,6
   8165c:	10800e04 	addi	r2,r2,56
   81660:	100690fa 	slli	r3,r2,3
   81664:	003fad06 	br	8151c <_free_r+0x134>
   81668:	22000315 	stw	r8,12(r4)
   8166c:	22000215 	stw	r8,8(r4)
   81670:	3a05883a 	add	r2,r7,r8
   81674:	38c00054 	ori	r3,r7,1
   81678:	11c00015 	stw	r7,0(r2)
   8167c:	41000215 	stw	r4,8(r8)
   81680:	40c00115 	stw	r3,4(r8)
   81684:	41000315 	stw	r4,12(r8)
   81688:	003f8406 	br	8149c <_free_r+0xb4>
   8168c:	1005d0ba 	srai	r2,r2,2
   81690:	00c00044 	movi	r3,1
   81694:	51000117 	ldw	r4,4(r10)
   81698:	1886983a 	sll	r3,r3,r2
   8169c:	20c8b03a 	or	r4,r4,r3
   816a0:	51000115 	stw	r4,4(r10)
   816a4:	003fa706 	br	81544 <_free_r+0x15c>
   816a8:	00801504 	movi	r2,84
   816ac:	10c00436 	bltu	r2,r3,816c0 <_free_r+0x2d8>
   816b0:	3804d33a 	srli	r2,r7,12
   816b4:	10801b84 	addi	r2,r2,110
   816b8:	100690fa 	slli	r3,r2,3
   816bc:	003f9706 	br	8151c <_free_r+0x134>
   816c0:	00805504 	movi	r2,340
   816c4:	10c00436 	bltu	r2,r3,816d8 <_free_r+0x2f0>
   816c8:	3804d3fa 	srli	r2,r7,15
   816cc:	10801dc4 	addi	r2,r2,119
   816d0:	100690fa 	slli	r3,r2,3
   816d4:	003f9106 	br	8151c <_free_r+0x134>
   816d8:	00815504 	movi	r2,1364
   816dc:	10c0032e 	bgeu	r2,r3,816ec <_free_r+0x304>
   816e0:	00801f84 	movi	r2,126
   816e4:	00c0fc04 	movi	r3,1008
   816e8:	003f8c06 	br	8151c <_free_r+0x134>
   816ec:	3804d4ba 	srli	r2,r7,18
   816f0:	10801f04 	addi	r2,r2,124
   816f4:	100690fa 	slli	r3,r2,3
   816f8:	003f8806 	br	8151c <_free_r+0x134>

000816fc <__sfvwrite_small_dev>:
   816fc:	2880000b 	ldhu	r2,0(r5)
   81700:	defffa04 	addi	sp,sp,-24
   81704:	dcc00315 	stw	r19,12(sp)
   81708:	1080020c 	andi	r2,r2,8
   8170c:	dc800215 	stw	r18,8(sp)
   81710:	dc400115 	stw	r17,4(sp)
   81714:	dfc00515 	stw	ra,20(sp)
   81718:	dd000415 	stw	r20,16(sp)
   8171c:	dc000015 	stw	r16,0(sp)
   81720:	2825883a 	mov	r18,r5
   81724:	2027883a 	mov	r19,r4
   81728:	3023883a 	mov	r17,r6
   8172c:	10002026 	beq	r2,zero,817b0 <__sfvwrite_small_dev+0xb4>
   81730:	2940008f 	ldh	r5,2(r5)
   81734:	28000f16 	blt	r5,zero,81774 <__sfvwrite_small_dev+0x78>
   81738:	01c01b0e 	bge	zero,r7,817a8 <__sfvwrite_small_dev+0xac>
   8173c:	3821883a 	mov	r16,r7
   81740:	05010004 	movi	r20,1024
   81744:	00000206 	br	81750 <__sfvwrite_small_dev+0x54>
   81748:	0400170e 	bge	zero,r16,817a8 <__sfvwrite_small_dev+0xac>
   8174c:	9140008f 	ldh	r5,2(r18)
   81750:	880d883a 	mov	r6,r17
   81754:	9809883a 	mov	r4,r19
   81758:	800f883a 	mov	r7,r16
   8175c:	a400010e 	bge	r20,r16,81764 <__sfvwrite_small_dev+0x68>
   81760:	01c10004 	movi	r7,1024
   81764:	008189c0 	call	8189c <_write_r>
   81768:	88a3883a 	add	r17,r17,r2
   8176c:	80a1c83a 	sub	r16,r16,r2
   81770:	00bff516 	blt	zero,r2,81748 <__sfvwrite_small_dev+0x4c>
   81774:	9080000b 	ldhu	r2,0(r18)
   81778:	00ffffc4 	movi	r3,-1
   8177c:	10801014 	ori	r2,r2,64
   81780:	9080000d 	sth	r2,0(r18)
   81784:	1805883a 	mov	r2,r3
   81788:	dfc00517 	ldw	ra,20(sp)
   8178c:	dd000417 	ldw	r20,16(sp)
   81790:	dcc00317 	ldw	r19,12(sp)
   81794:	dc800217 	ldw	r18,8(sp)
   81798:	dc400117 	ldw	r17,4(sp)
   8179c:	dc000017 	ldw	r16,0(sp)
   817a0:	dec00604 	addi	sp,sp,24
   817a4:	f800283a 	ret
   817a8:	0007883a 	mov	r3,zero
   817ac:	003ff506 	br	81784 <__sfvwrite_small_dev+0x88>
   817b0:	00ffffc4 	movi	r3,-1
   817b4:	003ff306 	br	81784 <__sfvwrite_small_dev+0x88>

000817b8 <putc>:
   817b8:	defffd04 	addi	sp,sp,-12
   817bc:	00800274 	movhi	r2,9
   817c0:	109a8f04 	addi	r2,r2,27196
   817c4:	dc000115 	stw	r16,4(sp)
   817c8:	2021883a 	mov	r16,r4
   817cc:	11000017 	ldw	r4,0(r2)
   817d0:	dc000005 	stb	r16,0(sp)
   817d4:	00800234 	movhi	r2,8
   817d8:	1085bf04 	addi	r2,r2,5884
   817dc:	dfc00215 	stw	ra,8(sp)
   817e0:	28800115 	stw	r2,4(r5)
   817e4:	d80d883a 	mov	r6,sp
   817e8:	01c00044 	movi	r7,1
   817ec:	103ee83a 	callr	r2
   817f0:	1007883a 	mov	r3,r2
   817f4:	00bfffc4 	movi	r2,-1
   817f8:	18800526 	beq	r3,r2,81810 <putc+0x58>
   817fc:	8005883a 	mov	r2,r16
   81800:	dfc00217 	ldw	ra,8(sp)
   81804:	dc000117 	ldw	r16,4(sp)
   81808:	dec00304 	addi	sp,sp,12
   8180c:	f800283a 	ret
   81810:	1821883a 	mov	r16,r3
   81814:	8005883a 	mov	r2,r16
   81818:	dfc00217 	ldw	ra,8(sp)
   8181c:	dc000117 	ldw	r16,4(sp)
   81820:	dec00304 	addi	sp,sp,12
   81824:	f800283a 	ret

00081828 <_putc_r>:
   81828:	00800274 	movhi	r2,9
   8182c:	109a8f04 	addi	r2,r2,27196
   81830:	defffd04 	addi	sp,sp,-12
   81834:	11000017 	ldw	r4,0(r2)
   81838:	00800234 	movhi	r2,8
   8183c:	1085bf04 	addi	r2,r2,5884
   81840:	30800115 	stw	r2,4(r6)
   81844:	dc000115 	stw	r16,4(sp)
   81848:	2821883a 	mov	r16,r5
   8184c:	dfc00215 	stw	ra,8(sp)
   81850:	300b883a 	mov	r5,r6
   81854:	01c00044 	movi	r7,1
   81858:	d80d883a 	mov	r6,sp
   8185c:	dc000005 	stb	r16,0(sp)
   81860:	103ee83a 	callr	r2
   81864:	1007883a 	mov	r3,r2
   81868:	00bfffc4 	movi	r2,-1
   8186c:	18800526 	beq	r3,r2,81884 <_putc_r+0x5c>
   81870:	8005883a 	mov	r2,r16
   81874:	dfc00217 	ldw	ra,8(sp)
   81878:	dc000117 	ldw	r16,4(sp)
   8187c:	dec00304 	addi	sp,sp,12
   81880:	f800283a 	ret
   81884:	1821883a 	mov	r16,r3
   81888:	8005883a 	mov	r2,r16
   8188c:	dfc00217 	ldw	ra,8(sp)
   81890:	dc000117 	ldw	r16,4(sp)
   81894:	dec00304 	addi	sp,sp,12
   81898:	f800283a 	ret

0008189c <_write_r>:
   8189c:	defffd04 	addi	sp,sp,-12
   818a0:	dc000015 	stw	r16,0(sp)
   818a4:	040002b4 	movhi	r16,10
   818a8:	840c8204 	addi	r16,r16,12808
   818ac:	dc400115 	stw	r17,4(sp)
   818b0:	80000015 	stw	zero,0(r16)
   818b4:	2023883a 	mov	r17,r4
   818b8:	2809883a 	mov	r4,r5
   818bc:	300b883a 	mov	r5,r6
   818c0:	380d883a 	mov	r6,r7
   818c4:	dfc00215 	stw	ra,8(sp)
   818c8:	0081a840 	call	81a84 <write>
   818cc:	1007883a 	mov	r3,r2
   818d0:	00bfffc4 	movi	r2,-1
   818d4:	18800626 	beq	r3,r2,818f0 <_write_r+0x54>
   818d8:	1805883a 	mov	r2,r3
   818dc:	dfc00217 	ldw	ra,8(sp)
   818e0:	dc400117 	ldw	r17,4(sp)
   818e4:	dc000017 	ldw	r16,0(sp)
   818e8:	dec00304 	addi	sp,sp,12
   818ec:	f800283a 	ret
   818f0:	80800017 	ldw	r2,0(r16)
   818f4:	103ff826 	beq	r2,zero,818d8 <_write_r+0x3c>
   818f8:	88800015 	stw	r2,0(r17)
   818fc:	1805883a 	mov	r2,r3
   81900:	dfc00217 	ldw	ra,8(sp)
   81904:	dc400117 	ldw	r17,4(sp)
   81908:	dc000017 	ldw	r16,0(sp)
   8190c:	dec00304 	addi	sp,sp,12
   81910:	f800283a 	ret

00081914 <alt_load_section>:
   81914:	2900051e 	bne	r5,r4,8192c <alt_load_section+0x18>
   81918:	f800283a 	ret
   8191c:	20800017 	ldw	r2,0(r4)
   81920:	21000104 	addi	r4,r4,4
   81924:	28800015 	stw	r2,0(r5)
   81928:	29400104 	addi	r5,r5,4
   8192c:	29bffb1e 	bne	r5,r6,8191c <alt_load_section+0x8>
   81930:	f800283a 	ret

00081934 <alt_load>:
   81934:	deffff04 	addi	sp,sp,-4
   81938:	01000274 	movhi	r4,9
   8193c:	211abd04 	addi	r4,r4,27380
   81940:	01400274 	movhi	r5,9
   81944:	2968fb04 	addi	r5,r5,-23572
   81948:	01800274 	movhi	r6,9
   8194c:	319abd04 	addi	r6,r6,27380
   81950:	dfc00015 	stw	ra,0(sp)
   81954:	00819140 	call	81914 <alt_load_section>
   81958:	01000234 	movhi	r4,8
   8195c:	21000804 	addi	r4,r4,32
   81960:	01400234 	movhi	r5,8
   81964:	29400804 	addi	r5,r5,32
   81968:	01800234 	movhi	r6,8
   8196c:	31805304 	addi	r6,r6,332
   81970:	00819140 	call	81914 <alt_load_section>
   81974:	01000274 	movhi	r4,9
   81978:	2127ed04 	addi	r4,r4,-24652
   8197c:	01400274 	movhi	r5,9
   81980:	2967ed04 	addi	r5,r5,-24652
   81984:	01800274 	movhi	r6,9
   81988:	31a8fb04 	addi	r6,r6,-23572
   8198c:	00819140 	call	81914 <alt_load_section>
   81990:	00870d80 	call	870d8 <alt_dcache_flush_all>
   81994:	dfc00017 	ldw	ra,0(sp)
   81998:	dec00104 	addi	sp,sp,4
   8199c:	00872441 	jmpi	87244 <alt_icache_flush_all>

000819a0 <alt_main>:
   819a0:	defffd04 	addi	sp,sp,-12
   819a4:	0009883a 	mov	r4,zero
   819a8:	dfc00215 	stw	ra,8(sp)
   819ac:	dc400115 	stw	r17,4(sp)
   819b0:	dc000015 	stw	r16,0(sp)
   819b4:	04400044 	movi	r17,1
   819b8:	0086c280 	call	86c28 <alt_irq_init>
   819bc:	00821d00 	call	821d0 <OSInit>
   819c0:	8809883a 	mov	r4,r17
   819c4:	00848500 	call	84850 <OSSemCreate>
   819c8:	00c002b4 	movhi	r3,10
   819cc:	18cc8704 	addi	r3,r3,12828
   819d0:	8809883a 	mov	r4,r17
   819d4:	18800015 	stw	r2,0(r3)
   819d8:	00848500 	call	84850 <OSSemCreate>
   819dc:	00c002b4 	movhi	r3,10
   819e0:	18cc8904 	addi	r3,r3,12836
   819e4:	8809883a 	mov	r4,r17
   819e8:	18800015 	stw	r2,0(r3)
   819ec:	00848500 	call	84850 <OSSemCreate>
   819f0:	00c002b4 	movhi	r3,10
   819f4:	18cca404 	addi	r3,r3,12944
   819f8:	18800015 	stw	r2,0(r3)
   819fc:	0086b900 	call	86b90 <alt_sys_init>
   81a00:	00871540 	call	87154 <_do_ctors>
   81a04:	01000234 	movhi	r4,8
   81a08:	211c6504 	addi	r4,r4,29076
   81a0c:	00877280 	call	87728 <atexit>
   81a10:	d151f817 	ldw	r5,18400(gp)
   81a14:	d191f917 	ldw	r6,18404(gp)
   81a18:	d111f717 	ldw	r4,18396(gp)
   81a1c:	00805840 	call	80584 <main>
   81a20:	1021883a 	mov	r16,r2
   81a24:	8809883a 	mov	r4,r17
   81a28:	00870980 	call	87098 <close>
   81a2c:	8009883a 	mov	r4,r16
   81a30:	008773c0 	call	8773c <exit>

00081a34 <sbrk>:
   81a34:	000b303a 	rdctl	r5,status
   81a38:	00bfff84 	movi	r2,-2
   81a3c:	2884703a 	and	r2,r5,r2
   81a40:	1001703a 	wrctl	status,r2
   81a44:	d0a00517 	ldw	r2,-32748(gp)
   81a48:	00ffff04 	movi	r3,-4
   81a4c:	108000c4 	addi	r2,r2,3
   81a50:	10c6703a 	and	r3,r2,r3
   81a54:	1909883a 	add	r4,r3,r4
   81a58:	00800434 	movhi	r2,16
   81a5c:	10800004 	addi	r2,r2,0
   81a60:	d0e00515 	stw	r3,-32748(gp)
   81a64:	1100032e 	bgeu	r2,r4,81a74 <sbrk+0x40>
   81a68:	2801703a 	wrctl	status,r5
   81a6c:	00ffffc4 	movi	r3,-1
   81a70:	00000206 	br	81a7c <sbrk+0x48>
   81a74:	d1200515 	stw	r4,-32748(gp)
   81a78:	2801703a 	wrctl	status,r5
   81a7c:	1805883a 	mov	r2,r3
   81a80:	f800283a 	ret

00081a84 <write>:
   81a84:	deffff04 	addi	sp,sp,-4
   81a88:	2007883a 	mov	r3,r4
   81a8c:	00800044 	movi	r2,1
   81a90:	dfc00015 	stw	ra,0(sp)
   81a94:	000f883a 	mov	r7,zero
   81a98:	01000274 	movhi	r4,9
   81a9c:	211ab104 	addi	r4,r4,27332
   81aa0:	18800526 	beq	r3,r2,81ab8 <write+0x34>
   81aa4:	00800084 	movi	r2,2
   81aa8:	1880061e 	bne	r3,r2,81ac4 <write+0x40>
   81aac:	01000274 	movhi	r4,9
   81ab0:	211ab104 	addi	r4,r4,27332
   81ab4:	000f883a 	mov	r7,zero
   81ab8:	dfc00017 	ldw	ra,0(sp)
   81abc:	dec00104 	addi	sp,sp,4
   81ac0:	0086c481 	jmpi	86c48 <altera_avalon_jtag_uart_write>
   81ac4:	00800274 	movhi	r2,9
   81ac8:	109ab904 	addi	r2,r2,27364
   81acc:	10800017 	ldw	r2,0(r2)
   81ad0:	00c002b4 	movhi	r3,10
   81ad4:	18cc8204 	addi	r3,r3,12808
   81ad8:	10000226 	beq	r2,zero,81ae4 <write+0x60>
   81adc:	103ee83a 	callr	r2
   81ae0:	1007883a 	mov	r3,r2
   81ae4:	00801444 	movi	r2,81
   81ae8:	18800015 	stw	r2,0(r3)
   81aec:	00bfffc4 	movi	r2,-1
   81af0:	dfc00017 	ldw	ra,0(sp)
   81af4:	dec00104 	addi	sp,sp,4
   81af8:	f800283a 	ret

00081afc <__env_unlock>:
   81afc:	d091fa17 	ldw	r2,18408(gp)
   81b00:	10ffffc4 	addi	r3,r2,-1
   81b04:	10000626 	beq	r2,zero,81b20 <__env_unlock+0x24>
   81b08:	d0d1fa15 	stw	r3,18408(gp)
   81b0c:	1800041e 	bne	r3,zero,81b20 <__env_unlock+0x24>
   81b10:	d111fb17 	ldw	r4,18412(gp)
   81b14:	00bfffc4 	movi	r2,-1
   81b18:	d0a00615 	stw	r2,-32744(gp)
   81b1c:	0084c841 	jmpi	84c84 <OSSemPost>
   81b20:	f800283a 	ret

00081b24 <__env_lock>:
   81b24:	deffe104 	addi	sp,sp,-124
   81b28:	d9400204 	addi	r5,sp,8
   81b2c:	01003fc4 	movi	r4,255
   81b30:	dfc01e15 	stw	ra,120(sp)
   81b34:	dc001d15 	stw	r16,116(sp)
   81b38:	0084db80 	call	84db8 <OSTaskQuery>
   81b3c:	10803fcc 	andi	r2,r2,255
   81b40:	d9400084 	addi	r5,sp,2
   81b44:	1000131e 	bne	r2,zero,81b94 <__env_lock+0x70>
   81b48:	d111fb17 	ldw	r4,18412(gp)
   81b4c:	d8000005 	stb	zero,0(sp)
   81b50:	dc000e83 	ldbu	r16,58(sp)
   81b54:	0084d200 	call	84d20 <OSSemQuery>
   81b58:	d88001c3 	ldbu	r2,7(sp)
   81b5c:	000b883a 	mov	r5,zero
   81b60:	d80d883a 	mov	r6,sp
   81b64:	10000626 	beq	r2,zero,81b80 <__env_lock+0x5c>
   81b68:	d0a00617 	ldw	r2,-32744(gp)
   81b6c:	8080041e 	bne	r16,r2,81b80 <__env_lock+0x5c>
   81b70:	d091fa17 	ldw	r2,18408(gp)
   81b74:	10800044 	addi	r2,r2,1
   81b78:	d091fa15 	stw	r2,18408(gp)
   81b7c:	00000506 	br	81b94 <__env_lock+0x70>
   81b80:	d111fb17 	ldw	r4,18412(gp)
   81b84:	0084a300 	call	84a30 <OSSemPend>
   81b88:	00800044 	movi	r2,1
   81b8c:	d091fa15 	stw	r2,18408(gp)
   81b90:	d4200615 	stw	r16,-32744(gp)
   81b94:	dfc01e17 	ldw	ra,120(sp)
   81b98:	dc001d17 	ldw	r16,116(sp)
   81b9c:	dec01f04 	addi	sp,sp,124
   81ba0:	f800283a 	ret

00081ba4 <__malloc_unlock>:
   81ba4:	008002b4 	movhi	r2,10
   81ba8:	108c8d04 	addi	r2,r2,12852
   81bac:	10c00003 	ldbu	r3,0(r2)
   81bb0:	00800044 	movi	r2,1
   81bb4:	1880111e 	bne	r3,r2,81bfc <__malloc_unlock+0x58>
   81bb8:	0009303a 	rdctl	r4,status
   81bbc:	00bfff84 	movi	r2,-2
   81bc0:	2084703a 	and	r2,r4,r2
   81bc4:	1001703a 	wrctl	status,r2
   81bc8:	d091fc17 	ldw	r2,18416(gp)
   81bcc:	10c7c83a 	sub	r3,r2,r3
   81bd0:	1000021e 	bne	r2,zero,81bdc <__malloc_unlock+0x38>
   81bd4:	2001703a 	wrctl	status,r4
   81bd8:	f800283a 	ret
   81bdc:	d0d1fc15 	stw	r3,18416(gp)
   81be0:	1800051e 	bne	r3,zero,81bf8 <__malloc_unlock+0x54>
   81be4:	00bfffc4 	movi	r2,-1
   81be8:	d0a00715 	stw	r2,-32740(gp)
   81bec:	2001703a 	wrctl	status,r4
   81bf0:	d111fd17 	ldw	r4,18420(gp)
   81bf4:	0084c841 	jmpi	84c84 <OSSemPost>
   81bf8:	2001703a 	wrctl	status,r4
   81bfc:	f800283a 	ret

00081c00 <__malloc_lock>:
   81c00:	deffe004 	addi	sp,sp,-128
   81c04:	008002b4 	movhi	r2,10
   81c08:	108c8d04 	addi	r2,r2,12852
   81c0c:	dfc01f15 	stw	ra,124(sp)
   81c10:	dc401e15 	stw	r17,120(sp)
   81c14:	dc001d15 	stw	r16,116(sp)
   81c18:	14400003 	ldbu	r17,0(r2)
   81c1c:	00800044 	movi	r2,1
   81c20:	d9400204 	addi	r5,sp,8
   81c24:	01003fc4 	movi	r4,255
   81c28:	88801d1e 	bne	r17,r2,81ca0 <__malloc_lock+0xa0>
   81c2c:	0084db80 	call	84db8 <OSTaskQuery>
   81c30:	10803fcc 	andi	r2,r2,255
   81c34:	d9400084 	addi	r5,sp,2
   81c38:	1000191e 	bne	r2,zero,81ca0 <__malloc_lock+0xa0>
   81c3c:	d111fd17 	ldw	r4,18420(gp)
   81c40:	dc000e83 	ldbu	r16,58(sp)
   81c44:	d8000005 	stb	zero,0(sp)
   81c48:	0084d200 	call	84d20 <OSSemQuery>
   81c4c:	0007303a 	rdctl	r3,status
   81c50:	00bfff84 	movi	r2,-2
   81c54:	1884703a 	and	r2,r3,r2
   81c58:	1001703a 	wrctl	status,r2
   81c5c:	d880008b 	ldhu	r2,2(sp)
   81c60:	1000071e 	bne	r2,zero,81c80 <__malloc_lock+0x80>
   81c64:	d0a00717 	ldw	r2,-32740(gp)
   81c68:	8080051e 	bne	r16,r2,81c80 <__malloc_lock+0x80>
   81c6c:	d091fc17 	ldw	r2,18416(gp)
   81c70:	1445883a 	add	r2,r2,r17
   81c74:	d091fc15 	stw	r2,18416(gp)
   81c78:	1801703a 	wrctl	status,r3
   81c7c:	00000806 	br	81ca0 <__malloc_lock+0xa0>
   81c80:	1801703a 	wrctl	status,r3
   81c84:	d111fd17 	ldw	r4,18420(gp)
   81c88:	000b883a 	mov	r5,zero
   81c8c:	d80d883a 	mov	r6,sp
   81c90:	0084a300 	call	84a30 <OSSemPend>
   81c94:	00800044 	movi	r2,1
   81c98:	d091fc15 	stw	r2,18416(gp)
   81c9c:	d4200715 	stw	r16,-32740(gp)
   81ca0:	dfc01f17 	ldw	ra,124(sp)
   81ca4:	dc401e17 	ldw	r17,120(sp)
   81ca8:	dc001d17 	ldw	r16,116(sp)
   81cac:	dec02004 	addi	sp,sp,128
   81cb0:	f800283a 	ret

00081cb4 <OSVersion>:
   81cb4:	00804784 	movi	r2,286
   81cb8:	f800283a 	ret

00081cbc <OS_Dummy>:
   81cbc:	f800283a 	ret

00081cc0 <OS_EventTaskWait>:
   81cc0:	d0921117 	ldw	r2,18500(gp)
   81cc4:	10c00d03 	ldbu	r3,52(r2)
   81cc8:	11000715 	stw	r4,28(r2)
   81ccc:	11800d43 	ldbu	r6,53(r2)
   81cd0:	1907883a 	add	r3,r3,r4
   81cd4:	18c00204 	addi	r3,r3,8
   81cd8:	188000c3 	ldbu	r2,3(r3)
   81cdc:	21400283 	ldbu	r5,10(r4)
   81ce0:	1184b03a 	or	r2,r2,r6
   81ce4:	188000c5 	stb	r2,3(r3)
   81ce8:	d0921117 	ldw	r2,18500(gp)
   81cec:	d0d20e44 	addi	r3,gp,18489
   81cf0:	10800d83 	ldbu	r2,54(r2)
   81cf4:	288ab03a 	or	r5,r5,r2
   81cf8:	21400285 	stb	r5,10(r4)
   81cfc:	d1521117 	ldw	r5,18500(gp)
   81d00:	29000d03 	ldbu	r4,52(r5)
   81d04:	28800d43 	ldbu	r2,53(r5)
   81d08:	20c9883a 	add	r4,r4,r3
   81d0c:	20c00003 	ldbu	r3,0(r4)
   81d10:	0084303a 	nor	r2,zero,r2
   81d14:	10c4703a 	and	r2,r2,r3
   81d18:	10c03fcc 	andi	r3,r2,255
   81d1c:	18c0201c 	xori	r3,r3,128
   81d20:	18ffe004 	addi	r3,r3,-128
   81d24:	20800005 	stb	r2,0(r4)
   81d28:	1800051e 	bne	r3,zero,81d40 <OS_EventTaskWait+0x80>
   81d2c:	28800d83 	ldbu	r2,54(r5)
   81d30:	d0d20e03 	ldbu	r3,18488(gp)
   81d34:	0084303a 	nor	r2,zero,r2
   81d38:	10c4703a 	and	r2,r2,r3
   81d3c:	d0920e05 	stb	r2,18488(gp)
   81d40:	f800283a 	ret

00081d44 <OS_EventTaskWaitMulti>:
   81d44:	d0921117 	ldw	r2,18500(gp)
   81d48:	200f883a 	mov	r7,r4
   81d4c:	10000715 	stw	zero,28(r2)
   81d50:	21800017 	ldw	r6,0(r4)
   81d54:	11000815 	stw	r4,32(r2)
   81d58:	00000d06 	br	81d90 <OS_EventTaskWaitMulti+0x4c>
   81d5c:	28c00d03 	ldbu	r3,52(r5)
   81d60:	29400d43 	ldbu	r5,53(r5)
   81d64:	31000283 	ldbu	r4,10(r6)
   81d68:	1987883a 	add	r3,r3,r6
   81d6c:	18c00204 	addi	r3,r3,8
   81d70:	188000c3 	ldbu	r2,3(r3)
   81d74:	1144b03a 	or	r2,r2,r5
   81d78:	188000c5 	stb	r2,3(r3)
   81d7c:	d0921117 	ldw	r2,18500(gp)
   81d80:	10800d83 	ldbu	r2,54(r2)
   81d84:	2088b03a 	or	r4,r4,r2
   81d88:	31000285 	stb	r4,10(r6)
   81d8c:	39800017 	ldw	r6,0(r7)
   81d90:	39c00104 	addi	r7,r7,4
   81d94:	d1521117 	ldw	r5,18500(gp)
   81d98:	303ff01e 	bne	r6,zero,81d5c <OS_EventTaskWaitMulti+0x18>
   81d9c:	29000d03 	ldbu	r4,52(r5)
   81da0:	d0d20e44 	addi	r3,gp,18489
   81da4:	28800d43 	ldbu	r2,53(r5)
   81da8:	20c9883a 	add	r4,r4,r3
   81dac:	20c00003 	ldbu	r3,0(r4)
   81db0:	0084303a 	nor	r2,zero,r2
   81db4:	10c4703a 	and	r2,r2,r3
   81db8:	10c03fcc 	andi	r3,r2,255
   81dbc:	18c0201c 	xori	r3,r3,128
   81dc0:	18ffe004 	addi	r3,r3,-128
   81dc4:	20800005 	stb	r2,0(r4)
   81dc8:	1800051e 	bne	r3,zero,81de0 <OS_EventTaskWaitMulti+0x9c>
   81dcc:	28800d83 	ldbu	r2,54(r5)
   81dd0:	d0d20e03 	ldbu	r3,18488(gp)
   81dd4:	0084303a 	nor	r2,zero,r2
   81dd8:	10c4703a 	and	r2,r2,r3
   81ddc:	d0920e05 	stb	r2,18488(gp)
   81de0:	f800283a 	ret

00081de4 <OS_EventTaskRemove>:
   81de4:	20c00d03 	ldbu	r3,52(r4)
   81de8:	20800d43 	ldbu	r2,53(r4)
   81dec:	200d883a 	mov	r6,r4
   81df0:	1947883a 	add	r3,r3,r5
   81df4:	18c00204 	addi	r3,r3,8
   81df8:	190000c3 	ldbu	r4,3(r3)
   81dfc:	0084303a 	nor	r2,zero,r2
   81e00:	1104703a 	and	r2,r2,r4
   81e04:	11003fcc 	andi	r4,r2,255
   81e08:	2100201c 	xori	r4,r4,128
   81e0c:	213fe004 	addi	r4,r4,-128
   81e10:	188000c5 	stb	r2,3(r3)
   81e14:	2000051e 	bne	r4,zero,81e2c <OS_EventTaskRemove+0x48>
   81e18:	30800d83 	ldbu	r2,54(r6)
   81e1c:	28c00283 	ldbu	r3,10(r5)
   81e20:	0084303a 	nor	r2,zero,r2
   81e24:	10c4703a 	and	r2,r2,r3
   81e28:	28800285 	stb	r2,10(r5)
   81e2c:	f800283a 	ret

00081e30 <OS_EventTaskRemoveMulti>:
   81e30:	20c00d83 	ldbu	r3,54(r4)
   81e34:	20800d43 	ldbu	r2,53(r4)
   81e38:	22400d03 	ldbu	r9,52(r4)
   81e3c:	29000017 	ldw	r4,0(r5)
   81e40:	0090303a 	nor	r8,zero,r2
   81e44:	00ce303a 	nor	r7,zero,r3
   81e48:	00000b06 	br	81e78 <OS_EventTaskRemoveMulti+0x48>
   81e4c:	308000c3 	ldbu	r2,3(r6)
   81e50:	4084703a 	and	r2,r8,r2
   81e54:	10c03fcc 	andi	r3,r2,255
   81e58:	18c0201c 	xori	r3,r3,128
   81e5c:	18ffe004 	addi	r3,r3,-128
   81e60:	308000c5 	stb	r2,3(r6)
   81e64:	1800031e 	bne	r3,zero,81e74 <OS_EventTaskRemoveMulti+0x44>
   81e68:	20800283 	ldbu	r2,10(r4)
   81e6c:	3884703a 	and	r2,r7,r2
   81e70:	20800285 	stb	r2,10(r4)
   81e74:	29000017 	ldw	r4,0(r5)
   81e78:	4905883a 	add	r2,r9,r4
   81e7c:	11800204 	addi	r6,r2,8
   81e80:	29400104 	addi	r5,r5,4
   81e84:	203ff11e 	bne	r4,zero,81e4c <OS_EventTaskRemoveMulti+0x1c>
   81e88:	f800283a 	ret

00081e8c <OS_EventTaskRdy>:
   81e8c:	defffc04 	addi	sp,sp,-16
   81e90:	dc800215 	stw	r18,8(sp)
   81e94:	dc400115 	stw	r17,4(sp)
   81e98:	dc000015 	stw	r16,0(sp)
   81e9c:	dfc00315 	stw	ra,12(sp)
   81ea0:	20800283 	ldbu	r2,10(r4)
   81ea4:	02400274 	movhi	r9,9
   81ea8:	4a680184 	addi	r9,r9,-24570
   81eac:	2025883a 	mov	r18,r4
   81eb0:	1245883a 	add	r2,r2,r9
   81eb4:	11000003 	ldbu	r4,0(r2)
   81eb8:	018c303a 	nor	r6,zero,r6
   81ebc:	22003fcc 	andi	r8,r4,255
   81ec0:	4485883a 	add	r2,r8,r18
   81ec4:	10c002c3 	ldbu	r3,11(r2)
   81ec8:	d0920e44 	addi	r2,gp,18489
   81ecc:	200890fa 	slli	r4,r4,3
   81ed0:	1a47883a 	add	r3,r3,r9
   81ed4:	4091883a 	add	r8,r8,r2
   81ed8:	18800003 	ldbu	r2,0(r3)
   81edc:	00c002b4 	movhi	r3,10
   81ee0:	18dbfb04 	addi	r3,r3,28652
   81ee4:	2089883a 	add	r4,r4,r2
   81ee8:	24403fcc 	andi	r17,r4,255
   81eec:	8c45883a 	add	r2,r17,r17
   81ef0:	1085883a 	add	r2,r2,r2
   81ef4:	10c5883a 	add	r2,r2,r3
   81ef8:	14000017 	ldw	r16,0(r2)
   81efc:	80800c03 	ldbu	r2,48(r16)
   81f00:	81400915 	stw	r5,36(r16)
   81f04:	8009883a 	mov	r4,r16
   81f08:	308c703a 	and	r6,r6,r2
   81f0c:	30803fcc 	andi	r2,r6,255
   81f10:	1080020c 	andi	r2,r2,8
   81f14:	81c00c45 	stb	r7,49(r16)
   81f18:	81800c05 	stb	r6,48(r16)
   81f1c:	900b883a 	mov	r5,r18
   81f20:	80000b8d 	sth	zero,46(r16)
   81f24:	1000081e 	bne	r2,zero,81f48 <OS_EventTaskRdy+0xbc>
   81f28:	81800d83 	ldbu	r6,54(r16)
   81f2c:	d0920e03 	ldbu	r2,18488(gp)
   81f30:	40c00003 	ldbu	r3,0(r8)
   81f34:	1184b03a 	or	r2,r2,r6
   81f38:	d0920e05 	stb	r2,18488(gp)
   81f3c:	80800d43 	ldbu	r2,53(r16)
   81f40:	1886b03a 	or	r3,r3,r2
   81f44:	40c00005 	stb	r3,0(r8)
   81f48:	0081de40 	call	81de4 <OS_EventTaskRemove>
   81f4c:	80800817 	ldw	r2,32(r16)
   81f50:	8009883a 	mov	r4,r16
   81f54:	100b883a 	mov	r5,r2
   81f58:	10000226 	beq	r2,zero,81f64 <OS_EventTaskRdy+0xd8>
   81f5c:	0081e300 	call	81e30 <OS_EventTaskRemoveMulti>
   81f60:	84800715 	stw	r18,28(r16)
   81f64:	8805883a 	mov	r2,r17
   81f68:	dfc00317 	ldw	ra,12(sp)
   81f6c:	dc800217 	ldw	r18,8(sp)
   81f70:	dc400117 	ldw	r17,4(sp)
   81f74:	dc000017 	ldw	r16,0(sp)
   81f78:	dec00404 	addi	sp,sp,16
   81f7c:	f800283a 	ret

00081f80 <OS_EventWaitListInit>:
   81f80:	20000285 	stb	zero,10(r4)
   81f84:	210002c4 	addi	r4,r4,11
   81f88:	20000005 	stb	zero,0(r4)
   81f8c:	21000044 	addi	r4,r4,1
   81f90:	20000045 	stb	zero,1(r4)
   81f94:	20000005 	stb	zero,0(r4)
   81f98:	f800283a 	ret

00081f9c <OS_MemClr>:
   81f9c:	00000206 	br	81fa8 <OS_MemClr+0xc>
   81fa0:	20000005 	stb	zero,0(r4)
   81fa4:	21000044 	addi	r4,r4,1
   81fa8:	28bfffcc 	andi	r2,r5,65535
   81fac:	297fffc4 	addi	r5,r5,-1
   81fb0:	103ffb1e 	bne	r2,zero,81fa0 <OS_MemClr+0x4>
   81fb4:	f800283a 	ret

00081fb8 <OS_MemCopy>:
   81fb8:	00000406 	br	81fcc <OS_MemCopy+0x14>
   81fbc:	28800003 	ldbu	r2,0(r5)
   81fc0:	29400044 	addi	r5,r5,1
   81fc4:	20800005 	stb	r2,0(r4)
   81fc8:	21000044 	addi	r4,r4,1
   81fcc:	30bfffcc 	andi	r2,r6,65535
   81fd0:	31bfffc4 	addi	r6,r6,-1
   81fd4:	103ff91e 	bne	r2,zero,81fbc <OS_MemCopy+0x4>
   81fd8:	f800283a 	ret

00081fdc <OS_StrCopy>:
   81fdc:	2007883a 	mov	r3,r4
   81fe0:	00000206 	br	81fec <OS_StrCopy+0x10>
   81fe4:	18800005 	stb	r2,0(r3)
   81fe8:	18c00044 	addi	r3,r3,1
   81fec:	28800003 	ldbu	r2,0(r5)
   81ff0:	29400044 	addi	r5,r5,1
   81ff4:	103ffb1e 	bne	r2,zero,81fe4 <OS_StrCopy+0x8>
   81ff8:	1905c83a 	sub	r2,r3,r4
   81ffc:	10803fcc 	andi	r2,r2,255
   82000:	18000005 	stb	zero,0(r3)
   82004:	f800283a 	ret

00082008 <OS_StrLen>:
   82008:	2007883a 	mov	r3,r4
   8200c:	00000106 	br	82014 <OS_StrLen+0xc>
   82010:	18c00044 	addi	r3,r3,1
   82014:	18800003 	ldbu	r2,0(r3)
   82018:	103ffd1e 	bne	r2,zero,82010 <OS_StrLen+0x8>
   8201c:	1905c83a 	sub	r2,r3,r4
   82020:	10803fcc 	andi	r2,r2,255
   82024:	f800283a 	ret

00082028 <OS_TaskStatStkChk>:
   82028:	defffb04 	addi	sp,sp,-20
   8202c:	dc400315 	stw	r17,12(sp)
   82030:	dc000215 	stw	r16,8(sp)
   82034:	dfc00415 	stw	ra,16(sp)
   82038:	0021883a 	mov	r16,zero
   8203c:	044002b4 	movhi	r17,10
   82040:	8c5bfb04 	addi	r17,r17,28652
   82044:	8009883a 	mov	r4,r16
   82048:	d80b883a 	mov	r5,sp
   8204c:	00859c80 	call	859c8 <OSTaskStkChk>
   82050:	10803fcc 	andi	r2,r2,255
   82054:	84000044 	addi	r16,r16,1
   82058:	10000c1e 	bne	r2,zero,8208c <OS_TaskStatStkChk+0x64>
   8205c:	89000017 	ldw	r4,0(r17)
   82060:	20000a26 	beq	r4,zero,8208c <OS_TaskStatStkChk+0x64>
   82064:	00800044 	movi	r2,1
   82068:	20800826 	beq	r4,r2,8208c <OS_TaskStatStkChk+0x64>
   8206c:	20800317 	ldw	r2,12(r4)
   82070:	20c00217 	ldw	r3,8(r4)
   82074:	1085883a 	add	r2,r2,r2
   82078:	1085883a 	add	r2,r2,r2
   8207c:	1887883a 	add	r3,r3,r2
   82080:	d8800117 	ldw	r2,4(sp)
   82084:	20c01115 	stw	r3,68(r4)
   82088:	20801215 	stw	r2,72(r4)
   8208c:	00800544 	movi	r2,21
   82090:	8c400104 	addi	r17,r17,4
   82094:	80bfeb1e 	bne	r16,r2,82044 <OS_TaskStatStkChk+0x1c>
   82098:	dfc00417 	ldw	ra,16(sp)
   8209c:	dc400317 	ldw	r17,12(sp)
   820a0:	dc000217 	ldw	r16,8(sp)
   820a4:	dec00504 	addi	sp,sp,20
   820a8:	f800283a 	ret

000820ac <OS_Sched>:
   820ac:	defffe04 	addi	sp,sp,-8
   820b0:	dfc00115 	stw	ra,4(sp)
   820b4:	dc000015 	stw	r16,0(sp)
   820b8:	0021303a 	rdctl	r16,status
   820bc:	00bfff84 	movi	r2,-2
   820c0:	8084703a 	and	r2,r16,r2
   820c4:	1001703a 	wrctl	status,r2
   820c8:	d0921003 	ldbu	r2,18496(gp)
   820cc:	1000201e 	bne	r2,zero,82150 <OS_Sched+0xa4>
   820d0:	d091ff03 	ldbu	r2,18428(gp)
   820d4:	01400274 	movhi	r5,9
   820d8:	29680184 	addi	r5,r5,-24570
   820dc:	10001c1e 	bne	r2,zero,82150 <OS_Sched+0xa4>
   820e0:	d0920e03 	ldbu	r2,18488(gp)
   820e4:	d0d20e44 	addi	r3,gp,18489
   820e8:	d19203c3 	ldbu	r6,18447(gp)
   820ec:	1145883a 	add	r2,r2,r5
   820f0:	11000003 	ldbu	r4,0(r2)
   820f4:	20c5883a 	add	r2,r4,r3
   820f8:	10800003 	ldbu	r2,0(r2)
   820fc:	200890fa 	slli	r4,r4,3
   82100:	00c002b4 	movhi	r3,10
   82104:	18dbfb04 	addi	r3,r3,28652
   82108:	1145883a 	add	r2,r2,r5
   8210c:	10800003 	ldbu	r2,0(r2)
   82110:	2089883a 	add	r4,r4,r2
   82114:	21403fcc 	andi	r5,r4,255
   82118:	2945883a 	add	r2,r5,r5
   8211c:	1085883a 	add	r2,r2,r2
   82120:	10c5883a 	add	r2,r2,r3
   82124:	d1120385 	stb	r4,18446(gp)
   82128:	29800926 	beq	r5,r6,82150 <OS_Sched+0xa4>
   8212c:	10800017 	ldw	r2,0(r2)
   82130:	d1120617 	ldw	r4,18456(gp)
   82134:	10c00e17 	ldw	r3,56(r2)
   82138:	21000044 	addi	r4,r4,1
   8213c:	d0920c15 	stw	r2,18480(gp)
   82140:	18c00044 	addi	r3,r3,1
   82144:	10c00e15 	stw	r3,56(r2)
   82148:	d1120615 	stw	r4,18456(gp)
   8214c:	00873d00 	call	873d0 <OSCtxSw>
   82150:	8001703a 	wrctl	status,r16
   82154:	dfc00117 	ldw	ra,4(sp)
   82158:	dc000017 	ldw	r16,0(sp)
   8215c:	dec00204 	addi	sp,sp,8
   82160:	f800283a 	ret

00082164 <OSStart>:
   82164:	d0920103 	ldbu	r2,18436(gp)
   82168:	01400274 	movhi	r5,9
   8216c:	29680184 	addi	r5,r5,-24570
   82170:	1000161e 	bne	r2,zero,821cc <OSStart+0x68>
   82174:	d0920e03 	ldbu	r2,18488(gp)
   82178:	d0d20e44 	addi	r3,gp,18489
   8217c:	1145883a 	add	r2,r2,r5
   82180:	11000003 	ldbu	r4,0(r2)
   82184:	20c5883a 	add	r2,r4,r3
   82188:	10800003 	ldbu	r2,0(r2)
   8218c:	200890fa 	slli	r4,r4,3
   82190:	00c002b4 	movhi	r3,10
   82194:	18dbfb04 	addi	r3,r3,28652
   82198:	1145883a 	add	r2,r2,r5
   8219c:	10800003 	ldbu	r2,0(r2)
   821a0:	2089883a 	add	r4,r4,r2
   821a4:	20803fcc 	andi	r2,r4,255
   821a8:	1085883a 	add	r2,r2,r2
   821ac:	1085883a 	add	r2,r2,r2
   821b0:	10c5883a 	add	r2,r2,r3
   821b4:	10800017 	ldw	r2,0(r2)
   821b8:	d1120385 	stb	r4,18446(gp)
   821bc:	d11203c5 	stb	r4,18447(gp)
   821c0:	d0921115 	stw	r2,18500(gp)
   821c4:	d0920c15 	stw	r2,18480(gp)
   821c8:	008745c1 	jmpi	8745c <OSStartHighRdy>
   821cc:	f800283a 	ret

000821d0 <OSInit>:
   821d0:	defff704 	addi	sp,sp,-36
   821d4:	dfc00815 	stw	ra,32(sp)
   821d8:	dc000615 	stw	r16,24(sp)
   821dc:	dc400715 	stw	r17,28(sp)
   821e0:	00874b00 	call	874b0 <OSInitHookBegin>
   821e4:	d0920e44 	addi	r2,gp,18489
   821e8:	10000085 	stb	zero,2(r2)
   821ec:	10000045 	stb	zero,1(r2)
   821f0:	d0121315 	stw	zero,18508(gp)
   821f4:	010002b4 	movhi	r4,10
   821f8:	211ab704 	addi	r4,r4,27356
   821fc:	01414404 	movi	r5,1296
   82200:	d0121005 	stb	zero,18496(gp)
   82204:	d011ff05 	stb	zero,18428(gp)
   82208:	d0120a45 	stb	zero,18473(gp)
   8220c:	d0120105 	stb	zero,18436(gp)
   82210:	d0120615 	stw	zero,18456(gp)
   82214:	d0120215 	stw	zero,18440(gp)
   82218:	d0121715 	stw	zero,18524(gp)
   8221c:	d0120815 	stw	zero,18464(gp)
   82220:	d0121605 	stb	zero,18520(gp)
   82224:	d0120e05 	stb	zero,18488(gp)
   82228:	d0120e45 	stb	zero,18489(gp)
   8222c:	d01203c5 	stb	zero,18447(gp)
   82230:	d0120385 	stb	zero,18446(gp)
   82234:	d0120c15 	stw	zero,18480(gp)
   82238:	d0121115 	stw	zero,18500(gp)
   8223c:	0081f9c0 	call	81f9c <OS_MemClr>
   82240:	010002b4 	movhi	r4,10
   82244:	211bfb04 	addi	r4,r4,28652
   82248:	01401504 	movi	r5,84
   8224c:	0081f9c0 	call	81f9c <OS_MemClr>
   82250:	008002b4 	movhi	r2,10
   82254:	109ad204 	addi	r2,r2,27464
   82258:	04000fc4 	movi	r16,63
   8225c:	10c12904 	addi	r3,r2,1188
   82260:	10bfea15 	stw	r2,-88(r2)
   82264:	143ff805 	stb	r16,-32(r2)
   82268:	103ff845 	stb	zero,-31(r2)
   8226c:	10801b04 	addi	r2,r2,108
   82270:	10fffb1e 	bne	r2,r3,82260 <OSInit+0x90>
   82274:	10febc04 	addi	r3,r2,-1296
   82278:	10bfe504 	addi	r2,r2,-108
   8227c:	10001345 	stb	zero,77(r2)
   82280:	d0d20915 	stw	r3,18468(gp)
   82284:	10000515 	stw	zero,20(r2)
   82288:	14001305 	stb	r16,76(r2)
   8228c:	010002b4 	movhi	r4,10
   82290:	2117e704 	addi	r4,r4,24476
   82294:	0142d004 	movi	r5,2880
   82298:	d0120415 	stw	zero,18448(gp)
   8229c:	0081f9c0 	call	81f9c <OS_MemClr>
   822a0:	010002b4 	movhi	r4,10
   822a4:	2117f304 	addi	r4,r4,24524
   822a8:	800b883a 	mov	r5,r16
   822ac:	2082c404 	addi	r2,r4,2832
   822b0:	203ff405 	stb	zero,-48(r4)
   822b4:	213ff515 	stw	r4,-44(r4)
   822b8:	217ff785 	stb	r5,-34(r4)
   822bc:	203ff7c5 	stb	zero,-33(r4)
   822c0:	21000c04 	addi	r4,r4,48
   822c4:	20bffa1e 	bne	r4,r2,822b0 <OSInit+0xe0>
   822c8:	20bff404 	addi	r2,r4,-48
   822cc:	20fd3004 	addi	r3,r4,-2880
   822d0:	11400385 	stb	r5,14(r2)
   822d4:	100003c5 	stb	zero,15(r2)
   822d8:	d0d20f15 	stw	r3,18492(gp)
   822dc:	203ff405 	stb	zero,-48(r4)
   822e0:	10000115 	stw	zero,4(r2)
   822e4:	0082f540 	call	82f54 <OS_FlagInit>
   822e8:	0083a2c0 	call	83a2c <OS_MemInit>
   822ec:	0083de40 	call	83de4 <OS_QInit>
   822f0:	00c002b4 	movhi	r3,10
   822f4:	18d5e704 	addi	r3,r3,22428
   822f8:	1981ff04 	addi	r6,r3,2044
   822fc:	01c00504 	movi	r7,20
   82300:	04008004 	movi	r16,512
   82304:	044000c4 	movi	r17,3
   82308:	01000234 	movhi	r4,8
   8230c:	210a8104 	addi	r4,r4,10756
   82310:	000b883a 	mov	r5,zero
   82314:	00bfffd4 	movui	r2,65535
   82318:	d8c00115 	stw	r3,4(sp)
   8231c:	d8800015 	stw	r2,0(sp)
   82320:	dc000215 	stw	r16,8(sp)
   82324:	d8000315 	stw	zero,12(sp)
   82328:	dc400415 	stw	r17,16(sp)
   8232c:	00852280 	call	85228 <OSTaskCreateExt>
   82330:	01000504 	movi	r4,20
   82334:	d90d883a 	add	r6,sp,r4
   82338:	01400274 	movhi	r5,9
   8233c:	2967fa04 	addi	r5,r5,-24600
   82340:	00857a80 	call	857a8 <OSTaskNameSet>
   82344:	00c002b4 	movhi	r3,10
   82348:	18d16f04 	addi	r3,r3,17852
   8234c:	1981ff04 	addi	r6,r3,2044
   82350:	01c004c4 	movi	r7,19
   82354:	01000234 	movhi	r4,8
   82358:	210a8d04 	addi	r4,r4,10804
   8235c:	000b883a 	mov	r5,zero
   82360:	00bfff94 	movui	r2,65534
   82364:	d8c00115 	stw	r3,4(sp)
   82368:	d8800015 	stw	r2,0(sp)
   8236c:	dc000215 	stw	r16,8(sp)
   82370:	dc400415 	stw	r17,16(sp)
   82374:	d8000315 	stw	zero,12(sp)
   82378:	00852280 	call	85228 <OSTaskCreateExt>
   8237c:	010004c4 	movi	r4,19
   82380:	01400274 	movhi	r5,9
   82384:	2967fe04 	addi	r5,r5,-24584
   82388:	d9800504 	addi	r6,sp,20
   8238c:	00857a80 	call	857a8 <OSTaskNameSet>
   82390:	00860e00 	call	860e0 <OSTmr_Init>
   82394:	00874b80 	call	874b8 <OSInitHookEnd>
   82398:	0082dcc0 	call	82dcc <OSDebugInit>
   8239c:	dfc00817 	ldw	ra,32(sp)
   823a0:	dc400717 	ldw	r17,28(sp)
   823a4:	dc000617 	ldw	r16,24(sp)
   823a8:	dec00904 	addi	sp,sp,36
   823ac:	f800283a 	ret

000823b0 <OSEventNameGet>:
   823b0:	defffd04 	addi	sp,sp,-12
   823b4:	dc400115 	stw	r17,4(sp)
   823b8:	3023883a 	mov	r17,r6
   823bc:	dfc00215 	stw	ra,8(sp)
   823c0:	dc000015 	stw	r16,0(sp)
   823c4:	200d883a 	mov	r6,r4
   823c8:	8800021e 	bne	r17,zero,823d4 <OSEventNameGet+0x24>
   823cc:	0007883a 	mov	r3,zero
   823d0:	00001f06 	br	82450 <OSEventNameGet+0xa0>
   823d4:	2000031e 	bne	r4,zero,823e4 <OSEventNameGet+0x34>
   823d8:	0007883a 	mov	r3,zero
   823dc:	00800104 	movi	r2,4
   823e0:	00000306 	br	823f0 <OSEventNameGet+0x40>
   823e4:	2800041e 	bne	r5,zero,823f8 <OSEventNameGet+0x48>
   823e8:	0007883a 	mov	r3,zero
   823ec:	00800304 	movi	r2,12
   823f0:	88800005 	stb	r2,0(r17)
   823f4:	00001606 	br	82450 <OSEventNameGet+0xa0>
   823f8:	d0921003 	ldbu	r2,18496(gp)
   823fc:	10000326 	beq	r2,zero,8240c <OSEventNameGet+0x5c>
   82400:	0007883a 	mov	r3,zero
   82404:	00800444 	movi	r2,17
   82408:	003ff906 	br	823f0 <OSEventNameGet+0x40>
   8240c:	20800003 	ldbu	r2,0(r4)
   82410:	00c000c4 	movi	r3,3
   82414:	10bfffc4 	addi	r2,r2,-1
   82418:	1880032e 	bgeu	r3,r2,82428 <OSEventNameGet+0x78>
   8241c:	0007883a 	mov	r3,zero
   82420:	00800044 	movi	r2,1
   82424:	003ff206 	br	823f0 <OSEventNameGet+0x40>
   82428:	0021303a 	rdctl	r16,status
   8242c:	00bfff84 	movi	r2,-2
   82430:	8084703a 	and	r2,r16,r2
   82434:	1001703a 	wrctl	status,r2
   82438:	2809883a 	mov	r4,r5
   8243c:	31400384 	addi	r5,r6,14
   82440:	0081fdc0 	call	81fdc <OS_StrCopy>
   82444:	8001703a 	wrctl	status,r16
   82448:	88000005 	stb	zero,0(r17)
   8244c:	10c03fcc 	andi	r3,r2,255
   82450:	1805883a 	mov	r2,r3
   82454:	dfc00217 	ldw	ra,8(sp)
   82458:	dc400117 	ldw	r17,4(sp)
   8245c:	dc000017 	ldw	r16,0(sp)
   82460:	dec00304 	addi	sp,sp,12
   82464:	f800283a 	ret

00082468 <OSEventPendMulti>:
   82468:	defff704 	addi	sp,sp,-36
   8246c:	dd400515 	stw	r21,20(sp)
   82470:	dd400917 	ldw	r21,36(sp)
   82474:	dcc00315 	stw	r19,12(sp)
   82478:	dc800215 	stw	r18,8(sp)
   8247c:	dc400115 	stw	r17,4(sp)
   82480:	dfc00815 	stw	ra,32(sp)
   82484:	ddc00715 	stw	r23,28(sp)
   82488:	dd800615 	stw	r22,24(sp)
   8248c:	dd000415 	stw	r20,16(sp)
   82490:	dc000015 	stw	r16,0(sp)
   82494:	2027883a 	mov	r19,r4
   82498:	2823883a 	mov	r17,r5
   8249c:	3025883a 	mov	r18,r6
   824a0:	a800021e 	bne	r21,zero,824ac <OSEventPendMulti+0x44>
   824a4:	0007883a 	mov	r3,zero
   824a8:	0000b906 	br	82790 <OSEventPendMulti+0x328>
   824ac:	20000226 	beq	r4,zero,824b8 <OSEventPendMulti+0x50>
   824b0:	28000126 	beq	r5,zero,824b8 <OSEventPendMulti+0x50>
   824b4:	3000031e 	bne	r6,zero,824c4 <OSEventPendMulti+0x5c>
   824b8:	0007883a 	mov	r3,zero
   824bc:	00800104 	movi	r2,4
   824c0:	0000a406 	br	82754 <OSEventPendMulti+0x2ec>
   824c4:	28000015 	stw	zero,0(r5)
   824c8:	20800017 	ldw	r2,0(r4)
   824cc:	2007883a 	mov	r3,r4
   824d0:	01000084 	movi	r4,2
   824d4:	00000406 	br	824e8 <OSEventPendMulti+0x80>
   824d8:	10800003 	ldbu	r2,0(r2)
   824dc:	10bfffc4 	addi	r2,r2,-1
   824e0:	20809a36 	bltu	r4,r2,8274c <OSEventPendMulti+0x2e4>
   824e4:	18800017 	ldw	r2,0(r3)
   824e8:	18c00104 	addi	r3,r3,4
   824ec:	103ffa1e 	bne	r2,zero,824d8 <OSEventPendMulti+0x70>
   824f0:	d0921003 	ldbu	r2,18496(gp)
   824f4:	10000326 	beq	r2,zero,82504 <OSEventPendMulti+0x9c>
   824f8:	0007883a 	mov	r3,zero
   824fc:	00800084 	movi	r2,2
   82500:	00009406 	br	82754 <OSEventPendMulti+0x2ec>
   82504:	d091ff03 	ldbu	r2,18428(gp)
   82508:	10000326 	beq	r2,zero,82518 <OSEventPendMulti+0xb0>
   8250c:	0007883a 	mov	r3,zero
   82510:	00800344 	movi	r2,13
   82514:	00008f06 	br	82754 <OSEventPendMulti+0x2ec>
   82518:	002d303a 	rdctl	r22,status
   8251c:	00bfff84 	movi	r2,-2
   82520:	b084703a 	and	r2,r22,r2
   82524:	1001703a 	wrctl	status,r2
   82528:	9c000017 	ldw	r16,0(r19)
   8252c:	9811883a 	mov	r8,r19
   82530:	0009883a 	mov	r4,zero
   82534:	0029883a 	mov	r20,zero
   82538:	000d883a 	mov	r6,zero
   8253c:	00003e06 	br	82638 <OSEventPendMulti+0x1d0>
   82540:	80c00003 	ldbu	r3,0(r16)
   82544:	00800084 	movi	r2,2
   82548:	18801e26 	beq	r3,r2,825c4 <OSEventPendMulti+0x15c>
   8254c:	008000c4 	movi	r2,3
   82550:	18800326 	beq	r3,r2,82560 <OSEventPendMulti+0xf8>
   82554:	00800044 	movi	r2,1
   82558:	1880311e 	bne	r3,r2,82620 <OSEventPendMulti+0x1b8>
   8255c:	00000d06 	br	82594 <OSEventPendMulti+0x12c>
   82560:	8080020b 	ldhu	r2,8(r16)
   82564:	10000926 	beq	r2,zero,8258c <OSEventPendMulti+0x124>
   82568:	8c000015 	stw	r16,0(r17)
   8256c:	10bfffc4 	addi	r2,r2,-1
   82570:	90000015 	stw	zero,0(r18)
   82574:	8c400104 	addi	r17,r17,4
   82578:	94800104 	addi	r18,r18,4
   8257c:	a5000044 	addi	r20,r20,1
   82580:	01000044 	movi	r4,1
   82584:	8080020d 	sth	r2,8(r16)
   82588:	00002906 	br	82630 <OSEventPendMulti+0x1c8>
   8258c:	31800054 	ori	r6,r6,1
   82590:	00002706 	br	82630 <OSEventPendMulti+0x1c8>
   82594:	80800117 	ldw	r2,4(r16)
   82598:	10000826 	beq	r2,zero,825bc <OSEventPendMulti+0x154>
   8259c:	90800015 	stw	r2,0(r18)
   825a0:	8c000015 	stw	r16,0(r17)
   825a4:	94800104 	addi	r18,r18,4
   825a8:	8c400104 	addi	r17,r17,4
   825ac:	1d29883a 	add	r20,r3,r20
   825b0:	01000044 	movi	r4,1
   825b4:	80000115 	stw	zero,4(r16)
   825b8:	00001d06 	br	82630 <OSEventPendMulti+0x1c8>
   825bc:	31800094 	ori	r6,r6,2
   825c0:	00001b06 	br	82630 <OSEventPendMulti+0x1c8>
   825c4:	81400117 	ldw	r5,4(r16)
   825c8:	2880058b 	ldhu	r2,22(r5)
   825cc:	10001226 	beq	r2,zero,82618 <OSEventPendMulti+0x1b0>
   825d0:	28800417 	ldw	r2,16(r5)
   825d4:	29000217 	ldw	r4,8(r5)
   825d8:	10c00017 	ldw	r3,0(r2)
   825dc:	10800104 	addi	r2,r2,4
   825e0:	28800415 	stw	r2,16(r5)
   825e4:	90c00015 	stw	r3,0(r18)
   825e8:	1100021e 	bne	r2,r4,825f4 <OSEventPendMulti+0x18c>
   825ec:	28800117 	ldw	r2,4(r5)
   825f0:	28800415 	stw	r2,16(r5)
   825f4:	2880058b 	ldhu	r2,22(r5)
   825f8:	8c000015 	stw	r16,0(r17)
   825fc:	94800104 	addi	r18,r18,4
   82600:	10bfffc4 	addi	r2,r2,-1
   82604:	8c400104 	addi	r17,r17,4
   82608:	a5000044 	addi	r20,r20,1
   8260c:	01000044 	movi	r4,1
   82610:	2880058d 	sth	r2,22(r5)
   82614:	00000606 	br	82630 <OSEventPendMulti+0x1c8>
   82618:	31800114 	ori	r6,r6,4
   8261c:	00000406 	br	82630 <OSEventPendMulti+0x1c8>
   82620:	b001703a 	wrctl	status,r22
   82624:	a0ffffcc 	andi	r3,r20,65535
   82628:	88000015 	stw	zero,0(r17)
   8262c:	00004906 	br	82754 <OSEventPendMulti+0x2ec>
   82630:	42000104 	addi	r8,r8,4
   82634:	44000017 	ldw	r16,0(r8)
   82638:	803fc11e 	bne	r16,zero,82540 <OSEventPendMulti+0xd8>
   8263c:	20803fcc 	andi	r2,r4,255
   82640:	05c00044 	movi	r23,1
   82644:	15c0051e 	bne	r2,r23,8265c <OSEventPendMulti+0x1f4>
   82648:	88000015 	stw	zero,0(r17)
   8264c:	b001703a 	wrctl	status,r22
   82650:	a0ffffcc 	andi	r3,r20,65535
   82654:	a8000005 	stb	zero,0(r21)
   82658:	00004d06 	br	82790 <OSEventPendMulti+0x328>
   8265c:	d1521117 	ldw	r5,18500(gp)
   82660:	00ffe004 	movi	r3,-128
   82664:	9809883a 	mov	r4,r19
   82668:	28800c03 	ldbu	r2,48(r5)
   8266c:	10c4b03a 	or	r2,r2,r3
   82670:	1184b03a 	or	r2,r2,r6
   82674:	28800c05 	stb	r2,48(r5)
   82678:	d0921117 	ldw	r2,18500(gp)
   8267c:	10000c45 	stb	zero,49(r2)
   82680:	d0921117 	ldw	r2,18500(gp)
   82684:	11c00b8d 	sth	r7,46(r2)
   82688:	0081d440 	call	81d44 <OS_EventTaskWaitMulti>
   8268c:	b001703a 	wrctl	status,r22
   82690:	00820ac0 	call	820ac <OS_Sched>
   82694:	002d303a 	rdctl	r22,status
   82698:	00bfff84 	movi	r2,-2
   8269c:	b084703a 	and	r2,r22,r2
   826a0:	1001703a 	wrctl	status,r2
   826a4:	d1121117 	ldw	r4,18500(gp)
   826a8:	20c00c43 	ldbu	r3,49(r4)
   826ac:	18000226 	beq	r3,zero,826b8 <OSEventPendMulti+0x250>
   826b0:	00800084 	movi	r2,2
   826b4:	1880091e 	bne	r3,r2,826dc <OSEventPendMulti+0x274>
   826b8:	24000717 	ldw	r16,28(r4)
   826bc:	80000526 	beq	r16,zero,826d4 <OSEventPendMulti+0x26c>
   826c0:	8c000015 	stw	r16,0(r17)
   826c4:	a5000044 	addi	r20,r20,1
   826c8:	8c400104 	addi	r17,r17,4
   826cc:	88000015 	stw	zero,0(r17)
   826d0:	00000406 	br	826e4 <OSEventPendMulti+0x27c>
   826d4:	25c00c45 	stb	r23,49(r4)
   826d8:	d1121117 	ldw	r4,18500(gp)
   826dc:	980b883a 	mov	r5,r19
   826e0:	0081e300 	call	81e30 <OS_EventTaskRemoveMulti>
   826e4:	d1121117 	ldw	r4,18500(gp)
   826e8:	20c00c43 	ldbu	r3,49(r4)
   826ec:	18000326 	beq	r3,zero,826fc <OSEventPendMulti+0x294>
   826f0:	00800084 	movi	r2,2
   826f4:	1880191e 	bne	r3,r2,8275c <OSEventPendMulti+0x2f4>
   826f8:	00001106 	br	82740 <OSEventPendMulti+0x2d8>
   826fc:	80c00003 	ldbu	r3,0(r16)
   82700:	18000926 	beq	r3,zero,82728 <OSEventPendMulti+0x2c0>
   82704:	00800084 	movi	r2,2
   82708:	10c0042e 	bgeu	r2,r3,8271c <OSEventPendMulti+0x2b4>
   8270c:	008000c4 	movi	r2,3
   82710:	1880051e 	bne	r3,r2,82728 <OSEventPendMulti+0x2c0>
   82714:	90000015 	stw	zero,0(r18)
   82718:	00000706 	br	82738 <OSEventPendMulti+0x2d0>
   8271c:	20800917 	ldw	r2,36(r4)
   82720:	90800015 	stw	r2,0(r18)
   82724:	00000406 	br	82738 <OSEventPendMulti+0x2d0>
   82728:	b001703a 	wrctl	status,r22
   8272c:	a0ffffcc 	andi	r3,r20,65535
   82730:	88000015 	stw	zero,0(r17)
   82734:	00000606 	br	82750 <OSEventPendMulti+0x2e8>
   82738:	a8000005 	stb	zero,0(r21)
   8273c:	00000a06 	br	82768 <OSEventPendMulti+0x300>
   82740:	00800384 	movi	r2,14
   82744:	90000015 	stw	zero,0(r18)
   82748:	00000606 	br	82764 <OSEventPendMulti+0x2fc>
   8274c:	0007883a 	mov	r3,zero
   82750:	00800044 	movi	r2,1
   82754:	a8800005 	stb	r2,0(r21)
   82758:	00000d06 	br	82790 <OSEventPendMulti+0x328>
   8275c:	90000015 	stw	zero,0(r18)
   82760:	00800284 	movi	r2,10
   82764:	a8800005 	stb	r2,0(r21)
   82768:	d0921117 	ldw	r2,18500(gp)
   8276c:	10000c05 	stb	zero,48(r2)
   82770:	d0921117 	ldw	r2,18500(gp)
   82774:	10000c45 	stb	zero,49(r2)
   82778:	d0921117 	ldw	r2,18500(gp)
   8277c:	10000915 	stw	zero,36(r2)
   82780:	10000715 	stw	zero,28(r2)
   82784:	10000815 	stw	zero,32(r2)
   82788:	b001703a 	wrctl	status,r22
   8278c:	a0ffffcc 	andi	r3,r20,65535
   82790:	1805883a 	mov	r2,r3
   82794:	dfc00817 	ldw	ra,32(sp)
   82798:	ddc00717 	ldw	r23,28(sp)
   8279c:	dd800617 	ldw	r22,24(sp)
   827a0:	dd400517 	ldw	r21,20(sp)
   827a4:	dd000417 	ldw	r20,16(sp)
   827a8:	dcc00317 	ldw	r19,12(sp)
   827ac:	dc800217 	ldw	r18,8(sp)
   827b0:	dc400117 	ldw	r17,4(sp)
   827b4:	dc000017 	ldw	r16,0(sp)
   827b8:	dec00904 	addi	sp,sp,36
   827bc:	f800283a 	ret

000827c0 <OSIntEnter>:
   827c0:	d0d20103 	ldbu	r3,18436(gp)
   827c4:	00800044 	movi	r2,1
   827c8:	18800b1e 	bne	r3,r2,827f8 <OSIntEnter+0x38>
   827cc:	000b303a 	rdctl	r5,status
   827d0:	00bfff84 	movi	r2,-2
   827d4:	2884703a 	and	r2,r5,r2
   827d8:	1001703a 	wrctl	status,r2
   827dc:	d0921003 	ldbu	r2,18496(gp)
   827e0:	10c9883a 	add	r4,r2,r3
   827e4:	10803fcc 	andi	r2,r2,255
   827e8:	00c03fc4 	movi	r3,255
   827ec:	10c00126 	beq	r2,r3,827f4 <OSIntEnter+0x34>
   827f0:	d1121005 	stb	r4,18496(gp)
   827f4:	2801703a 	wrctl	status,r5
   827f8:	f800283a 	ret

000827fc <OSSchedLock>:
   827fc:	d0d20103 	ldbu	r3,18436(gp)
   82800:	00800044 	movi	r2,1
   82804:	18800d1e 	bne	r3,r2,8283c <OSSchedLock+0x40>
   82808:	000b303a 	rdctl	r5,status
   8280c:	00bfff84 	movi	r2,-2
   82810:	2884703a 	and	r2,r5,r2
   82814:	1001703a 	wrctl	status,r2
   82818:	d0921003 	ldbu	r2,18496(gp)
   8281c:	1000061e 	bne	r2,zero,82838 <OSSchedLock+0x3c>
   82820:	d091ff03 	ldbu	r2,18428(gp)
   82824:	10c9883a 	add	r4,r2,r3
   82828:	10803fcc 	andi	r2,r2,255
   8282c:	00c03fc4 	movi	r3,255
   82830:	10c00126 	beq	r2,r3,82838 <OSSchedLock+0x3c>
   82834:	d111ff05 	stb	r4,18428(gp)
   82838:	2801703a 	wrctl	status,r5
   8283c:	f800283a 	ret

00082840 <OSSchedUnlock>:
   82840:	d0d20103 	ldbu	r3,18436(gp)
   82844:	00800044 	movi	r2,1
   82848:	1880111e 	bne	r3,r2,82890 <OSSchedUnlock+0x50>
   8284c:	000b303a 	rdctl	r5,status
   82850:	00bfff84 	movi	r2,-2
   82854:	2884703a 	and	r2,r5,r2
   82858:	1001703a 	wrctl	status,r2
   8285c:	d091ff03 	ldbu	r2,18428(gp)
   82860:	10ffffc4 	addi	r3,r2,-1
   82864:	19003fcc 	andi	r4,r3,255
   82868:	10000826 	beq	r2,zero,8288c <OSSchedUnlock+0x4c>
   8286c:	d0d1ff05 	stb	r3,18428(gp)
   82870:	2000041e 	bne	r4,zero,82884 <OSSchedUnlock+0x44>
   82874:	d0921003 	ldbu	r2,18496(gp)
   82878:	1000021e 	bne	r2,zero,82884 <OSSchedUnlock+0x44>
   8287c:	2801703a 	wrctl	status,r5
   82880:	00820ac1 	jmpi	820ac <OS_Sched>
   82884:	2801703a 	wrctl	status,r5
   82888:	f800283a 	ret
   8288c:	2801703a 	wrctl	status,r5
   82890:	f800283a 	ret

00082894 <OSStatInit>:
   82894:	defffe04 	addi	sp,sp,-8
   82898:	01000084 	movi	r4,2
   8289c:	dfc00115 	stw	ra,4(sp)
   828a0:	dc000015 	stw	r16,0(sp)
   828a4:	0085c200 	call	85c20 <OSTimeDly>
   828a8:	0007303a 	rdctl	r3,status
   828ac:	043fff84 	movi	r16,-2
   828b0:	1c04703a 	and	r2,r3,r16
   828b4:	1001703a 	wrctl	status,r2
   828b8:	d0120215 	stw	zero,18440(gp)
   828bc:	1801703a 	wrctl	status,r3
   828c0:	01001904 	movi	r4,100
   828c4:	0085c200 	call	85c20 <OSTimeDly>
   828c8:	0009303a 	rdctl	r4,status
   828cc:	2420703a 	and	r16,r4,r16
   828d0:	8001703a 	wrctl	status,r16
   828d4:	d0d20217 	ldw	r3,18440(gp)
   828d8:	00800044 	movi	r2,1
   828dc:	d0921605 	stb	r2,18520(gp)
   828e0:	d0d20815 	stw	r3,18464(gp)
   828e4:	2001703a 	wrctl	status,r4
   828e8:	dfc00117 	ldw	ra,4(sp)
   828ec:	dc000017 	ldw	r16,0(sp)
   828f0:	dec00204 	addi	sp,sp,8
   828f4:	f800283a 	ret

000828f8 <OSTimeTick>:
   828f8:	deffff04 	addi	sp,sp,-4
   828fc:	dfc00015 	stw	ra,0(sp)
   82900:	00874c40 	call	874c4 <OSTimeTickHook>
   82904:	0007303a 	rdctl	r3,status
   82908:	00bfff84 	movi	r2,-2
   8290c:	1884703a 	and	r2,r3,r2
   82910:	1001703a 	wrctl	status,r2
   82914:	d0921317 	ldw	r2,18508(gp)
   82918:	10800044 	addi	r2,r2,1
   8291c:	d0921315 	stw	r2,18508(gp)
   82920:	1801703a 	wrctl	status,r3
   82924:	d1120103 	ldbu	r4,18436(gp)
   82928:	00800044 	movi	r2,1
   8292c:	2080321e 	bne	r4,r2,829f8 <OSTimeTick+0x100>
   82930:	d0d20503 	ldbu	r3,18452(gp)
   82934:	19003026 	beq	r3,r4,829f8 <OSTimeTick+0x100>
   82938:	19002d36 	bltu	r3,r4,829f0 <OSTimeTick+0xf8>
   8293c:	00800084 	movi	r2,2
   82940:	1880021e 	bne	r3,r2,8294c <OSTimeTick+0x54>
   82944:	d1120505 	stb	r4,18452(gp)
   82948:	00002906 	br	829f0 <OSTimeTick+0xf8>
   8294c:	d0120505 	stb	zero,18452(gp)
   82950:	00002706 	br	829f0 <OSTimeTick+0xf8>
   82954:	000d303a 	rdctl	r6,status
   82958:	00bfff84 	movi	r2,-2
   8295c:	3084703a 	and	r2,r6,r2
   82960:	1001703a 	wrctl	status,r2
   82964:	28800b8b 	ldhu	r2,46(r5)
   82968:	10ffffc4 	addi	r3,r2,-1
   8296c:	193fffcc 	andi	r4,r3,65535
   82970:	10001926 	beq	r2,zero,829d8 <OSTimeTick+0xe0>
   82974:	28c00b8d 	sth	r3,46(r5)
   82978:	2000171e 	bne	r4,zero,829d8 <OSTimeTick+0xe0>
   8297c:	28800c03 	ldbu	r2,48(r5)
   82980:	10c0320c 	andi	r3,r2,200
   82984:	10800dcc 	andi	r2,r2,55
   82988:	10000426 	beq	r2,zero,8299c <OSTimeTick+0xa4>
   8298c:	00800044 	movi	r2,1
   82990:	28c00c05 	stb	r3,48(r5)
   82994:	28800c45 	stb	r2,49(r5)
   82998:	00000106 	br	829a0 <OSTimeTick+0xa8>
   8299c:	28000c45 	stb	zero,49(r5)
   829a0:	28800c03 	ldbu	r2,48(r5)
   829a4:	1080020c 	andi	r2,r2,8
   829a8:	10000b1e 	bne	r2,zero,829d8 <OSTimeTick+0xe0>
   829ac:	28c00d83 	ldbu	r3,54(r5)
   829b0:	d0920e03 	ldbu	r2,18488(gp)
   829b4:	10c4b03a 	or	r2,r2,r3
   829b8:	d0920e05 	stb	r2,18488(gp)
   829bc:	28c00d03 	ldbu	r3,52(r5)
   829c0:	d0920e44 	addi	r2,gp,18489
   829c4:	29000d43 	ldbu	r4,53(r5)
   829c8:	1887883a 	add	r3,r3,r2
   829cc:	18800003 	ldbu	r2,0(r3)
   829d0:	1104b03a 	or	r2,r2,r4
   829d4:	18800005 	stb	r2,0(r3)
   829d8:	29400517 	ldw	r5,20(r5)
   829dc:	3001703a 	wrctl	status,r6
   829e0:	28c00c83 	ldbu	r3,50(r5)
   829e4:	00800504 	movi	r2,20
   829e8:	18bfda1e 	bne	r3,r2,82954 <OSTimeTick+0x5c>
   829ec:	00000206 	br	829f8 <OSTimeTick+0x100>
   829f0:	d1520417 	ldw	r5,18448(gp)
   829f4:	003ffa06 	br	829e0 <OSTimeTick+0xe8>
   829f8:	dfc00017 	ldw	ra,0(sp)
   829fc:	dec00104 	addi	sp,sp,4
   82a00:	f800283a 	ret

00082a04 <OS_TaskIdle>:
   82a04:	deffff04 	addi	sp,sp,-4
   82a08:	dfc00015 	stw	ra,0(sp)
   82a0c:	0005303a 	rdctl	r2,status
   82a10:	00ffff84 	movi	r3,-2
   82a14:	10c6703a 	and	r3,r2,r3
   82a18:	1801703a 	wrctl	status,r3
   82a1c:	d0d20217 	ldw	r3,18440(gp)
   82a20:	18c00044 	addi	r3,r3,1
   82a24:	d0d20215 	stw	r3,18440(gp)
   82a28:	1001703a 	wrctl	status,r2
   82a2c:	00874bc0 	call	874bc <OSTaskIdleHook>
   82a30:	003ff606 	br	82a0c <OS_TaskIdle+0x8>

00082a34 <OS_TaskStat>:
   82a34:	deffff04 	addi	sp,sp,-4
   82a38:	dfc00015 	stw	ra,0(sp)
   82a3c:	00000106 	br	82a44 <OS_TaskStat+0x10>
   82a40:	0085c200 	call	85c20 <OSTimeDly>
   82a44:	d0921603 	ldbu	r2,18520(gp)
   82a48:	01003204 	movi	r4,200
   82a4c:	103ffc26 	beq	r2,zero,82a40 <OS_TaskStat+0xc>
   82a50:	d1120817 	ldw	r4,18464(gp)
   82a54:	01401904 	movi	r5,100
   82a58:	00809880 	call	80988 <__udivsi3>
   82a5c:	d0920815 	stw	r2,18464(gp)
   82a60:	1000031e 	bne	r2,zero,82a70 <OS_TaskStat+0x3c>
   82a64:	01003fc4 	movi	r4,255
   82a68:	d0120a05 	stb	zero,18472(gp)
   82a6c:	0085ab80 	call	85ab8 <OSTaskSuspend>
   82a70:	0007303a 	rdctl	r3,status
   82a74:	00bfff84 	movi	r2,-2
   82a78:	1884703a 	and	r2,r3,r2
   82a7c:	1001703a 	wrctl	status,r2
   82a80:	d1120217 	ldw	r4,18440(gp)
   82a84:	d0120215 	stw	zero,18440(gp)
   82a88:	d1121715 	stw	r4,18524(gp)
   82a8c:	1801703a 	wrctl	status,r3
   82a90:	d1520817 	ldw	r5,18464(gp)
   82a94:	00809880 	call	80988 <__udivsi3>
   82a98:	00c01904 	movi	r3,100
   82a9c:	1887c83a 	sub	r3,r3,r2
   82aa0:	d0d20a05 	stb	r3,18472(gp)
   82aa4:	00874ac0 	call	874ac <OSTaskStatHook>
   82aa8:	00820280 	call	82028 <OS_TaskStatStkChk>
   82aac:	01001904 	movi	r4,100
   82ab0:	0085c200 	call	85c20 <OSTimeDly>
   82ab4:	003fee06 	br	82a70 <OS_TaskStat+0x3c>

00082ab8 <OS_TCBInit>:
   82ab8:	defffc04 	addi	sp,sp,-16
   82abc:	da400617 	ldw	r9,24(sp)
   82ac0:	2011883a 	mov	r8,r4
   82ac4:	dfc00315 	stw	ra,12(sp)
   82ac8:	dc800215 	stw	r18,8(sp)
   82acc:	dc400115 	stw	r17,4(sp)
   82ad0:	dc000015 	stw	r16,0(sp)
   82ad4:	0007303a 	rdctl	r3,status
   82ad8:	04bfff84 	movi	r18,-2
   82adc:	1c84703a 	and	r2,r3,r18
   82ae0:	1001703a 	wrctl	status,r2
   82ae4:	d4520917 	ldw	r17,18468(gp)
   82ae8:	88004c26 	beq	r17,zero,82c1c <OS_TCBInit+0x164>
   82aec:	88800517 	ldw	r2,20(r17)
   82af0:	d0920915 	stw	r2,18468(gp)
   82af4:	1801703a 	wrctl	status,r3
   82af8:	24003fcc 	andi	r16,r4,255
   82afc:	8006d0fa 	srli	r3,r16,3
   82b00:	208001cc 	andi	r2,r4,7
   82b04:	88800cc5 	stb	r2,51(r17)
   82b08:	88c00d05 	stb	r3,52(r17)
   82b0c:	19003fcc 	andi	r4,r3,255
   82b10:	10803fcc 	andi	r2,r2,255
   82b14:	00c00044 	movi	r3,1
   82b18:	1908983a 	sll	r4,r3,r4
   82b1c:	1886983a 	sll	r3,r3,r2
   82b20:	d8800517 	ldw	r2,20(sp)
   82b24:	89400015 	stw	r5,0(r17)
   82b28:	89800215 	stw	r6,8(r17)
   82b2c:	88800115 	stw	r2,4(r17)
   82b30:	d8800417 	ldw	r2,16(sp)
   82b34:	8a40040d 	sth	r9,16(r17)
   82b38:	89c0048d 	sth	r7,18(r17)
   82b3c:	88800315 	stw	r2,12(r17)
   82b40:	00800fc4 	movi	r2,63
   82b44:	89000d85 	stb	r4,54(r17)
   82b48:	88c00d45 	stb	r3,53(r17)
   82b4c:	88801305 	stb	r2,76(r17)
   82b50:	8a000c85 	stb	r8,50(r17)
   82b54:	8809883a 	mov	r4,r17
   82b58:	88000c05 	stb	zero,48(r17)
   82b5c:	88000c45 	stb	zero,49(r17)
   82b60:	88000b8d 	sth	zero,46(r17)
   82b64:	88000dc5 	stb	zero,55(r17)
   82b68:	88000715 	stw	zero,28(r17)
   82b6c:	88000815 	stw	zero,32(r17)
   82b70:	88000a15 	stw	zero,40(r17)
   82b74:	88000915 	stw	zero,36(r17)
   82b78:	88000e15 	stw	zero,56(r17)
   82b7c:	88001015 	stw	zero,64(r17)
   82b80:	88000f15 	stw	zero,60(r17)
   82b84:	88001115 	stw	zero,68(r17)
   82b88:	88001215 	stw	zero,72(r17)
   82b8c:	88001345 	stb	zero,77(r17)
   82b90:	00874c00 	call	874c0 <OSTCBInitHook>
   82b94:	8809883a 	mov	r4,r17
   82b98:	00874a00 	call	874a0 <OSTaskCreateHook>
   82b9c:	000d303a 	rdctl	r6,status
   82ba0:	3484703a 	and	r2,r6,r18
   82ba4:	1001703a 	wrctl	status,r2
   82ba8:	d0920a43 	ldbu	r2,18473(gp)
   82bac:	8421883a 	add	r16,r16,r16
   82bb0:	d0d20417 	ldw	r3,18448(gp)
   82bb4:	8421883a 	add	r16,r16,r16
   82bb8:	11400044 	addi	r5,r2,1
   82bbc:	008002b4 	movhi	r2,10
   82bc0:	109bfb04 	addi	r2,r2,28652
   82bc4:	80a1883a 	add	r16,r16,r2
   82bc8:	84400015 	stw	r17,0(r16)
   82bcc:	d1120e03 	ldbu	r4,18488(gp)
   82bd0:	88000615 	stw	zero,24(r17)
   82bd4:	88c00515 	stw	r3,20(r17)
   82bd8:	18000126 	beq	r3,zero,82be0 <OS_TCBInit+0x128>
   82bdc:	1c400615 	stw	r17,24(r3)
   82be0:	88800d83 	ldbu	r2,54(r17)
   82be4:	d4520415 	stw	r17,18448(gp)
   82be8:	2084b03a 	or	r2,r4,r2
   82bec:	d0920e05 	stb	r2,18488(gp)
   82bf0:	88c00d03 	ldbu	r3,52(r17)
   82bf4:	d0920e44 	addi	r2,gp,18489
   82bf8:	89000d43 	ldbu	r4,53(r17)
   82bfc:	1887883a 	add	r3,r3,r2
   82c00:	18800003 	ldbu	r2,0(r3)
   82c04:	d1520a45 	stb	r5,18473(gp)
   82c08:	1104b03a 	or	r2,r2,r4
   82c0c:	18800005 	stb	r2,0(r3)
   82c10:	3001703a 	wrctl	status,r6
   82c14:	0005883a 	mov	r2,zero
   82c18:	00000206 	br	82c24 <OS_TCBInit+0x16c>
   82c1c:	1801703a 	wrctl	status,r3
   82c20:	00801084 	movi	r2,66
   82c24:	dfc00317 	ldw	ra,12(sp)
   82c28:	dc800217 	ldw	r18,8(sp)
   82c2c:	dc400117 	ldw	r17,4(sp)
   82c30:	dc000017 	ldw	r16,0(sp)
   82c34:	dec00404 	addi	sp,sp,16
   82c38:	f800283a 	ret

00082c3c <OSIntExit>:
   82c3c:	d1d20103 	ldbu	r7,18436(gp)
   82c40:	defffe04 	addi	sp,sp,-8
   82c44:	00800044 	movi	r2,1
   82c48:	dfc00115 	stw	ra,4(sp)
   82c4c:	dc000015 	stw	r16,0(sp)
   82c50:	38802b1e 	bne	r7,r2,82d00 <OSIntExit+0xc4>
   82c54:	0021303a 	rdctl	r16,status
   82c58:	00bfff84 	movi	r2,-2
   82c5c:	8084703a 	and	r2,r16,r2
   82c60:	1001703a 	wrctl	status,r2
   82c64:	d0921003 	ldbu	r2,18496(gp)
   82c68:	10ffffc4 	addi	r3,r2,-1
   82c6c:	19003fcc 	andi	r4,r3,255
   82c70:	10000226 	beq	r2,zero,82c7c <OSIntExit+0x40>
   82c74:	d0d21005 	stb	r3,18496(gp)
   82c78:	2000201e 	bne	r4,zero,82cfc <OSIntExit+0xc0>
   82c7c:	d091ff03 	ldbu	r2,18428(gp)
   82c80:	01400274 	movhi	r5,9
   82c84:	29680184 	addi	r5,r5,-24570
   82c88:	10001c1e 	bne	r2,zero,82cfc <OSIntExit+0xc0>
   82c8c:	d0920e03 	ldbu	r2,18488(gp)
   82c90:	d0d20e44 	addi	r3,gp,18489
   82c94:	d19203c3 	ldbu	r6,18447(gp)
   82c98:	1145883a 	add	r2,r2,r5
   82c9c:	11000003 	ldbu	r4,0(r2)
   82ca0:	20c5883a 	add	r2,r4,r3
   82ca4:	10800003 	ldbu	r2,0(r2)
   82ca8:	200890fa 	slli	r4,r4,3
   82cac:	00c002b4 	movhi	r3,10
   82cb0:	18dbfb04 	addi	r3,r3,28652
   82cb4:	1145883a 	add	r2,r2,r5
   82cb8:	10800003 	ldbu	r2,0(r2)
   82cbc:	2089883a 	add	r4,r4,r2
   82cc0:	21403fcc 	andi	r5,r4,255
   82cc4:	2945883a 	add	r2,r5,r5
   82cc8:	1085883a 	add	r2,r2,r2
   82ccc:	10c5883a 	add	r2,r2,r3
   82cd0:	d1120385 	stb	r4,18446(gp)
   82cd4:	29800926 	beq	r5,r6,82cfc <OSIntExit+0xc0>
   82cd8:	10800017 	ldw	r2,0(r2)
   82cdc:	d1120617 	ldw	r4,18456(gp)
   82ce0:	10c00e17 	ldw	r3,56(r2)
   82ce4:	21c9883a 	add	r4,r4,r7
   82ce8:	d0920c15 	stw	r2,18480(gp)
   82cec:	19c7883a 	add	r3,r3,r7
   82cf0:	10c00e15 	stw	r3,56(r2)
   82cf4:	d1120615 	stw	r4,18456(gp)
   82cf8:	00873d00 	call	873d0 <OSCtxSw>
   82cfc:	8001703a 	wrctl	status,r16
   82d00:	dfc00117 	ldw	ra,4(sp)
   82d04:	dc000017 	ldw	r16,0(sp)
   82d08:	dec00204 	addi	sp,sp,8
   82d0c:	f800283a 	ret

00082d10 <OSEventNameSet>:
   82d10:	defffd04 	addi	sp,sp,-12
   82d14:	dfc00215 	stw	ra,8(sp)
   82d18:	dc000115 	stw	r16,4(sp)
   82d1c:	30002726 	beq	r6,zero,82dbc <OSEventNameSet+0xac>
   82d20:	2000021e 	bne	r4,zero,82d2c <OSEventNameSet+0x1c>
   82d24:	00800104 	movi	r2,4
   82d28:	00000206 	br	82d34 <OSEventNameSet+0x24>
   82d2c:	2800031e 	bne	r5,zero,82d3c <OSEventNameSet+0x2c>
   82d30:	00800304 	movi	r2,12
   82d34:	30800005 	stb	r2,0(r6)
   82d38:	00002006 	br	82dbc <OSEventNameSet+0xac>
   82d3c:	d0921003 	ldbu	r2,18496(gp)
   82d40:	10000226 	beq	r2,zero,82d4c <OSEventNameSet+0x3c>
   82d44:	00800484 	movi	r2,18
   82d48:	003ffa06 	br	82d34 <OSEventNameSet+0x24>
   82d4c:	20800003 	ldbu	r2,0(r4)
   82d50:	00c000c4 	movi	r3,3
   82d54:	10bfffc4 	addi	r2,r2,-1
   82d58:	1880022e 	bgeu	r3,r2,82d64 <OSEventNameSet+0x54>
   82d5c:	00800044 	movi	r2,1
   82d60:	003ff406 	br	82d34 <OSEventNameSet+0x24>
   82d64:	0021303a 	rdctl	r16,status
   82d68:	00bfff84 	movi	r2,-2
   82d6c:	8084703a 	and	r2,r16,r2
   82d70:	1001703a 	wrctl	status,r2
   82d74:	2807883a 	mov	r3,r5
   82d78:	00000106 	br	82d80 <OSEventNameSet+0x70>
   82d7c:	18c00044 	addi	r3,r3,1
   82d80:	18800003 	ldbu	r2,0(r3)
   82d84:	103ffd1e 	bne	r2,zero,82d7c <OSEventNameSet+0x6c>
   82d88:	1945c83a 	sub	r2,r3,r5
   82d8c:	10803fcc 	andi	r2,r2,255
   82d90:	00c007c4 	movi	r3,31
   82d94:	1880032e 	bgeu	r3,r2,82da4 <OSEventNameSet+0x94>
   82d98:	8001703a 	wrctl	status,r16
   82d9c:	008002c4 	movi	r2,11
   82da0:	003fe406 	br	82d34 <OSEventNameSet+0x24>
   82da4:	21000384 	addi	r4,r4,14
   82da8:	d9800015 	stw	r6,0(sp)
   82dac:	0081fdc0 	call	81fdc <OS_StrCopy>
   82db0:	8001703a 	wrctl	status,r16
   82db4:	d9800017 	ldw	r6,0(sp)
   82db8:	30000005 	stb	zero,0(r6)
   82dbc:	dfc00217 	ldw	ra,8(sp)
   82dc0:	dc000117 	ldw	r16,4(sp)
   82dc4:	dec00304 	addi	sp,sp,12
   82dc8:	f800283a 	ret

00082dcc <OSDebugInit>:
   82dcc:	f800283a 	ret

00082dd0 <OS_FlagBlock>:
   82dd0:	024002b4 	movhi	r9,10
   82dd4:	4a4c9d04 	addi	r9,r9,12916
   82dd8:	48c00017 	ldw	r3,0(r9)
   82ddc:	da000017 	ldw	r8,0(sp)
   82de0:	028002b4 	movhi	r10,10
   82de4:	528c9a04 	addi	r10,r10,12904
   82de8:	18800c03 	ldbu	r2,48(r3)
   82dec:	10800814 	ori	r2,r2,32
   82df0:	18800c05 	stb	r2,48(r3)
   82df4:	48800017 	ldw	r2,0(r9)
   82df8:	10000c45 	stb	zero,49(r2)
   82dfc:	48800017 	ldw	r2,0(r9)
   82e00:	12000b8d 	sth	r8,46(r2)
   82e04:	11400a15 	stw	r5,40(r2)
   82e08:	29c00485 	stb	r7,18(r5)
   82e0c:	48800017 	ldw	r2,0(r9)
   82e10:	2980040d 	sth	r6,16(r5)
   82e14:	28800215 	stw	r2,8(r5)
   82e18:	20800117 	ldw	r2,4(r4)
   82e1c:	28000115 	stw	zero,4(r5)
   82e20:	29000315 	stw	r4,12(r5)
   82e24:	28800015 	stw	r2,0(r5)
   82e28:	20800117 	ldw	r2,4(r4)
   82e2c:	10000126 	beq	r2,zero,82e34 <OS_FlagBlock+0x64>
   82e30:	11400115 	stw	r5,4(r2)
   82e34:	21400115 	stw	r5,4(r4)
   82e38:	49400017 	ldw	r5,0(r9)
   82e3c:	00c002b4 	movhi	r3,10
   82e40:	18cc9a44 	addi	r3,r3,12905
   82e44:	29000d03 	ldbu	r4,52(r5)
   82e48:	28800d43 	ldbu	r2,53(r5)
   82e4c:	20c9883a 	add	r4,r4,r3
   82e50:	20c00003 	ldbu	r3,0(r4)
   82e54:	0084303a 	nor	r2,zero,r2
   82e58:	10c4703a 	and	r2,r2,r3
   82e5c:	10c03fcc 	andi	r3,r2,255
   82e60:	18c0201c 	xori	r3,r3,128
   82e64:	18ffe004 	addi	r3,r3,-128
   82e68:	20800005 	stb	r2,0(r4)
   82e6c:	1800051e 	bne	r3,zero,82e84 <OS_FlagBlock+0xb4>
   82e70:	28800d83 	ldbu	r2,54(r5)
   82e74:	50c00003 	ldbu	r3,0(r10)
   82e78:	0084303a 	nor	r2,zero,r2
   82e7c:	10c4703a 	and	r2,r2,r3
   82e80:	50800005 	stb	r2,0(r10)
   82e84:	f800283a 	ret

00082e88 <OS_FlagUnlink>:
   82e88:	20c00017 	ldw	r3,0(r4)
   82e8c:	20800117 	ldw	r2,4(r4)
   82e90:	180b003a 	cmpeq	r5,r3,zero
   82e94:	1000051e 	bne	r2,zero,82eac <OS_FlagUnlink+0x24>
   82e98:	20800317 	ldw	r2,12(r4)
   82e9c:	10c00115 	stw	r3,4(r2)
   82ea0:	2800051e 	bne	r5,zero,82eb8 <OS_FlagUnlink+0x30>
   82ea4:	18000115 	stw	zero,4(r3)
   82ea8:	00000306 	br	82eb8 <OS_FlagUnlink+0x30>
   82eac:	10c00015 	stw	r3,0(r2)
   82eb0:	2800011e 	bne	r5,zero,82eb8 <OS_FlagUnlink+0x30>
   82eb4:	18800115 	stw	r2,4(r3)
   82eb8:	20800217 	ldw	r2,8(r4)
   82ebc:	10000a15 	stw	zero,40(r2)
   82ec0:	f800283a 	ret

00082ec4 <OS_FlagTaskRdy>:
   82ec4:	200d883a 	mov	r6,r4
   82ec8:	21000217 	ldw	r4,8(r4)
   82ecc:	defffe04 	addi	sp,sp,-8
   82ed0:	dc000015 	stw	r16,0(sp)
   82ed4:	dfc00115 	stw	ra,4(sp)
   82ed8:	20800c03 	ldbu	r2,48(r4)
   82edc:	01c002b4 	movhi	r7,10
   82ee0:	39cc9a04 	addi	r7,r7,12904
   82ee4:	0021883a 	mov	r16,zero
   82ee8:	108037cc 	andi	r2,r2,223
   82eec:	20800c05 	stb	r2,48(r4)
   82ef0:	10803fcc 	andi	r2,r2,255
   82ef4:	21400b0d 	sth	r5,44(r4)
   82ef8:	20000c45 	stb	zero,49(r4)
   82efc:	20000b8d 	sth	zero,46(r4)
   82f00:	10000d1e 	bne	r2,zero,82f38 <OS_FlagTaskRdy+0x74>
   82f04:	20c00d83 	ldbu	r3,54(r4)
   82f08:	38800003 	ldbu	r2,0(r7)
   82f0c:	04000044 	movi	r16,1
   82f10:	10c4b03a 	or	r2,r2,r3
   82f14:	38800005 	stb	r2,0(r7)
   82f18:	20c00d03 	ldbu	r3,52(r4)
   82f1c:	008002b4 	movhi	r2,10
   82f20:	108c9a44 	addi	r2,r2,12905
   82f24:	21000d43 	ldbu	r4,53(r4)
   82f28:	1887883a 	add	r3,r3,r2
   82f2c:	18800003 	ldbu	r2,0(r3)
   82f30:	1104b03a 	or	r2,r2,r4
   82f34:	18800005 	stb	r2,0(r3)
   82f38:	3009883a 	mov	r4,r6
   82f3c:	0082e880 	call	82e88 <OS_FlagUnlink>
   82f40:	80803fcc 	andi	r2,r16,255
   82f44:	dfc00117 	ldw	ra,4(sp)
   82f48:	dc000017 	ldw	r16,0(sp)
   82f4c:	dec00204 	addi	sp,sp,8
   82f50:	f800283a 	ret

00082f54 <OS_FlagInit>:
   82f54:	deffff04 	addi	sp,sp,-4
   82f58:	0140dc04 	movi	r5,880
   82f5c:	010002b4 	movhi	r4,10
   82f60:	210cb704 	addi	r4,r4,13020
   82f64:	dfc00015 	stw	ra,0(sp)
   82f68:	0081f9c0 	call	81f9c <OS_MemClr>
   82f6c:	014002b4 	movhi	r5,10
   82f70:	294cc204 	addi	r5,r5,13064
   82f74:	01800fc4 	movi	r6,63
   82f78:	2880d104 	addi	r2,r5,836
   82f7c:	283ff505 	stb	zero,-44(r5)
   82f80:	297ff615 	stw	r5,-40(r5)
   82f84:	29bff785 	stb	r6,-34(r5)
   82f88:	283ff7c5 	stb	zero,-33(r5)
   82f8c:	29400b04 	addi	r5,r5,44
   82f90:	28bffa1e 	bne	r5,r2,82f7c <OS_FlagInit+0x28>
   82f94:	293f2404 	addi	r4,r5,-880
   82f98:	008002b4 	movhi	r2,10
   82f9c:	108ca104 	addi	r2,r2,12932
   82fa0:	28fff504 	addi	r3,r5,-44
   82fa4:	11000015 	stw	r4,0(r2)
   82fa8:	19800285 	stb	r6,10(r3)
   82fac:	180002c5 	stb	zero,11(r3)
   82fb0:	283ff505 	stb	zero,-44(r5)
   82fb4:	18000115 	stw	zero,4(r3)
   82fb8:	dfc00017 	ldw	ra,0(sp)
   82fbc:	dec00104 	addi	sp,sp,4
   82fc0:	f800283a 	ret

00082fc4 <OSFlagQuery>:
   82fc4:	000d883a 	mov	r6,zero
   82fc8:	28001326 	beq	r5,zero,83018 <OSFlagQuery+0x54>
   82fcc:	000d883a 	mov	r6,zero
   82fd0:	2000021e 	bne	r4,zero,82fdc <OSFlagQuery+0x18>
   82fd4:	00801b84 	movi	r2,110
   82fd8:	00000506 	br	82ff0 <OSFlagQuery+0x2c>
   82fdc:	20c00003 	ldbu	r3,0(r4)
   82fe0:	00800144 	movi	r2,5
   82fe4:	000d883a 	mov	r6,zero
   82fe8:	18800326 	beq	r3,r2,82ff8 <OSFlagQuery+0x34>
   82fec:	00800044 	movi	r2,1
   82ff0:	28800005 	stb	r2,0(r5)
   82ff4:	00000806 	br	83018 <OSFlagQuery+0x54>
   82ff8:	0005303a 	rdctl	r2,status
   82ffc:	00ffff84 	movi	r3,-2
   83000:	10c6703a 	and	r3,r2,r3
   83004:	1801703a 	wrctl	status,r3
   83008:	20c0020b 	ldhu	r3,8(r4)
   8300c:	1001703a 	wrctl	status,r2
   83010:	28000005 	stb	zero,0(r5)
   83014:	180d883a 	mov	r6,r3
   83018:	3005883a 	mov	r2,r6
   8301c:	f800283a 	ret

00083020 <OSFlagAccept>:
   83020:	3011883a 	mov	r8,r6
   83024:	3800021e 	bne	r7,zero,83030 <OSFlagAccept+0x10>
   83028:	0007883a 	mov	r3,zero
   8302c:	00005606 	br	83188 <OSFlagAccept+0x168>
   83030:	2000031e 	bne	r4,zero,83040 <OSFlagAccept+0x20>
   83034:	0007883a 	mov	r3,zero
   83038:	00801b84 	movi	r2,110
   8303c:	00000506 	br	83054 <OSFlagAccept+0x34>
   83040:	20c00003 	ldbu	r3,0(r4)
   83044:	00800144 	movi	r2,5
   83048:	18800426 	beq	r3,r2,8305c <OSFlagAccept+0x3c>
   8304c:	0007883a 	mov	r3,zero
   83050:	00800044 	movi	r2,1
   83054:	38800005 	stb	r2,0(r7)
   83058:	00004b06 	br	83188 <OSFlagAccept+0x168>
   8305c:	00bfe004 	movi	r2,-128
   83060:	3084703a 	and	r2,r6,r2
   83064:	10803fcc 	andi	r2,r2,255
   83068:	1000021e 	bne	r2,zero,83074 <OSFlagAccept+0x54>
   8306c:	0015883a 	mov	r10,zero
   83070:	00000206 	br	8307c <OSFlagAccept+0x5c>
   83074:	32001fcc 	andi	r8,r6,127
   83078:	02800044 	movi	r10,1
   8307c:	38000005 	stb	zero,0(r7)
   83080:	0017303a 	rdctl	r11,status
   83084:	00bfff84 	movi	r2,-2
   83088:	5884703a 	and	r2,r11,r2
   8308c:	1001703a 	wrctl	status,r2
   83090:	41803fcc 	andi	r6,r8,255
   83094:	02400044 	movi	r9,1
   83098:	32402526 	beq	r6,r9,83130 <OSFlagAccept+0x110>
   8309c:	32401936 	bltu	r6,r9,83104 <OSFlagAccept+0xe4>
   830a0:	00800084 	movi	r2,2
   830a4:	30800326 	beq	r6,r2,830b4 <OSFlagAccept+0x94>
   830a8:	008000c4 	movi	r2,3
   830ac:	3080311e 	bne	r6,r2,83174 <OSFlagAccept+0x154>
   830b0:	00000a06 	br	830dc <OSFlagAccept+0xbc>
   830b4:	2180020b 	ldhu	r6,8(r4)
   830b8:	28ffffcc 	andi	r3,r5,65535
   830bc:	314a703a 	and	r5,r6,r5
   830c0:	28bfffcc 	andi	r2,r5,65535
   830c4:	2811883a 	mov	r8,r5
   830c8:	10c0261e 	bne	r2,r3,83164 <OSFlagAccept+0x144>
   830cc:	50803fcc 	andi	r2,r10,255
   830d0:	1240261e 	bne	r2,r9,8316c <OSFlagAccept+0x14c>
   830d4:	0144303a 	nor	r2,zero,r5
   830d8:	00000806 	br	830fc <OSFlagAccept+0xdc>
   830dc:	2180020b 	ldhu	r6,8(r4)
   830e0:	3146703a 	and	r3,r6,r5
   830e4:	18bfffcc 	andi	r2,r3,65535
   830e8:	1811883a 	mov	r8,r3
   830ec:	10001d26 	beq	r2,zero,83164 <OSFlagAccept+0x144>
   830f0:	50803fcc 	andi	r2,r10,255
   830f4:	12401d1e 	bne	r2,r9,8316c <OSFlagAccept+0x14c>
   830f8:	00c4303a 	nor	r2,zero,r3
   830fc:	1184703a 	and	r2,r2,r6
   83100:	00001606 	br	8315c <OSFlagAccept+0x13c>
   83104:	2180020b 	ldhu	r6,8(r4)
   83108:	28bfffcc 	andi	r2,r5,65535
   8310c:	0186303a 	nor	r3,zero,r6
   83110:	194a703a 	and	r5,r3,r5
   83114:	28ffffcc 	andi	r3,r5,65535
   83118:	2811883a 	mov	r8,r5
   8311c:	1880111e 	bne	r3,r2,83164 <OSFlagAccept+0x144>
   83120:	50803fcc 	andi	r2,r10,255
   83124:	1240111e 	bne	r2,r9,8316c <OSFlagAccept+0x14c>
   83128:	2984b03a 	or	r2,r5,r6
   8312c:	00000b06 	br	8315c <OSFlagAccept+0x13c>
   83130:	2240020b 	ldhu	r9,8(r4)
   83134:	0244303a 	nor	r2,zero,r9
   83138:	1146703a 	and	r3,r2,r5
   8313c:	18bfffcc 	andi	r2,r3,65535
   83140:	10a0001c 	xori	r2,r2,32768
   83144:	10a00004 	addi	r2,r2,-32768
   83148:	1811883a 	mov	r8,r3
   8314c:	10000526 	beq	r2,zero,83164 <OSFlagAccept+0x144>
   83150:	50803fcc 	andi	r2,r10,255
   83154:	1180051e 	bne	r2,r6,8316c <OSFlagAccept+0x14c>
   83158:	1a44b03a 	or	r2,r3,r9
   8315c:	2080020d 	sth	r2,8(r4)
   83160:	00000206 	br	8316c <OSFlagAccept+0x14c>
   83164:	00801c04 	movi	r2,112
   83168:	38800005 	stb	r2,0(r7)
   8316c:	5801703a 	wrctl	status,r11
   83170:	00000406 	br	83184 <OSFlagAccept+0x164>
   83174:	5801703a 	wrctl	status,r11
   83178:	00801bc4 	movi	r2,111
   8317c:	38800005 	stb	r2,0(r7)
   83180:	0011883a 	mov	r8,zero
   83184:	40ffffcc 	andi	r3,r8,65535
   83188:	1805883a 	mov	r2,r3
   8318c:	f800283a 	ret

00083190 <OSFlagCreate>:
   83190:	0007883a 	mov	r3,zero
   83194:	28001e26 	beq	r5,zero,83210 <OSFlagCreate+0x80>
   83198:	008002b4 	movhi	r2,10
   8319c:	108c9c04 	addi	r2,r2,12912
   831a0:	10800003 	ldbu	r2,0(r2)
   831a4:	0007883a 	mov	r3,zero
   831a8:	10000226 	beq	r2,zero,831b4 <OSFlagCreate+0x24>
   831ac:	00800404 	movi	r2,16
   831b0:	00001606 	br	8320c <OSFlagCreate+0x7c>
   831b4:	000d303a 	rdctl	r6,status
   831b8:	00bfff84 	movi	r2,-2
   831bc:	3084703a 	and	r2,r6,r2
   831c0:	1001703a 	wrctl	status,r2
   831c4:	01c002b4 	movhi	r7,10
   831c8:	39cca104 	addi	r7,r7,12932
   831cc:	38c00017 	ldw	r3,0(r7)
   831d0:	18000c26 	beq	r3,zero,83204 <OSFlagCreate+0x74>
   831d4:	18800117 	ldw	r2,4(r3)
   831d8:	1900020d 	sth	r4,8(r3)
   831dc:	18000115 	stw	zero,4(r3)
   831e0:	38800015 	stw	r2,0(r7)
   831e4:	00800144 	movi	r2,5
   831e8:	18800005 	stb	r2,0(r3)
   831ec:	00800fc4 	movi	r2,63
   831f0:	18800285 	stb	r2,10(r3)
   831f4:	180002c5 	stb	zero,11(r3)
   831f8:	3001703a 	wrctl	status,r6
   831fc:	28000005 	stb	zero,0(r5)
   83200:	00000306 	br	83210 <OSFlagCreate+0x80>
   83204:	3001703a 	wrctl	status,r6
   83208:	00801c84 	movi	r2,114
   8320c:	28800005 	stb	r2,0(r5)
   83210:	1805883a 	mov	r2,r3
   83214:	f800283a 	ret

00083218 <OSFlagDel>:
   83218:	defffa04 	addi	sp,sp,-24
   8321c:	dc400215 	stw	r17,8(sp)
   83220:	dfc00515 	stw	ra,20(sp)
   83224:	dcc00415 	stw	r19,16(sp)
   83228:	dc800315 	stw	r18,12(sp)
   8322c:	dc000115 	stw	r16,4(sp)
   83230:	2023883a 	mov	r17,r4
   83234:	30004826 	beq	r6,zero,83358 <OSFlagDel+0x140>
   83238:	2000021e 	bne	r4,zero,83244 <OSFlagDel+0x2c>
   8323c:	00801b84 	movi	r2,110
   83240:	00004406 	br	83354 <OSFlagDel+0x13c>
   83244:	008002b4 	movhi	r2,10
   83248:	108c9c04 	addi	r2,r2,12912
   8324c:	10800003 	ldbu	r2,0(r2)
   83250:	10000226 	beq	r2,zero,8325c <OSFlagDel+0x44>
   83254:	008003c4 	movi	r2,15
   83258:	00003e06 	br	83354 <OSFlagDel+0x13c>
   8325c:	20c00003 	ldbu	r3,0(r4)
   83260:	00800144 	movi	r2,5
   83264:	18800226 	beq	r3,r2,83270 <OSFlagDel+0x58>
   83268:	00800044 	movi	r2,1
   8326c:	00003906 	br	83354 <OSFlagDel+0x13c>
   83270:	0025303a 	rdctl	r18,status
   83274:	00bfff84 	movi	r2,-2
   83278:	9084703a 	and	r2,r18,r2
   8327c:	1001703a 	wrctl	status,r2
   83280:	21000117 	ldw	r4,4(r4)
   83284:	29403fcc 	andi	r5,r5,255
   83288:	2004c03a 	cmpne	r2,r4,zero
   8328c:	1027883a 	mov	r19,r2
   83290:	28000326 	beq	r5,zero,832a0 <OSFlagDel+0x88>
   83294:	00800044 	movi	r2,1
   83298:	28802c1e 	bne	r5,r2,8334c <OSFlagDel+0x134>
   8329c:	00001006 	br	832e0 <OSFlagDel+0xc8>
   832a0:	10000c1e 	bne	r2,zero,832d4 <OSFlagDel+0xbc>
   832a4:	00800fc4 	movi	r2,63
   832a8:	88800285 	stb	r2,10(r17)
   832ac:	880002c5 	stb	zero,11(r17)
   832b0:	88000005 	stb	zero,0(r17)
   832b4:	008002b4 	movhi	r2,10
   832b8:	108ca104 	addi	r2,r2,12932
   832bc:	10c00017 	ldw	r3,0(r2)
   832c0:	8800020d 	sth	zero,8(r17)
   832c4:	14400015 	stw	r17,0(r2)
   832c8:	88c00115 	stw	r3,4(r17)
   832cc:	9001703a 	wrctl	status,r18
   832d0:	00001b06 	br	83340 <OSFlagDel+0x128>
   832d4:	9001703a 	wrctl	status,r18
   832d8:	00801244 	movi	r2,73
   832dc:	00001d06 	br	83354 <OSFlagDel+0x13c>
   832e0:	2021883a 	mov	r16,r4
   832e4:	00000406 	br	832f8 <OSFlagDel+0xe0>
   832e8:	d9800015 	stw	r6,0(sp)
   832ec:	0082ec40 	call	82ec4 <OS_FlagTaskRdy>
   832f0:	84000017 	ldw	r16,0(r16)
   832f4:	d9800017 	ldw	r6,0(sp)
   832f8:	8009883a 	mov	r4,r16
   832fc:	000b883a 	mov	r5,zero
   83300:	803ff91e 	bne	r16,zero,832e8 <OSFlagDel+0xd0>
   83304:	00800fc4 	movi	r2,63
   83308:	88800285 	stb	r2,10(r17)
   8330c:	880002c5 	stb	zero,11(r17)
   83310:	88000005 	stb	zero,0(r17)
   83314:	008002b4 	movhi	r2,10
   83318:	108ca104 	addi	r2,r2,12932
   8331c:	10c00017 	ldw	r3,0(r2)
   83320:	8800020d 	sth	zero,8(r17)
   83324:	14400015 	stw	r17,0(r2)
   83328:	88c00115 	stw	r3,4(r17)
   8332c:	9001703a 	wrctl	status,r18
   83330:	98000326 	beq	r19,zero,83340 <OSFlagDel+0x128>
   83334:	d9800015 	stw	r6,0(sp)
   83338:	00820ac0 	call	820ac <OS_Sched>
   8333c:	d9800017 	ldw	r6,0(sp)
   83340:	0023883a 	mov	r17,zero
   83344:	30000005 	stb	zero,0(r6)
   83348:	00000306 	br	83358 <OSFlagDel+0x140>
   8334c:	9001703a 	wrctl	status,r18
   83350:	008001c4 	movi	r2,7
   83354:	30800005 	stb	r2,0(r6)
   83358:	8805883a 	mov	r2,r17
   8335c:	dfc00517 	ldw	ra,20(sp)
   83360:	dcc00417 	ldw	r19,16(sp)
   83364:	dc800317 	ldw	r18,12(sp)
   83368:	dc400217 	ldw	r17,8(sp)
   8336c:	dc000117 	ldw	r16,4(sp)
   83370:	dec00604 	addi	sp,sp,24
   83374:	f800283a 	ret

00083378 <OSFlagNameGet>:
   83378:	defffd04 	addi	sp,sp,-12
   8337c:	dc000015 	stw	r16,0(sp)
   83380:	3021883a 	mov	r16,r6
   83384:	dfc00215 	stw	ra,8(sp)
   83388:	dc400115 	stw	r17,4(sp)
   8338c:	200d883a 	mov	r6,r4
   83390:	8000021e 	bne	r16,zero,8339c <OSFlagNameGet+0x24>
   83394:	0007883a 	mov	r3,zero
   83398:	00002106 	br	83420 <OSFlagNameGet+0xa8>
   8339c:	2000031e 	bne	r4,zero,833ac <OSFlagNameGet+0x34>
   833a0:	0007883a 	mov	r3,zero
   833a4:	00801b84 	movi	r2,110
   833a8:	00000306 	br	833b8 <OSFlagNameGet+0x40>
   833ac:	2800041e 	bne	r5,zero,833c0 <OSFlagNameGet+0x48>
   833b0:	0007883a 	mov	r3,zero
   833b4:	00800304 	movi	r2,12
   833b8:	80800005 	stb	r2,0(r16)
   833bc:	00001806 	br	83420 <OSFlagNameGet+0xa8>
   833c0:	008002b4 	movhi	r2,10
   833c4:	108c9c04 	addi	r2,r2,12912
   833c8:	10800003 	ldbu	r2,0(r2)
   833cc:	10000326 	beq	r2,zero,833dc <OSFlagNameGet+0x64>
   833d0:	0007883a 	mov	r3,zero
   833d4:	00800444 	movi	r2,17
   833d8:	003ff706 	br	833b8 <OSFlagNameGet+0x40>
   833dc:	0023303a 	rdctl	r17,status
   833e0:	00bfff84 	movi	r2,-2
   833e4:	8884703a 	and	r2,r17,r2
   833e8:	1001703a 	wrctl	status,r2
   833ec:	20c00003 	ldbu	r3,0(r4)
   833f0:	00800144 	movi	r2,5
   833f4:	18800426 	beq	r3,r2,83408 <OSFlagNameGet+0x90>
   833f8:	8801703a 	wrctl	status,r17
   833fc:	0007883a 	mov	r3,zero
   83400:	00800044 	movi	r2,1
   83404:	003fec06 	br	833b8 <OSFlagNameGet+0x40>
   83408:	2809883a 	mov	r4,r5
   8340c:	31400284 	addi	r5,r6,10
   83410:	0081fdc0 	call	81fdc <OS_StrCopy>
   83414:	8801703a 	wrctl	status,r17
   83418:	80000005 	stb	zero,0(r16)
   8341c:	10c03fcc 	andi	r3,r2,255
   83420:	1805883a 	mov	r2,r3
   83424:	dfc00217 	ldw	ra,8(sp)
   83428:	dc400117 	ldw	r17,4(sp)
   8342c:	dc000017 	ldw	r16,0(sp)
   83430:	dec00304 	addi	sp,sp,12
   83434:	f800283a 	ret

00083438 <OSFlagNameSet>:
   83438:	defffb04 	addi	sp,sp,-20
   8343c:	dc800215 	stw	r18,8(sp)
   83440:	dc400115 	stw	r17,4(sp)
   83444:	dc000015 	stw	r16,0(sp)
   83448:	dfc00415 	stw	ra,16(sp)
   8344c:	dcc00315 	stw	r19,12(sp)
   83450:	3021883a 	mov	r16,r6
   83454:	2023883a 	mov	r17,r4
   83458:	2825883a 	mov	r18,r5
   8345c:	30002426 	beq	r6,zero,834f0 <OSFlagNameSet+0xb8>
   83460:	2000021e 	bne	r4,zero,8346c <OSFlagNameSet+0x34>
   83464:	00801b84 	movi	r2,110
   83468:	00000206 	br	83474 <OSFlagNameSet+0x3c>
   8346c:	2800031e 	bne	r5,zero,8347c <OSFlagNameSet+0x44>
   83470:	00800304 	movi	r2,12
   83474:	80800005 	stb	r2,0(r16)
   83478:	00001d06 	br	834f0 <OSFlagNameSet+0xb8>
   8347c:	008002b4 	movhi	r2,10
   83480:	108c9c04 	addi	r2,r2,12912
   83484:	10800003 	ldbu	r2,0(r2)
   83488:	10000226 	beq	r2,zero,83494 <OSFlagNameSet+0x5c>
   8348c:	00800484 	movi	r2,18
   83490:	003ff806 	br	83474 <OSFlagNameSet+0x3c>
   83494:	0027303a 	rdctl	r19,status
   83498:	00bfff84 	movi	r2,-2
   8349c:	9884703a 	and	r2,r19,r2
   834a0:	1001703a 	wrctl	status,r2
   834a4:	20c00003 	ldbu	r3,0(r4)
   834a8:	00800144 	movi	r2,5
   834ac:	18800326 	beq	r3,r2,834bc <OSFlagNameSet+0x84>
   834b0:	9801703a 	wrctl	status,r19
   834b4:	00800044 	movi	r2,1
   834b8:	003fee06 	br	83474 <OSFlagNameSet+0x3c>
   834bc:	2809883a 	mov	r4,r5
   834c0:	00820080 	call	82008 <OS_StrLen>
   834c4:	10803fcc 	andi	r2,r2,255
   834c8:	00c007c4 	movi	r3,31
   834cc:	1880032e 	bgeu	r3,r2,834dc <OSFlagNameSet+0xa4>
   834d0:	9801703a 	wrctl	status,r19
   834d4:	00801cc4 	movi	r2,115
   834d8:	003fe606 	br	83474 <OSFlagNameSet+0x3c>
   834dc:	89000284 	addi	r4,r17,10
   834e0:	900b883a 	mov	r5,r18
   834e4:	0081fdc0 	call	81fdc <OS_StrCopy>
   834e8:	9801703a 	wrctl	status,r19
   834ec:	80000005 	stb	zero,0(r16)
   834f0:	dfc00417 	ldw	ra,16(sp)
   834f4:	dcc00317 	ldw	r19,12(sp)
   834f8:	dc800217 	ldw	r18,8(sp)
   834fc:	dc400117 	ldw	r17,4(sp)
   83500:	dc000017 	ldw	r16,0(sp)
   83504:	dec00504 	addi	sp,sp,20
   83508:	f800283a 	ret

0008350c <OSFlagPend>:
   8350c:	defff204 	addi	sp,sp,-56
   83510:	dd000a15 	stw	r20,40(sp)
   83514:	dd000e17 	ldw	r20,56(sp)
   83518:	dd800c15 	stw	r22,48(sp)
   8351c:	dc000615 	stw	r16,24(sp)
   83520:	dfc00d15 	stw	ra,52(sp)
   83524:	dd400b15 	stw	r21,44(sp)
   83528:	dcc00915 	stw	r19,36(sp)
   8352c:	dc800815 	stw	r18,32(sp)
   83530:	dc400715 	stw	r17,28(sp)
   83534:	2021883a 	mov	r16,r4
   83538:	3813883a 	mov	r9,r7
   8353c:	302d883a 	mov	r22,r6
   83540:	a000021e 	bne	r20,zero,8354c <OSFlagPend+0x40>
   83544:	000d883a 	mov	r6,zero
   83548:	0000a506 	br	837e0 <OSFlagPend+0x2d4>
   8354c:	2000031e 	bne	r4,zero,8355c <OSFlagPend+0x50>
   83550:	000d883a 	mov	r6,zero
   83554:	00801b84 	movi	r2,110
   83558:	00000606 	br	83574 <OSFlagPend+0x68>
   8355c:	008002b4 	movhi	r2,10
   83560:	108c9c04 	addi	r2,r2,12912
   83564:	10800003 	ldbu	r2,0(r2)
   83568:	10000426 	beq	r2,zero,8357c <OSFlagPend+0x70>
   8356c:	000d883a 	mov	r6,zero
   83570:	00800084 	movi	r2,2
   83574:	a0800005 	stb	r2,0(r20)
   83578:	00009906 	br	837e0 <OSFlagPend+0x2d4>
   8357c:	008002b4 	movhi	r2,10
   83580:	108c8b04 	addi	r2,r2,12844
   83584:	10800003 	ldbu	r2,0(r2)
   83588:	10000326 	beq	r2,zero,83598 <OSFlagPend+0x8c>
   8358c:	000d883a 	mov	r6,zero
   83590:	00800344 	movi	r2,13
   83594:	003ff706 	br	83574 <OSFlagPend+0x68>
   83598:	20c00003 	ldbu	r3,0(r4)
   8359c:	00800144 	movi	r2,5
   835a0:	18800326 	beq	r3,r2,835b0 <OSFlagPend+0xa4>
   835a4:	000d883a 	mov	r6,zero
   835a8:	00800044 	movi	r2,1
   835ac:	003ff106 	br	83574 <OSFlagPend+0x68>
   835b0:	00bfe004 	movi	r2,-128
   835b4:	3084703a 	and	r2,r6,r2
   835b8:	10803fcc 	andi	r2,r2,255
   835bc:	1000021e 	bne	r2,zero,835c8 <OSFlagPend+0xbc>
   835c0:	002b883a 	mov	r21,zero
   835c4:	00000206 	br	835d0 <OSFlagPend+0xc4>
   835c8:	35801fcc 	andi	r22,r6,127
   835cc:	05400044 	movi	r21,1
   835d0:	0023303a 	rdctl	r17,status
   835d4:	00bfff84 	movi	r2,-2
   835d8:	8884703a 	and	r2,r17,r2
   835dc:	1001703a 	wrctl	status,r2
   835e0:	b1c03fcc 	andi	r7,r22,255
   835e4:	02000044 	movi	r8,1
   835e8:	3a003026 	beq	r7,r8,836ac <OSFlagPend+0x1a0>
   835ec:	3a001d36 	bltu	r7,r8,83664 <OSFlagPend+0x158>
   835f0:	00800084 	movi	r2,2
   835f4:	38800326 	beq	r7,r2,83604 <OSFlagPend+0xf8>
   835f8:	008000c4 	movi	r2,3
   835fc:	3880421e 	bne	r7,r2,83708 <OSFlagPend+0x1fc>
   83600:	00000a06 	br	8362c <OSFlagPend+0x120>
   83604:	80c0020b 	ldhu	r3,8(r16)
   83608:	29bfffcc 	andi	r6,r5,65535
   8360c:	194a703a 	and	r5,r3,r5
   83610:	28bfffcc 	andi	r2,r5,65535
   83614:	1180231e 	bne	r2,r6,836a4 <OSFlagPend+0x198>
   83618:	a8803fcc 	andi	r2,r21,255
   8361c:	12001b1e 	bne	r2,r8,8368c <OSFlagPend+0x180>
   83620:	0144303a 	nor	r2,zero,r5
   83624:	10c4703a 	and	r2,r2,r3
   83628:	00001706 	br	83688 <OSFlagPend+0x17c>
   8362c:	8100020b 	ldhu	r4,8(r16)
   83630:	2146703a 	and	r3,r4,r5
   83634:	19bfffcc 	andi	r6,r3,65535
   83638:	30003026 	beq	r6,zero,836fc <OSFlagPend+0x1f0>
   8363c:	a8803fcc 	andi	r2,r21,255
   83640:	1200031e 	bne	r2,r8,83650 <OSFlagPend+0x144>
   83644:	00c4303a 	nor	r2,zero,r3
   83648:	1104703a 	and	r2,r2,r4
   8364c:	8080020d 	sth	r2,8(r16)
   83650:	008002b4 	movhi	r2,10
   83654:	108c9d04 	addi	r2,r2,12916
   83658:	10800017 	ldw	r2,0(r2)
   8365c:	10c00b0d 	sth	r3,44(r2)
   83660:	00000e06 	br	8369c <OSFlagPend+0x190>
   83664:	80c0020b 	ldhu	r3,8(r16)
   83668:	29bfffcc 	andi	r6,r5,65535
   8366c:	00c4303a 	nor	r2,zero,r3
   83670:	114a703a 	and	r5,r2,r5
   83674:	28bfffcc 	andi	r2,r5,65535
   83678:	11800a1e 	bne	r2,r6,836a4 <OSFlagPend+0x198>
   8367c:	a8803fcc 	andi	r2,r21,255
   83680:	1200021e 	bne	r2,r8,8368c <OSFlagPend+0x180>
   83684:	28c4b03a 	or	r2,r5,r3
   83688:	8080020d 	sth	r2,8(r16)
   8368c:	008002b4 	movhi	r2,10
   83690:	108c9d04 	addi	r2,r2,12916
   83694:	10800017 	ldw	r2,0(r2)
   83698:	11400b0d 	sth	r5,44(r2)
   8369c:	8801703a 	wrctl	status,r17
   836a0:	00001406 	br	836f4 <OSFlagPend+0x1e8>
   836a4:	48bfffcc 	andi	r2,r9,65535
   836a8:	00001906 	br	83710 <OSFlagPend+0x204>
   836ac:	8100020b 	ldhu	r4,8(r16)
   836b0:	0104303a 	nor	r2,zero,r4
   836b4:	1146703a 	and	r3,r2,r5
   836b8:	18bfffcc 	andi	r2,r3,65535
   836bc:	10a0001c 	xori	r2,r2,32768
   836c0:	10a00004 	addi	r2,r2,-32768
   836c4:	180d883a 	mov	r6,r3
   836c8:	10000c26 	beq	r2,zero,836fc <OSFlagPend+0x1f0>
   836cc:	a8803fcc 	andi	r2,r21,255
   836d0:	11c0021e 	bne	r2,r7,836dc <OSFlagPend+0x1d0>
   836d4:	1904b03a 	or	r2,r3,r4
   836d8:	8080020d 	sth	r2,8(r16)
   836dc:	008002b4 	movhi	r2,10
   836e0:	108c9d04 	addi	r2,r2,12916
   836e4:	10800017 	ldw	r2,0(r2)
   836e8:	10c00b0d 	sth	r3,44(r2)
   836ec:	8801703a 	wrctl	status,r17
   836f0:	31bfffcc 	andi	r6,r6,65535
   836f4:	a0000005 	stb	zero,0(r20)
   836f8:	00003906 	br	837e0 <OSFlagPend+0x2d4>
   836fc:	48bfffcc 	andi	r2,r9,65535
   83700:	29bfffcc 	andi	r6,r5,65535
   83704:	00000206 	br	83710 <OSFlagPend+0x204>
   83708:	8801703a 	wrctl	status,r17
   8370c:	00002e06 	br	837c8 <OSFlagPend+0x2bc>
   83710:	8009883a 	mov	r4,r16
   83714:	d9400104 	addi	r5,sp,4
   83718:	d8800015 	stw	r2,0(sp)
   8371c:	0082dd00 	call	82dd0 <OS_FlagBlock>
   83720:	8801703a 	wrctl	status,r17
   83724:	00820ac0 	call	820ac <OS_Sched>
   83728:	0027303a 	rdctl	r19,status
   8372c:	00bfff84 	movi	r2,-2
   83730:	9884703a 	and	r2,r19,r2
   83734:	1001703a 	wrctl	status,r2
   83738:	048002b4 	movhi	r18,10
   8373c:	948c9d04 	addi	r18,r18,12916
   83740:	90800017 	ldw	r2,0(r18)
   83744:	14400c43 	ldbu	r17,49(r2)
   83748:	88000e26 	beq	r17,zero,83784 <OSFlagPend+0x278>
   8374c:	10000c45 	stb	zero,49(r2)
   83750:	d9000104 	addi	r4,sp,4
   83754:	0082e880 	call	82e88 <OS_FlagUnlink>
   83758:	90800017 	ldw	r2,0(r18)
   8375c:	10000c05 	stb	zero,48(r2)
   83760:	9801703a 	wrctl	status,r19
   83764:	00800084 	movi	r2,2
   83768:	8880031e 	bne	r17,r2,83778 <OSFlagPend+0x26c>
   8376c:	000d883a 	mov	r6,zero
   83770:	00800384 	movi	r2,14
   83774:	003f7f06 	br	83574 <OSFlagPend+0x68>
   83778:	000d883a 	mov	r6,zero
   8377c:	00800284 	movi	r2,10
   83780:	003f7c06 	br	83574 <OSFlagPend+0x68>
   83784:	11800b0b 	ldhu	r6,44(r2)
   83788:	a9003fcc 	andi	r4,r21,255
   8378c:	00800044 	movi	r2,1
   83790:	2080101e 	bne	r4,r2,837d4 <OSFlagPend+0x2c8>
   83794:	b0c03fcc 	andi	r3,r22,255
   83798:	20c0062e 	bgeu	r4,r3,837b4 <OSFlagPend+0x2a8>
   8379c:	008000c4 	movi	r2,3
   837a0:	10c00836 	bltu	r2,r3,837c4 <OSFlagPend+0x2b8>
   837a4:	80c0020b 	ldhu	r3,8(r16)
   837a8:	0184303a 	nor	r2,zero,r6
   837ac:	10c4703a 	and	r2,r2,r3
   837b0:	00000206 	br	837bc <OSFlagPend+0x2b0>
   837b4:	8080020b 	ldhu	r2,8(r16)
   837b8:	1184b03a 	or	r2,r2,r6
   837bc:	8080020d 	sth	r2,8(r16)
   837c0:	00000406 	br	837d4 <OSFlagPend+0x2c8>
   837c4:	9801703a 	wrctl	status,r19
   837c8:	000d883a 	mov	r6,zero
   837cc:	00801bc4 	movi	r2,111
   837d0:	003f6806 	br	83574 <OSFlagPend+0x68>
   837d4:	9801703a 	wrctl	status,r19
   837d8:	a0000005 	stb	zero,0(r20)
   837dc:	31bfffcc 	andi	r6,r6,65535
   837e0:	3005883a 	mov	r2,r6
   837e4:	dfc00d17 	ldw	ra,52(sp)
   837e8:	dd800c17 	ldw	r22,48(sp)
   837ec:	dd400b17 	ldw	r21,44(sp)
   837f0:	dd000a17 	ldw	r20,40(sp)
   837f4:	dcc00917 	ldw	r19,36(sp)
   837f8:	dc800817 	ldw	r18,32(sp)
   837fc:	dc400717 	ldw	r17,28(sp)
   83800:	dc000617 	ldw	r16,24(sp)
   83804:	dec00e04 	addi	sp,sp,56
   83808:	f800283a 	ret

0008380c <OSFlagPendGetFlagsRdy>:
   8380c:	0007303a 	rdctl	r3,status
   83810:	00bfff84 	movi	r2,-2
   83814:	1884703a 	and	r2,r3,r2
   83818:	1001703a 	wrctl	status,r2
   8381c:	008002b4 	movhi	r2,10
   83820:	108c9d04 	addi	r2,r2,12916
   83824:	10800017 	ldw	r2,0(r2)
   83828:	10800b0b 	ldhu	r2,44(r2)
   8382c:	1801703a 	wrctl	status,r3
   83830:	10bfffcc 	andi	r2,r2,65535
   83834:	f800283a 	ret

00083838 <OSFlagPost>:
   83838:	defff804 	addi	sp,sp,-32
   8383c:	dd000415 	stw	r20,16(sp)
   83840:	dc800215 	stw	r18,8(sp)
   83844:	dfc00715 	stw	ra,28(sp)
   83848:	dd800615 	stw	r22,24(sp)
   8384c:	dd400515 	stw	r21,20(sp)
   83850:	dcc00315 	stw	r19,12(sp)
   83854:	dc400115 	stw	r17,4(sp)
   83858:	dc000015 	stw	r16,0(sp)
   8385c:	3829883a 	mov	r20,r7
   83860:	2025883a 	mov	r18,r4
   83864:	3800021e 	bne	r7,zero,83870 <OSFlagPost+0x38>
   83868:	0007883a 	mov	r3,zero
   8386c:	00006406 	br	83a00 <OSFlagPost+0x1c8>
   83870:	2000031e 	bne	r4,zero,83880 <OSFlagPost+0x48>
   83874:	0007883a 	mov	r3,zero
   83878:	00801b84 	movi	r2,110
   8387c:	00000506 	br	83894 <OSFlagPost+0x5c>
   83880:	20c00003 	ldbu	r3,0(r4)
   83884:	00800144 	movi	r2,5
   83888:	18800426 	beq	r3,r2,8389c <OSFlagPost+0x64>
   8388c:	0007883a 	mov	r3,zero
   83890:	00800044 	movi	r2,1
   83894:	a0800005 	stb	r2,0(r20)
   83898:	00005906 	br	83a00 <OSFlagPost+0x1c8>
   8389c:	002b303a 	rdctl	r21,status
   838a0:	00bfff84 	movi	r2,-2
   838a4:	a884703a 	and	r2,r21,r2
   838a8:	1001703a 	wrctl	status,r2
   838ac:	31803fcc 	andi	r6,r6,255
   838b0:	30000326 	beq	r6,zero,838c0 <OSFlagPost+0x88>
   838b4:	00800044 	movi	r2,1
   838b8:	30800b1e 	bne	r6,r2,838e8 <OSFlagPost+0xb0>
   838bc:	00000406 	br	838d0 <OSFlagPost+0x98>
   838c0:	20c0020b 	ldhu	r3,8(r4)
   838c4:	0144303a 	nor	r2,zero,r5
   838c8:	10c4703a 	and	r2,r2,r3
   838cc:	00000206 	br	838d8 <OSFlagPost+0xa0>
   838d0:	2080020b 	ldhu	r2,8(r4)
   838d4:	2884b03a 	or	r2,r5,r2
   838d8:	94400117 	ldw	r17,4(r18)
   838dc:	002d883a 	mov	r22,zero
   838e0:	9080020d 	sth	r2,8(r18)
   838e4:	00003906 	br	839cc <OSFlagPost+0x194>
   838e8:	a801703a 	wrctl	status,r21
   838ec:	0007883a 	mov	r3,zero
   838f0:	00801c44 	movi	r2,113
   838f4:	003fe706 	br	83894 <OSFlagPost+0x5c>
   838f8:	8c000483 	ldbu	r16,18(r17)
   838fc:	04c00044 	movi	r19,1
   83900:	84c01e26 	beq	r16,r19,8397c <OSFlagPost+0x144>
   83904:	84c01236 	bltu	r16,r19,83950 <OSFlagPost+0x118>
   83908:	00800084 	movi	r2,2
   8390c:	80800326 	beq	r16,r2,8391c <OSFlagPost+0xe4>
   83910:	008000c4 	movi	r2,3
   83914:	8080271e 	bne	r16,r2,839b4 <OSFlagPost+0x17c>
   83918:	00000706 	br	83938 <OSFlagPost+0x100>
   8391c:	8880040b 	ldhu	r2,16(r17)
   83920:	90c0020b 	ldhu	r3,8(r18)
   83924:	1009883a 	mov	r4,r2
   83928:	10c4703a 	and	r2,r2,r3
   8392c:	117fffcc 	andi	r5,r2,65535
   83930:	2900251e 	bne	r5,r4,839c8 <OSFlagPost+0x190>
   83934:	00000c06 	br	83968 <OSFlagPost+0x130>
   83938:	9080020b 	ldhu	r2,8(r18)
   8393c:	88c0040b 	ldhu	r3,16(r17)
   83940:	10c4703a 	and	r2,r2,r3
   83944:	117fffcc 	andi	r5,r2,65535
   83948:	28001f26 	beq	r5,zero,839c8 <OSFlagPost+0x190>
   8394c:	00000606 	br	83968 <OSFlagPost+0x130>
   83950:	9080020b 	ldhu	r2,8(r18)
   83954:	88c0040b 	ldhu	r3,16(r17)
   83958:	0084303a 	nor	r2,zero,r2
   8395c:	10c4703a 	and	r2,r2,r3
   83960:	117fffcc 	andi	r5,r2,65535
   83964:	28c0181e 	bne	r5,r3,839c8 <OSFlagPost+0x190>
   83968:	8809883a 	mov	r4,r17
   8396c:	0082ec40 	call	82ec4 <OS_FlagTaskRdy>
   83970:	10803fcc 	andi	r2,r2,255
   83974:	14c0141e 	bne	r2,r19,839c8 <OSFlagPost+0x190>
   83978:	00001206 	br	839c4 <OSFlagPost+0x18c>
   8397c:	9080020b 	ldhu	r2,8(r18)
   83980:	88c0040b 	ldhu	r3,16(r17)
   83984:	0084303a 	nor	r2,zero,r2
   83988:	10ca703a 	and	r5,r2,r3
   8398c:	28bfffcc 	andi	r2,r5,65535
   83990:	10a0001c 	xori	r2,r2,32768
   83994:	10a00004 	addi	r2,r2,-32768
   83998:	10000b26 	beq	r2,zero,839c8 <OSFlagPost+0x190>
   8399c:	297fffcc 	andi	r5,r5,65535
   839a0:	8809883a 	mov	r4,r17
   839a4:	0082ec40 	call	82ec4 <OS_FlagTaskRdy>
   839a8:	10803fcc 	andi	r2,r2,255
   839ac:	1400061e 	bne	r2,r16,839c8 <OSFlagPost+0x190>
   839b0:	00000406 	br	839c4 <OSFlagPost+0x18c>
   839b4:	a801703a 	wrctl	status,r21
   839b8:	0007883a 	mov	r3,zero
   839bc:	00801bc4 	movi	r2,111
   839c0:	003fb406 	br	83894 <OSFlagPost+0x5c>
   839c4:	05800044 	movi	r22,1
   839c8:	8c400017 	ldw	r17,0(r17)
   839cc:	883fca1e 	bne	r17,zero,838f8 <OSFlagPost+0xc0>
   839d0:	a801703a 	wrctl	status,r21
   839d4:	b0c03fcc 	andi	r3,r22,255
   839d8:	00800044 	movi	r2,1
   839dc:	1880011e 	bne	r3,r2,839e4 <OSFlagPost+0x1ac>
   839e0:	00820ac0 	call	820ac <OS_Sched>
   839e4:	0005303a 	rdctl	r2,status
   839e8:	00ffff84 	movi	r3,-2
   839ec:	10c6703a 	and	r3,r2,r3
   839f0:	1801703a 	wrctl	status,r3
   839f4:	90c0020b 	ldhu	r3,8(r18)
   839f8:	1001703a 	wrctl	status,r2
   839fc:	a0000005 	stb	zero,0(r20)
   83a00:	1805883a 	mov	r2,r3
   83a04:	dfc00717 	ldw	ra,28(sp)
   83a08:	dd800617 	ldw	r22,24(sp)
   83a0c:	dd400517 	ldw	r21,20(sp)
   83a10:	dd000417 	ldw	r20,16(sp)
   83a14:	dcc00317 	ldw	r19,12(sp)
   83a18:	dc800217 	ldw	r18,8(sp)
   83a1c:	dc400117 	ldw	r17,4(sp)
   83a20:	dc000017 	ldw	r16,0(sp)
   83a24:	dec00804 	addi	sp,sp,32
   83a28:	f800283a 	ret

00083a2c <OS_MemInit>:
   83a2c:	deffff04 	addi	sp,sp,-4
   83a30:	01430c04 	movi	r5,3120
   83a34:	010002b4 	movhi	r4,10
   83a38:	210e6304 	addi	r4,r4,14732
   83a3c:	dfc00015 	stw	ra,0(sp)
   83a40:	0081f9c0 	call	81f9c <OS_MemClr>
   83a44:	00c002b4 	movhi	r3,10
   83a48:	18ce7004 	addi	r3,r3,14784
   83a4c:	01400fc4 	movi	r5,63
   83a50:	1882ff04 	addi	r2,r3,3068
   83a54:	18fff415 	stw	r3,-48(r3)
   83a58:	197ff805 	stb	r5,-32(r3)
   83a5c:	183ff845 	stb	zero,-31(r3)
   83a60:	18c00d04 	addi	r3,r3,52
   83a64:	18bffb1e 	bne	r3,r2,83a54 <OS_MemInit+0x28>
   83a68:	193cf404 	addi	r4,r3,-3120
   83a6c:	008002b4 	movhi	r2,10
   83a70:	108c9704 	addi	r2,r2,12892
   83a74:	18fff304 	addi	r3,r3,-52
   83a78:	11000015 	stw	r4,0(r2)
   83a7c:	19400505 	stb	r5,20(r3)
   83a80:	18000545 	stb	zero,21(r3)
   83a84:	18000115 	stw	zero,4(r3)
   83a88:	dfc00017 	ldw	ra,0(sp)
   83a8c:	dec00104 	addi	sp,sp,4
   83a90:	f800283a 	ret

00083a94 <OSMemQuery>:
   83a94:	200f883a 	mov	r7,r4
   83a98:	00801804 	movi	r2,96
   83a9c:	280d883a 	mov	r6,r5
   83aa0:	20001426 	beq	r4,zero,83af4 <OSMemQuery+0x60>
   83aa4:	00801844 	movi	r2,97
   83aa8:	28001226 	beq	r5,zero,83af4 <OSMemQuery+0x60>
   83aac:	000b303a 	rdctl	r5,status
   83ab0:	00bfff84 	movi	r2,-2
   83ab4:	2884703a 	and	r2,r5,r2
   83ab8:	1001703a 	wrctl	status,r2
   83abc:	20800217 	ldw	r2,8(r4)
   83ac0:	20c00017 	ldw	r3,0(r4)
   83ac4:	30800215 	stw	r2,8(r6)
   83ac8:	20800317 	ldw	r2,12(r4)
   83acc:	30c00015 	stw	r3,0(r6)
   83ad0:	21000117 	ldw	r4,4(r4)
   83ad4:	30800315 	stw	r2,12(r6)
   83ad8:	38c00417 	ldw	r3,16(r7)
   83adc:	31000115 	stw	r4,4(r6)
   83ae0:	30c00415 	stw	r3,16(r6)
   83ae4:	2801703a 	wrctl	status,r5
   83ae8:	10c5c83a 	sub	r2,r2,r3
   83aec:	30800515 	stw	r2,20(r6)
   83af0:	0005883a 	mov	r2,zero
   83af4:	f800283a 	ret

00083af8 <OSMemCreate>:
   83af8:	3800021e 	bne	r7,zero,83b04 <OSMemCreate+0xc>
   83afc:	0015883a 	mov	r10,zero
   83b00:	00002f06 	br	83bc0 <OSMemCreate+0xc8>
   83b04:	20000226 	beq	r4,zero,83b10 <OSMemCreate+0x18>
   83b08:	208000cc 	andi	r2,r4,3
   83b0c:	10000326 	beq	r2,zero,83b1c <OSMemCreate+0x24>
   83b10:	0015883a 	mov	r10,zero
   83b14:	00801884 	movi	r2,98
   83b18:	00001b06 	br	83b88 <OSMemCreate+0x90>
   83b1c:	02400044 	movi	r9,1
   83b20:	49400336 	bltu	r9,r5,83b30 <OSMemCreate+0x38>
   83b24:	0015883a 	mov	r10,zero
   83b28:	008016c4 	movi	r2,91
   83b2c:	00001606 	br	83b88 <OSMemCreate+0x90>
   83b30:	008000c4 	movi	r2,3
   83b34:	11800336 	bltu	r2,r6,83b44 <OSMemCreate+0x4c>
   83b38:	0015883a 	mov	r10,zero
   83b3c:	00801704 	movi	r2,92
   83b40:	00001106 	br	83b88 <OSMemCreate+0x90>
   83b44:	0007303a 	rdctl	r3,status
   83b48:	00bfff84 	movi	r2,-2
   83b4c:	1884703a 	and	r2,r3,r2
   83b50:	1001703a 	wrctl	status,r2
   83b54:	020002b4 	movhi	r8,10
   83b58:	420c9704 	addi	r8,r8,12892
   83b5c:	42800017 	ldw	r10,0(r8)
   83b60:	50000726 	beq	r10,zero,83b80 <OSMemCreate+0x88>
   83b64:	50800117 	ldw	r2,4(r10)
   83b68:	40800015 	stw	r2,0(r8)
   83b6c:	1801703a 	wrctl	status,r3
   83b70:	4811883a 	mov	r8,r9
   83b74:	2005883a 	mov	r2,r4
   83b78:	2187883a 	add	r3,r4,r6
   83b7c:	00000406 	br	83b90 <OSMemCreate+0x98>
   83b80:	1801703a 	wrctl	status,r3
   83b84:	00801684 	movi	r2,90
   83b88:	38800005 	stb	r2,0(r7)
   83b8c:	00000c06 	br	83bc0 <OSMemCreate+0xc8>
   83b90:	42000044 	addi	r8,r8,1
   83b94:	10c00015 	stw	r3,0(r2)
   83b98:	1805883a 	mov	r2,r3
   83b9c:	1987883a 	add	r3,r3,r6
   83ba0:	417ffb1e 	bne	r8,r5,83b90 <OSMemCreate+0x98>
   83ba4:	10000015 	stw	zero,0(r2)
   83ba8:	51000115 	stw	r4,4(r10)
   83bac:	51400315 	stw	r5,12(r10)
   83bb0:	51800215 	stw	r6,8(r10)
   83bb4:	51000015 	stw	r4,0(r10)
   83bb8:	51400415 	stw	r5,16(r10)
   83bbc:	38000005 	stb	zero,0(r7)
   83bc0:	5005883a 	mov	r2,r10
   83bc4:	f800283a 	ret

00083bc8 <OSMemGet>:
   83bc8:	000f883a 	mov	r7,zero
   83bcc:	28001726 	beq	r5,zero,83c2c <OSMemGet+0x64>
   83bd0:	000f883a 	mov	r7,zero
   83bd4:	2000031e 	bne	r4,zero,83be4 <OSMemGet+0x1c>
   83bd8:	00801804 	movi	r2,96
   83bdc:	28800005 	stb	r2,0(r5)
   83be0:	00001206 	br	83c2c <OSMemGet+0x64>
   83be4:	000d303a 	rdctl	r6,status
   83be8:	00bfff84 	movi	r2,-2
   83bec:	3084703a 	and	r2,r6,r2
   83bf0:	1001703a 	wrctl	status,r2
   83bf4:	20800417 	ldw	r2,16(r4)
   83bf8:	10ffffc4 	addi	r3,r2,-1
   83bfc:	10000726 	beq	r2,zero,83c1c <OSMemGet+0x54>
   83c00:	21c00117 	ldw	r7,4(r4)
   83c04:	20c00415 	stw	r3,16(r4)
   83c08:	38800017 	ldw	r2,0(r7)
   83c0c:	20800115 	stw	r2,4(r4)
   83c10:	3001703a 	wrctl	status,r6
   83c14:	28000005 	stb	zero,0(r5)
   83c18:	00000406 	br	83c2c <OSMemGet+0x64>
   83c1c:	3001703a 	wrctl	status,r6
   83c20:	00801744 	movi	r2,93
   83c24:	28800005 	stb	r2,0(r5)
   83c28:	000f883a 	mov	r7,zero
   83c2c:	3805883a 	mov	r2,r7
   83c30:	f800283a 	ret

00083c34 <OSMemNameGet>:
   83c34:	defffd04 	addi	sp,sp,-12
   83c38:	dfc00215 	stw	ra,8(sp)
   83c3c:	dc000115 	stw	r16,4(sp)
   83c40:	000f883a 	mov	r7,zero
   83c44:	2007883a 	mov	r3,r4
   83c48:	30001c26 	beq	r6,zero,83cbc <OSMemNameGet+0x88>
   83c4c:	000f883a 	mov	r7,zero
   83c50:	2000021e 	bne	r4,zero,83c5c <OSMemNameGet+0x28>
   83c54:	00801804 	movi	r2,96
   83c58:	00000306 	br	83c68 <OSMemNameGet+0x34>
   83c5c:	000f883a 	mov	r7,zero
   83c60:	2800031e 	bne	r5,zero,83c70 <OSMemNameGet+0x3c>
   83c64:	00800304 	movi	r2,12
   83c68:	30800005 	stb	r2,0(r6)
   83c6c:	00001306 	br	83cbc <OSMemNameGet+0x88>
   83c70:	008002b4 	movhi	r2,10
   83c74:	108c9c04 	addi	r2,r2,12912
   83c78:	10800003 	ldbu	r2,0(r2)
   83c7c:	000f883a 	mov	r7,zero
   83c80:	10000226 	beq	r2,zero,83c8c <OSMemNameGet+0x58>
   83c84:	00800444 	movi	r2,17
   83c88:	003ff706 	br	83c68 <OSMemNameGet+0x34>
   83c8c:	0021303a 	rdctl	r16,status
   83c90:	00bfff84 	movi	r2,-2
   83c94:	8084703a 	and	r2,r16,r2
   83c98:	1001703a 	wrctl	status,r2
   83c9c:	2809883a 	mov	r4,r5
   83ca0:	19400504 	addi	r5,r3,20
   83ca4:	d9800015 	stw	r6,0(sp)
   83ca8:	0081fdc0 	call	81fdc <OS_StrCopy>
   83cac:	8001703a 	wrctl	status,r16
   83cb0:	d9800017 	ldw	r6,0(sp)
   83cb4:	11c03fcc 	andi	r7,r2,255
   83cb8:	30000005 	stb	zero,0(r6)
   83cbc:	3805883a 	mov	r2,r7
   83cc0:	dfc00217 	ldw	ra,8(sp)
   83cc4:	dc000117 	ldw	r16,4(sp)
   83cc8:	dec00304 	addi	sp,sp,12
   83ccc:	f800283a 	ret

00083cd0 <OSMemNameSet>:
   83cd0:	defffb04 	addi	sp,sp,-20
   83cd4:	dcc00315 	stw	r19,12(sp)
   83cd8:	dc400115 	stw	r17,4(sp)
   83cdc:	dc000015 	stw	r16,0(sp)
   83ce0:	dfc00415 	stw	ra,16(sp)
   83ce4:	dc800215 	stw	r18,8(sp)
   83ce8:	3023883a 	mov	r17,r6
   83cec:	2027883a 	mov	r19,r4
   83cf0:	2821883a 	mov	r16,r5
   83cf4:	30001e26 	beq	r6,zero,83d70 <OSMemNameSet+0xa0>
   83cf8:	2000021e 	bne	r4,zero,83d04 <OSMemNameSet+0x34>
   83cfc:	00801804 	movi	r2,96
   83d00:	00000206 	br	83d0c <OSMemNameSet+0x3c>
   83d04:	2800031e 	bne	r5,zero,83d14 <OSMemNameSet+0x44>
   83d08:	00800304 	movi	r2,12
   83d0c:	88800005 	stb	r2,0(r17)
   83d10:	00001706 	br	83d70 <OSMemNameSet+0xa0>
   83d14:	008002b4 	movhi	r2,10
   83d18:	108c9c04 	addi	r2,r2,12912
   83d1c:	10800003 	ldbu	r2,0(r2)
   83d20:	10000226 	beq	r2,zero,83d2c <OSMemNameSet+0x5c>
   83d24:	00800484 	movi	r2,18
   83d28:	003ff806 	br	83d0c <OSMemNameSet+0x3c>
   83d2c:	0025303a 	rdctl	r18,status
   83d30:	00bfff84 	movi	r2,-2
   83d34:	9084703a 	and	r2,r18,r2
   83d38:	1001703a 	wrctl	status,r2
   83d3c:	2809883a 	mov	r4,r5
   83d40:	00820080 	call	82008 <OS_StrLen>
   83d44:	10803fcc 	andi	r2,r2,255
   83d48:	00c007c4 	movi	r3,31
   83d4c:	1880032e 	bgeu	r3,r2,83d5c <OSMemNameSet+0x8c>
   83d50:	9001703a 	wrctl	status,r18
   83d54:	008018c4 	movi	r2,99
   83d58:	003fec06 	br	83d0c <OSMemNameSet+0x3c>
   83d5c:	99000504 	addi	r4,r19,20
   83d60:	800b883a 	mov	r5,r16
   83d64:	0081fdc0 	call	81fdc <OS_StrCopy>
   83d68:	9001703a 	wrctl	status,r18
   83d6c:	88000005 	stb	zero,0(r17)
   83d70:	dfc00417 	ldw	ra,16(sp)
   83d74:	dcc00317 	ldw	r19,12(sp)
   83d78:	dc800217 	ldw	r18,8(sp)
   83d7c:	dc400117 	ldw	r17,4(sp)
   83d80:	dc000017 	ldw	r16,0(sp)
   83d84:	dec00504 	addi	sp,sp,20
   83d88:	f800283a 	ret

00083d8c <OSMemPut>:
   83d8c:	00801804 	movi	r2,96
   83d90:	20001326 	beq	r4,zero,83de0 <OSMemPut+0x54>
   83d94:	008017c4 	movi	r2,95
   83d98:	28001126 	beq	r5,zero,83de0 <OSMemPut+0x54>
   83d9c:	000f303a 	rdctl	r7,status
   83da0:	00bfff84 	movi	r2,-2
   83da4:	3884703a 	and	r2,r7,r2
   83da8:	1001703a 	wrctl	status,r2
   83dac:	20800417 	ldw	r2,16(r4)
   83db0:	20c00317 	ldw	r3,12(r4)
   83db4:	11800044 	addi	r6,r2,1
   83db8:	10c00336 	bltu	r2,r3,83dc8 <OSMemPut+0x3c>
   83dbc:	3801703a 	wrctl	status,r7
   83dc0:	00801784 	movi	r2,94
   83dc4:	f800283a 	ret
   83dc8:	20800117 	ldw	r2,4(r4)
   83dcc:	21800415 	stw	r6,16(r4)
   83dd0:	28800015 	stw	r2,0(r5)
   83dd4:	21400115 	stw	r5,4(r4)
   83dd8:	3801703a 	wrctl	status,r7
   83ddc:	0005883a 	mov	r2,zero
   83de0:	f800283a 	ret

00083de4 <OS_QInit>:
   83de4:	deffff04 	addi	sp,sp,-4
   83de8:	010002b4 	movhi	r4,10
   83dec:	21136f04 	addi	r4,r4,19900
   83df0:	01407804 	movi	r5,480
   83df4:	dfc00015 	stw	ra,0(sp)
   83df8:	0081f9c0 	call	81f9c <OS_MemClr>
   83dfc:	010002b4 	movhi	r4,10
   83e00:	21137504 	addi	r4,r4,19924
   83e04:	20807204 	addi	r2,r4,456
   83e08:	213ffa15 	stw	r4,-24(r4)
   83e0c:	21000604 	addi	r4,r4,24
   83e10:	20bffd1e 	bne	r4,r2,83e08 <OS_QInit+0x24>
   83e14:	20ff8804 	addi	r3,r4,-480
   83e18:	008002b4 	movhi	r2,10
   83e1c:	108c9904 	addi	r2,r2,12900
   83e20:	10c00015 	stw	r3,0(r2)
   83e24:	203ffa15 	stw	zero,-24(r4)
   83e28:	dfc00017 	ldw	ra,0(sp)
   83e2c:	dec00104 	addi	sp,sp,4
   83e30:	f800283a 	ret

00083e34 <OSQQuery>:
   83e34:	2000021e 	bne	r4,zero,83e40 <OSQQuery+0xc>
   83e38:	00800104 	movi	r2,4
   83e3c:	f800283a 	ret
   83e40:	2800021e 	bne	r5,zero,83e4c <OSQQuery+0x18>
   83e44:	00800244 	movi	r2,9
   83e48:	f800283a 	ret
   83e4c:	20c00003 	ldbu	r3,0(r4)
   83e50:	00800084 	movi	r2,2
   83e54:	18800226 	beq	r3,r2,83e60 <OSQQuery+0x2c>
   83e58:	00800044 	movi	r2,1
   83e5c:	f800283a 	ret
   83e60:	0007303a 	rdctl	r3,status
   83e64:	00bfff84 	movi	r2,-2
   83e68:	1884703a 	and	r2,r3,r2
   83e6c:	1001703a 	wrctl	status,r2
   83e70:	20800283 	ldbu	r2,10(r4)
   83e74:	288002c5 	stb	r2,11(r5)
   83e78:	208002c3 	ldbu	r2,11(r4)
   83e7c:	28800205 	stb	r2,8(r5)
   83e80:	20800303 	ldbu	r2,12(r4)
   83e84:	28800245 	stb	r2,9(r5)
   83e88:	20800343 	ldbu	r2,13(r4)
   83e8c:	28800285 	stb	r2,10(r5)
   83e90:	21000117 	ldw	r4,4(r4)
   83e94:	2080058b 	ldhu	r2,22(r4)
   83e98:	10000426 	beq	r2,zero,83eac <OSQQuery+0x78>
   83e9c:	20800417 	ldw	r2,16(r4)
   83ea0:	10800017 	ldw	r2,0(r2)
   83ea4:	28800015 	stw	r2,0(r5)
   83ea8:	00000106 	br	83eb0 <OSQQuery+0x7c>
   83eac:	28000015 	stw	zero,0(r5)
   83eb0:	2080058b 	ldhu	r2,22(r4)
   83eb4:	2880010d 	sth	r2,4(r5)
   83eb8:	2080050b 	ldhu	r2,20(r4)
   83ebc:	2880018d 	sth	r2,6(r5)
   83ec0:	1801703a 	wrctl	status,r3
   83ec4:	0005883a 	mov	r2,zero
   83ec8:	f800283a 	ret

00083ecc <OSQAccept>:
   83ecc:	280f883a 	mov	r7,r5
   83ed0:	2800021e 	bne	r5,zero,83edc <OSQAccept+0x10>
   83ed4:	0009883a 	mov	r4,zero
   83ed8:	00002106 	br	83f60 <OSQAccept+0x94>
   83edc:	2000021e 	bne	r4,zero,83ee8 <OSQAccept+0x1c>
   83ee0:	00800104 	movi	r2,4
   83ee4:	00000506 	br	83efc <OSQAccept+0x30>
   83ee8:	20c00003 	ldbu	r3,0(r4)
   83eec:	00800084 	movi	r2,2
   83ef0:	18800426 	beq	r3,r2,83f04 <OSQAccept+0x38>
   83ef4:	0009883a 	mov	r4,zero
   83ef8:	00800044 	movi	r2,1
   83efc:	38800005 	stb	r2,0(r7)
   83f00:	00001706 	br	83f60 <OSQAccept+0x94>
   83f04:	0011303a 	rdctl	r8,status
   83f08:	00bfff84 	movi	r2,-2
   83f0c:	4084703a 	and	r2,r8,r2
   83f10:	1001703a 	wrctl	status,r2
   83f14:	21800117 	ldw	r6,4(r4)
   83f18:	3080058b 	ldhu	r2,22(r6)
   83f1c:	10000c26 	beq	r2,zero,83f50 <OSQAccept+0x84>
   83f20:	31000417 	ldw	r4,16(r6)
   83f24:	31400217 	ldw	r5,8(r6)
   83f28:	10bfffc4 	addi	r2,r2,-1
   83f2c:	20c00104 	addi	r3,r4,4
   83f30:	3080058d 	sth	r2,22(r6)
   83f34:	30c00415 	stw	r3,16(r6)
   83f38:	21000017 	ldw	r4,0(r4)
   83f3c:	1940021e 	bne	r3,r5,83f48 <OSQAccept+0x7c>
   83f40:	30800117 	ldw	r2,4(r6)
   83f44:	30800415 	stw	r2,16(r6)
   83f48:	38000005 	stb	zero,0(r7)
   83f4c:	00000306 	br	83f5c <OSQAccept+0x90>
   83f50:	008007c4 	movi	r2,31
   83f54:	28800005 	stb	r2,0(r5)
   83f58:	0009883a 	mov	r4,zero
   83f5c:	4001703a 	wrctl	status,r8
   83f60:	2005883a 	mov	r2,r4
   83f64:	f800283a 	ret

00083f68 <OSQCreate>:
   83f68:	defffe04 	addi	sp,sp,-8
   83f6c:	dc000015 	stw	r16,0(sp)
   83f70:	dfc00115 	stw	ra,4(sp)
   83f74:	008002b4 	movhi	r2,10
   83f78:	108c9c04 	addi	r2,r2,12912
   83f7c:	10800003 	ldbu	r2,0(r2)
   83f80:	0021883a 	mov	r16,zero
   83f84:	1000331e 	bne	r2,zero,84054 <OSQCreate+0xec>
   83f88:	0007303a 	rdctl	r3,status
   83f8c:	023fff84 	movi	r8,-2
   83f90:	1a04703a 	and	r2,r3,r8
   83f94:	1001703a 	wrctl	status,r2
   83f98:	018002b4 	movhi	r6,10
   83f9c:	318c9b04 	addi	r6,r6,12908
   83fa0:	34000017 	ldw	r16,0(r6)
   83fa4:	80000b26 	beq	r16,zero,83fd4 <OSQCreate+0x6c>
   83fa8:	80800117 	ldw	r2,4(r16)
   83fac:	30800015 	stw	r2,0(r6)
   83fb0:	1801703a 	wrctl	status,r3
   83fb4:	000f303a 	rdctl	r7,status
   83fb8:	3a04703a 	and	r2,r7,r8
   83fbc:	1001703a 	wrctl	status,r2
   83fc0:	018002b4 	movhi	r6,10
   83fc4:	318c9904 	addi	r6,r6,12900
   83fc8:	30c00017 	ldw	r3,0(r6)
   83fcc:	1800031e 	bne	r3,zero,83fdc <OSQCreate+0x74>
   83fd0:	00001906 	br	84038 <OSQCreate+0xd0>
   83fd4:	1801703a 	wrctl	status,r3
   83fd8:	00001e06 	br	84054 <OSQCreate+0xec>
   83fdc:	18800017 	ldw	r2,0(r3)
   83fe0:	30800015 	stw	r2,0(r6)
   83fe4:	3801703a 	wrctl	status,r7
   83fe8:	28bfffcc 	andi	r2,r5,65535
   83fec:	1085883a 	add	r2,r2,r2
   83ff0:	1085883a 	add	r2,r2,r2
   83ff4:	2085883a 	add	r2,r4,r2
   83ff8:	1940050d 	sth	r5,20(r3)
   83ffc:	18800215 	stw	r2,8(r3)
   84000:	19000415 	stw	r4,16(r3)
   84004:	1800058d 	sth	zero,22(r3)
   84008:	19000115 	stw	r4,4(r3)
   8400c:	19000315 	stw	r4,12(r3)
   84010:	00800084 	movi	r2,2
   84014:	80800005 	stb	r2,0(r16)
   84018:	00800fc4 	movi	r2,63
   8401c:	80c00115 	stw	r3,4(r16)
   84020:	80800385 	stb	r2,14(r16)
   84024:	8000020d 	sth	zero,8(r16)
   84028:	800003c5 	stb	zero,15(r16)
   8402c:	8009883a 	mov	r4,r16
   84030:	0081f800 	call	81f80 <OS_EventWaitListInit>
   84034:	00000706 	br	84054 <OSQCreate+0xec>
   84038:	008002b4 	movhi	r2,10
   8403c:	108c9b04 	addi	r2,r2,12908
   84040:	10c00017 	ldw	r3,0(r2)
   84044:	14000015 	stw	r16,0(r2)
   84048:	80c00115 	stw	r3,4(r16)
   8404c:	3801703a 	wrctl	status,r7
   84050:	0021883a 	mov	r16,zero
   84054:	8005883a 	mov	r2,r16
   84058:	dfc00117 	ldw	ra,4(sp)
   8405c:	dc000017 	ldw	r16,0(sp)
   84060:	dec00204 	addi	sp,sp,8
   84064:	f800283a 	ret

00084068 <OSQDel>:
   84068:	defffb04 	addi	sp,sp,-20
   8406c:	dc400115 	stw	r17,4(sp)
   84070:	dc000015 	stw	r16,0(sp)
   84074:	dfc00415 	stw	ra,16(sp)
   84078:	dcc00315 	stw	r19,12(sp)
   8407c:	dc800215 	stw	r18,8(sp)
   84080:	3023883a 	mov	r17,r6
   84084:	2021883a 	mov	r16,r4
   84088:	30005026 	beq	r6,zero,841cc <OSQDel+0x164>
   8408c:	2000021e 	bne	r4,zero,84098 <OSQDel+0x30>
   84090:	00800104 	movi	r2,4
   84094:	00004c06 	br	841c8 <OSQDel+0x160>
   84098:	20c00003 	ldbu	r3,0(r4)
   8409c:	00800084 	movi	r2,2
   840a0:	18800226 	beq	r3,r2,840ac <OSQDel+0x44>
   840a4:	00800044 	movi	r2,1
   840a8:	00004706 	br	841c8 <OSQDel+0x160>
   840ac:	008002b4 	movhi	r2,10
   840b0:	108c9c04 	addi	r2,r2,12912
   840b4:	10800003 	ldbu	r2,0(r2)
   840b8:	10000226 	beq	r2,zero,840c4 <OSQDel+0x5c>
   840bc:	008003c4 	movi	r2,15
   840c0:	00004106 	br	841c8 <OSQDel+0x160>
   840c4:	0025303a 	rdctl	r18,status
   840c8:	00bfff84 	movi	r2,-2
   840cc:	9084703a 	and	r2,r18,r2
   840d0:	1001703a 	wrctl	status,r2
   840d4:	20800283 	ldbu	r2,10(r4)
   840d8:	29403fcc 	andi	r5,r5,255
   840dc:	1004c03a 	cmpne	r2,r2,zero
   840e0:	1027883a 	mov	r19,r2
   840e4:	28000326 	beq	r5,zero,840f4 <OSQDel+0x8c>
   840e8:	00800044 	movi	r2,1
   840ec:	2880341e 	bne	r5,r2,841c0 <OSQDel+0x158>
   840f0:	00001706 	br	84150 <OSQDel+0xe8>
   840f4:	1000121e 	bne	r2,zero,84140 <OSQDel+0xd8>
   840f8:	00800fc4 	movi	r2,63
   840fc:	20800385 	stb	r2,14(r4)
   84100:	200003c5 	stb	zero,15(r4)
   84104:	010002b4 	movhi	r4,10
   84108:	210c9904 	addi	r4,r4,12900
   8410c:	20800017 	ldw	r2,0(r4)
   84110:	80c00117 	ldw	r3,4(r16)
   84114:	014002b4 	movhi	r5,10
   84118:	294c9b04 	addi	r5,r5,12908
   8411c:	8000020d 	sth	zero,8(r16)
   84120:	18800015 	stw	r2,0(r3)
   84124:	20c00015 	stw	r3,0(r4)
   84128:	80000005 	stb	zero,0(r16)
   8412c:	28800017 	ldw	r2,0(r5)
   84130:	2c000015 	stw	r16,0(r5)
   84134:	80800115 	stw	r2,4(r16)
   84138:	9001703a 	wrctl	status,r18
   8413c:	00001d06 	br	841b4 <OSQDel+0x14c>
   84140:	9001703a 	wrctl	status,r18
   84144:	00801244 	movi	r2,73
   84148:	00001f06 	br	841c8 <OSQDel+0x160>
   8414c:	0081e8c0 	call	81e8c <OS_EventTaskRdy>
   84150:	80800283 	ldbu	r2,10(r16)
   84154:	8009883a 	mov	r4,r16
   84158:	000b883a 	mov	r5,zero
   8415c:	01800104 	movi	r6,4
   84160:	000f883a 	mov	r7,zero
   84164:	103ff91e 	bne	r2,zero,8414c <OSQDel+0xe4>
   84168:	00800fc4 	movi	r2,63
   8416c:	80800385 	stb	r2,14(r16)
   84170:	800003c5 	stb	zero,15(r16)
   84174:	010002b4 	movhi	r4,10
   84178:	210c9904 	addi	r4,r4,12900
   8417c:	20800017 	ldw	r2,0(r4)
   84180:	80c00117 	ldw	r3,4(r16)
   84184:	014002b4 	movhi	r5,10
   84188:	294c9b04 	addi	r5,r5,12908
   8418c:	8000020d 	sth	zero,8(r16)
   84190:	18800015 	stw	r2,0(r3)
   84194:	20c00015 	stw	r3,0(r4)
   84198:	80000005 	stb	zero,0(r16)
   8419c:	28800017 	ldw	r2,0(r5)
   841a0:	2c000015 	stw	r16,0(r5)
   841a4:	80800115 	stw	r2,4(r16)
   841a8:	9001703a 	wrctl	status,r18
   841ac:	98000126 	beq	r19,zero,841b4 <OSQDel+0x14c>
   841b0:	00820ac0 	call	820ac <OS_Sched>
   841b4:	0021883a 	mov	r16,zero
   841b8:	88000005 	stb	zero,0(r17)
   841bc:	00000306 	br	841cc <OSQDel+0x164>
   841c0:	9001703a 	wrctl	status,r18
   841c4:	008001c4 	movi	r2,7
   841c8:	88800005 	stb	r2,0(r17)
   841cc:	8005883a 	mov	r2,r16
   841d0:	dfc00417 	ldw	ra,16(sp)
   841d4:	dcc00317 	ldw	r19,12(sp)
   841d8:	dc800217 	ldw	r18,8(sp)
   841dc:	dc400117 	ldw	r17,4(sp)
   841e0:	dc000017 	ldw	r16,0(sp)
   841e4:	dec00504 	addi	sp,sp,20
   841e8:	f800283a 	ret

000841ec <OSQFlush>:
   841ec:	200b883a 	mov	r5,r4
   841f0:	01000104 	movi	r4,4
   841f4:	28000f26 	beq	r5,zero,84234 <OSQFlush+0x48>
   841f8:	28c00003 	ldbu	r3,0(r5)
   841fc:	00800084 	movi	r2,2
   84200:	01000044 	movi	r4,1
   84204:	18800b1e 	bne	r3,r2,84234 <OSQFlush+0x48>
   84208:	0009303a 	rdctl	r4,status
   8420c:	00bfff84 	movi	r2,-2
   84210:	2084703a 	and	r2,r4,r2
   84214:	1001703a 	wrctl	status,r2
   84218:	28800117 	ldw	r2,4(r5)
   8421c:	10c00117 	ldw	r3,4(r2)
   84220:	1000058d 	sth	zero,22(r2)
   84224:	10c00415 	stw	r3,16(r2)
   84228:	10c00315 	stw	r3,12(r2)
   8422c:	2001703a 	wrctl	status,r4
   84230:	0009883a 	mov	r4,zero
   84234:	2005883a 	mov	r2,r4
   84238:	f800283a 	ret

0008423c <OSQPend>:
   8423c:	defff904 	addi	sp,sp,-28
   84240:	dc800215 	stw	r18,8(sp)
   84244:	dc400115 	stw	r17,4(sp)
   84248:	dfc00615 	stw	ra,24(sp)
   8424c:	dd400515 	stw	r21,20(sp)
   84250:	dd000415 	stw	r20,16(sp)
   84254:	dcc00315 	stw	r19,12(sp)
   84258:	dc000015 	stw	r16,0(sp)
   8425c:	3023883a 	mov	r17,r6
   84260:	2025883a 	mov	r18,r4
   84264:	3000021e 	bne	r6,zero,84270 <OSQPend+0x34>
   84268:	0009883a 	mov	r4,zero
   8426c:	00005906 	br	843d4 <OSQPend+0x198>
   84270:	2000031e 	bne	r4,zero,84280 <OSQPend+0x44>
   84274:	0009883a 	mov	r4,zero
   84278:	00800104 	movi	r2,4
   8427c:	00000506 	br	84294 <OSQPend+0x58>
   84280:	24c00003 	ldbu	r19,0(r4)
   84284:	00800084 	movi	r2,2
   84288:	98800426 	beq	r19,r2,8429c <OSQPend+0x60>
   8428c:	0009883a 	mov	r4,zero
   84290:	00800044 	movi	r2,1
   84294:	88800005 	stb	r2,0(r17)
   84298:	00004e06 	br	843d4 <OSQPend+0x198>
   8429c:	008002b4 	movhi	r2,10
   842a0:	108c9c04 	addi	r2,r2,12912
   842a4:	10800003 	ldbu	r2,0(r2)
   842a8:	10000326 	beq	r2,zero,842b8 <OSQPend+0x7c>
   842ac:	0009883a 	mov	r4,zero
   842b0:	34c00005 	stb	r19,0(r6)
   842b4:	00004706 	br	843d4 <OSQPend+0x198>
   842b8:	008002b4 	movhi	r2,10
   842bc:	108c8b04 	addi	r2,r2,12844
   842c0:	10800003 	ldbu	r2,0(r2)
   842c4:	10000326 	beq	r2,zero,842d4 <OSQPend+0x98>
   842c8:	0009883a 	mov	r4,zero
   842cc:	00800344 	movi	r2,13
   842d0:	003ff006 	br	84294 <OSQPend+0x58>
   842d4:	0029303a 	rdctl	r20,status
   842d8:	057fff84 	movi	r21,-2
   842dc:	a544703a 	and	r2,r20,r21
   842e0:	1001703a 	wrctl	status,r2
   842e4:	21800117 	ldw	r6,4(r4)
   842e8:	3080058b 	ldhu	r2,22(r6)
   842ec:	10000d26 	beq	r2,zero,84324 <OSQPend+0xe8>
   842f0:	31000417 	ldw	r4,16(r6)
   842f4:	31400217 	ldw	r5,8(r6)
   842f8:	10bfffc4 	addi	r2,r2,-1
   842fc:	20c00104 	addi	r3,r4,4
   84300:	3080058d 	sth	r2,22(r6)
   84304:	30c00415 	stw	r3,16(r6)
   84308:	21000017 	ldw	r4,0(r4)
   8430c:	1940021e 	bne	r3,r5,84318 <OSQPend+0xdc>
   84310:	30800117 	ldw	r2,4(r6)
   84314:	30800415 	stw	r2,16(r6)
   84318:	a001703a 	wrctl	status,r20
   8431c:	88000005 	stb	zero,0(r17)
   84320:	00002c06 	br	843d4 <OSQPend+0x198>
   84324:	040002b4 	movhi	r16,10
   84328:	840c9d04 	addi	r16,r16,12916
   8432c:	80c00017 	ldw	r3,0(r16)
   84330:	18800c03 	ldbu	r2,48(r3)
   84334:	10800114 	ori	r2,r2,4
   84338:	18800c05 	stb	r2,48(r3)
   8433c:	80800017 	ldw	r2,0(r16)
   84340:	10000c45 	stb	zero,49(r2)
   84344:	80800017 	ldw	r2,0(r16)
   84348:	11400b8d 	sth	r5,46(r2)
   8434c:	0081cc00 	call	81cc0 <OS_EventTaskWait>
   84350:	a001703a 	wrctl	status,r20
   84354:	00820ac0 	call	820ac <OS_Sched>
   84358:	0029303a 	rdctl	r20,status
   8435c:	a544703a 	and	r2,r20,r21
   84360:	1001703a 	wrctl	status,r2
   84364:	81000017 	ldw	r4,0(r16)
   84368:	20800c43 	ldbu	r2,49(r4)
   8436c:	10000226 	beq	r2,zero,84378 <OSQPend+0x13c>
   84370:	14c0081e 	bne	r2,r19,84394 <OSQPend+0x158>
   84374:	00000306 	br	84384 <OSQPend+0x148>
   84378:	21000917 	ldw	r4,36(r4)
   8437c:	88000005 	stb	zero,0(r17)
   84380:	00000906 	br	843a8 <OSQPend+0x16c>
   84384:	00800384 	movi	r2,14
   84388:	0009883a 	mov	r4,zero
   8438c:	88800005 	stb	r2,0(r17)
   84390:	00000506 	br	843a8 <OSQPend+0x16c>
   84394:	900b883a 	mov	r5,r18
   84398:	0081de40 	call	81de4 <OS_EventTaskRemove>
   8439c:	00800284 	movi	r2,10
   843a0:	88800005 	stb	r2,0(r17)
   843a4:	0009883a 	mov	r4,zero
   843a8:	00c002b4 	movhi	r3,10
   843ac:	18cc9d04 	addi	r3,r3,12916
   843b0:	18800017 	ldw	r2,0(r3)
   843b4:	10000c05 	stb	zero,48(r2)
   843b8:	18800017 	ldw	r2,0(r3)
   843bc:	10000c45 	stb	zero,49(r2)
   843c0:	18800017 	ldw	r2,0(r3)
   843c4:	10000915 	stw	zero,36(r2)
   843c8:	10000715 	stw	zero,28(r2)
   843cc:	10000815 	stw	zero,32(r2)
   843d0:	a001703a 	wrctl	status,r20
   843d4:	2005883a 	mov	r2,r4
   843d8:	dfc00617 	ldw	ra,24(sp)
   843dc:	dd400517 	ldw	r21,20(sp)
   843e0:	dd000417 	ldw	r20,16(sp)
   843e4:	dcc00317 	ldw	r19,12(sp)
   843e8:	dc800217 	ldw	r18,8(sp)
   843ec:	dc400117 	ldw	r17,4(sp)
   843f0:	dc000017 	ldw	r16,0(sp)
   843f4:	dec00704 	addi	sp,sp,28
   843f8:	f800283a 	ret

000843fc <OSQPendAbort>:
   843fc:	defffb04 	addi	sp,sp,-20
   84400:	dc800215 	stw	r18,8(sp)
   84404:	dc000015 	stw	r16,0(sp)
   84408:	dfc00415 	stw	ra,16(sp)
   8440c:	dcc00315 	stw	r19,12(sp)
   84410:	dc400115 	stw	r17,4(sp)
   84414:	3025883a 	mov	r18,r6
   84418:	2021883a 	mov	r16,r4
   8441c:	30002826 	beq	r6,zero,844c0 <OSQPendAbort+0xc4>
   84420:	2000031e 	bne	r4,zero,84430 <OSQPendAbort+0x34>
   84424:	0007883a 	mov	r3,zero
   84428:	00800104 	movi	r2,4
   8442c:	00002006 	br	844b0 <OSQPendAbort+0xb4>
   84430:	21c00003 	ldbu	r7,0(r4)
   84434:	00800084 	movi	r2,2
   84438:	38800326 	beq	r7,r2,84448 <OSQPendAbort+0x4c>
   8443c:	0007883a 	mov	r3,zero
   84440:	00800044 	movi	r2,1
   84444:	00001a06 	br	844b0 <OSQPendAbort+0xb4>
   84448:	0027303a 	rdctl	r19,status
   8444c:	00bfff84 	movi	r2,-2
   84450:	9884703a 	and	r2,r19,r2
   84454:	1001703a 	wrctl	status,r2
   84458:	20800283 	ldbu	r2,10(r4)
   8445c:	10001626 	beq	r2,zero,844b8 <OSQPendAbort+0xbc>
   84460:	28803fcc 	andi	r2,r5,255
   84464:	04400044 	movi	r17,1
   84468:	14400a1e 	bne	r2,r17,84494 <OSQPendAbort+0x98>
   8446c:	0023883a 	mov	r17,zero
   84470:	8009883a 	mov	r4,r16
   84474:	000b883a 	mov	r5,zero
   84478:	01800104 	movi	r6,4
   8447c:	01c00084 	movi	r7,2
   84480:	0081e8c0 	call	81e8c <OS_EventTaskRdy>
   84484:	80800283 	ldbu	r2,10(r16)
   84488:	8c400044 	addi	r17,r17,1
   8448c:	10000426 	beq	r2,zero,844a0 <OSQPendAbort+0xa4>
   84490:	003ff706 	br	84470 <OSQPendAbort+0x74>
   84494:	000b883a 	mov	r5,zero
   84498:	01800104 	movi	r6,4
   8449c:	0081e8c0 	call	81e8c <OS_EventTaskRdy>
   844a0:	9801703a 	wrctl	status,r19
   844a4:	00820ac0 	call	820ac <OS_Sched>
   844a8:	88c03fcc 	andi	r3,r17,255
   844ac:	00800384 	movi	r2,14
   844b0:	90800005 	stb	r2,0(r18)
   844b4:	00000306 	br	844c4 <OSQPendAbort+0xc8>
   844b8:	9801703a 	wrctl	status,r19
   844bc:	30000005 	stb	zero,0(r6)
   844c0:	0007883a 	mov	r3,zero
   844c4:	1805883a 	mov	r2,r3
   844c8:	dfc00417 	ldw	ra,16(sp)
   844cc:	dcc00317 	ldw	r19,12(sp)
   844d0:	dc800217 	ldw	r18,8(sp)
   844d4:	dc400117 	ldw	r17,4(sp)
   844d8:	dc000017 	ldw	r16,0(sp)
   844dc:	dec00504 	addi	sp,sp,20
   844e0:	f800283a 	ret

000844e4 <OSQPost>:
   844e4:	defffe04 	addi	sp,sp,-8
   844e8:	dfc00115 	stw	ra,4(sp)
   844ec:	dc000015 	stw	r16,0(sp)
   844f0:	280f883a 	mov	r7,r5
   844f4:	2000021e 	bne	r4,zero,84500 <OSQPost+0x1c>
   844f8:	00800104 	movi	r2,4
   844fc:	00002406 	br	84590 <OSQPost+0xac>
   84500:	20c00003 	ldbu	r3,0(r4)
   84504:	00800084 	movi	r2,2
   84508:	18800226 	beq	r3,r2,84514 <OSQPost+0x30>
   8450c:	00800044 	movi	r2,1
   84510:	00001f06 	br	84590 <OSQPost+0xac>
   84514:	0021303a 	rdctl	r16,status
   84518:	00bfff84 	movi	r2,-2
   8451c:	8084703a 	and	r2,r16,r2
   84520:	1001703a 	wrctl	status,r2
   84524:	20800283 	ldbu	r2,10(r4)
   84528:	10000626 	beq	r2,zero,84544 <OSQPost+0x60>
   8452c:	01800104 	movi	r6,4
   84530:	000f883a 	mov	r7,zero
   84534:	0081e8c0 	call	81e8c <OS_EventTaskRdy>
   84538:	8001703a 	wrctl	status,r16
   8453c:	00820ac0 	call	820ac <OS_Sched>
   84540:	00001206 	br	8458c <OSQPost+0xa8>
   84544:	21800117 	ldw	r6,4(r4)
   84548:	3100058b 	ldhu	r4,22(r6)
   8454c:	3080050b 	ldhu	r2,20(r6)
   84550:	20800336 	bltu	r4,r2,84560 <OSQPost+0x7c>
   84554:	8001703a 	wrctl	status,r16
   84558:	00800784 	movi	r2,30
   8455c:	00000c06 	br	84590 <OSQPost+0xac>
   84560:	30800317 	ldw	r2,12(r6)
   84564:	31400217 	ldw	r5,8(r6)
   84568:	21000044 	addi	r4,r4,1
   8456c:	10c00104 	addi	r3,r2,4
   84570:	11c00015 	stw	r7,0(r2)
   84574:	3100058d 	sth	r4,22(r6)
   84578:	30c00315 	stw	r3,12(r6)
   8457c:	1940021e 	bne	r3,r5,84588 <OSQPost+0xa4>
   84580:	30800117 	ldw	r2,4(r6)
   84584:	30800315 	stw	r2,12(r6)
   84588:	8001703a 	wrctl	status,r16
   8458c:	0005883a 	mov	r2,zero
   84590:	dfc00117 	ldw	ra,4(sp)
   84594:	dc000017 	ldw	r16,0(sp)
   84598:	dec00204 	addi	sp,sp,8
   8459c:	f800283a 	ret

000845a0 <OSQPostFront>:
   845a0:	defffe04 	addi	sp,sp,-8
   845a4:	dfc00115 	stw	ra,4(sp)
   845a8:	dc000015 	stw	r16,0(sp)
   845ac:	280f883a 	mov	r7,r5
   845b0:	2000021e 	bne	r4,zero,845bc <OSQPostFront+0x1c>
   845b4:	00800104 	movi	r2,4
   845b8:	00002606 	br	84654 <OSQPostFront+0xb4>
   845bc:	20c00003 	ldbu	r3,0(r4)
   845c0:	00800084 	movi	r2,2
   845c4:	18800226 	beq	r3,r2,845d0 <OSQPostFront+0x30>
   845c8:	00800044 	movi	r2,1
   845cc:	00002106 	br	84654 <OSQPostFront+0xb4>
   845d0:	0021303a 	rdctl	r16,status
   845d4:	00bfff84 	movi	r2,-2
   845d8:	8084703a 	and	r2,r16,r2
   845dc:	1001703a 	wrctl	status,r2
   845e0:	20800283 	ldbu	r2,10(r4)
   845e4:	10000626 	beq	r2,zero,84600 <OSQPostFront+0x60>
   845e8:	01800104 	movi	r6,4
   845ec:	000f883a 	mov	r7,zero
   845f0:	0081e8c0 	call	81e8c <OS_EventTaskRdy>
   845f4:	8001703a 	wrctl	status,r16
   845f8:	00820ac0 	call	820ac <OS_Sched>
   845fc:	00001406 	br	84650 <OSQPostFront+0xb0>
   84600:	21400117 	ldw	r5,4(r4)
   84604:	28c0058b 	ldhu	r3,22(r5)
   84608:	2880050b 	ldhu	r2,20(r5)
   8460c:	18800336 	bltu	r3,r2,8461c <OSQPostFront+0x7c>
   84610:	8001703a 	wrctl	status,r16
   84614:	00800784 	movi	r2,30
   84618:	00000e06 	br	84654 <OSQPostFront+0xb4>
   8461c:	28c00417 	ldw	r3,16(r5)
   84620:	28800117 	ldw	r2,4(r5)
   84624:	1880021e 	bne	r3,r2,84630 <OSQPostFront+0x90>
   84628:	28800217 	ldw	r2,8(r5)
   8462c:	28800415 	stw	r2,16(r5)
   84630:	28800417 	ldw	r2,16(r5)
   84634:	28c0058b 	ldhu	r3,22(r5)
   84638:	113fff04 	addi	r4,r2,-4
   8463c:	18c00044 	addi	r3,r3,1
   84640:	11ffff15 	stw	r7,-4(r2)
   84644:	28c0058d 	sth	r3,22(r5)
   84648:	29000415 	stw	r4,16(r5)
   8464c:	8001703a 	wrctl	status,r16
   84650:	0005883a 	mov	r2,zero
   84654:	dfc00117 	ldw	ra,4(sp)
   84658:	dc000017 	ldw	r16,0(sp)
   8465c:	dec00204 	addi	sp,sp,8
   84660:	f800283a 	ret

00084664 <OSQPostOpt>:
   84664:	defffb04 	addi	sp,sp,-20
   84668:	dc800215 	stw	r18,8(sp)
   8466c:	dc400115 	stw	r17,4(sp)
   84670:	dc000015 	stw	r16,0(sp)
   84674:	dfc00415 	stw	ra,16(sp)
   84678:	dcc00315 	stw	r19,12(sp)
   8467c:	2021883a 	mov	r16,r4
   84680:	3023883a 	mov	r17,r6
   84684:	2825883a 	mov	r18,r5
   84688:	2000021e 	bne	r4,zero,84694 <OSQPostOpt+0x30>
   8468c:	00800104 	movi	r2,4
   84690:	00003e06 	br	8478c <OSQPostOpt+0x128>
   84694:	21800003 	ldbu	r6,0(r4)
   84698:	00800084 	movi	r2,2
   8469c:	30800226 	beq	r6,r2,846a8 <OSQPostOpt+0x44>
   846a0:	00800044 	movi	r2,1
   846a4:	00003906 	br	8478c <OSQPostOpt+0x128>
   846a8:	0027303a 	rdctl	r19,status
   846ac:	00bfff84 	movi	r2,-2
   846b0:	9884703a 	and	r2,r19,r2
   846b4:	1001703a 	wrctl	status,r2
   846b8:	20800283 	ldbu	r2,10(r4)
   846bc:	10001326 	beq	r2,zero,8470c <OSQPostOpt+0xa8>
   846c0:	8880004c 	andi	r2,r17,1
   846c4:	1005003a 	cmpeq	r2,r2,zero
   846c8:	1000081e 	bne	r2,zero,846ec <OSQPostOpt+0x88>
   846cc:	8009883a 	mov	r4,r16
   846d0:	900b883a 	mov	r5,r18
   846d4:	01800104 	movi	r6,4
   846d8:	000f883a 	mov	r7,zero
   846dc:	0081e8c0 	call	81e8c <OS_EventTaskRdy>
   846e0:	80800283 	ldbu	r2,10(r16)
   846e4:	10000426 	beq	r2,zero,846f8 <OSQPostOpt+0x94>
   846e8:	003ff806 	br	846cc <OSQPostOpt+0x68>
   846ec:	01800104 	movi	r6,4
   846f0:	000f883a 	mov	r7,zero
   846f4:	0081e8c0 	call	81e8c <OS_EventTaskRdy>
   846f8:	9801703a 	wrctl	status,r19
   846fc:	8880010c 	andi	r2,r17,4
   84700:	1000211e 	bne	r2,zero,84788 <OSQPostOpt+0x124>
   84704:	00820ac0 	call	820ac <OS_Sched>
   84708:	00001f06 	br	84788 <OSQPostOpt+0x124>
   8470c:	21400117 	ldw	r5,4(r4)
   84710:	28c0058b 	ldhu	r3,22(r5)
   84714:	2880050b 	ldhu	r2,20(r5)
   84718:	18800336 	bltu	r3,r2,84728 <OSQPostOpt+0xc4>
   8471c:	9801703a 	wrctl	status,r19
   84720:	00800784 	movi	r2,30
   84724:	00001906 	br	8478c <OSQPostOpt+0x128>
   84728:	3444703a 	and	r2,r6,r17
   8472c:	10000a26 	beq	r2,zero,84758 <OSQPostOpt+0xf4>
   84730:	28c00417 	ldw	r3,16(r5)
   84734:	28800117 	ldw	r2,4(r5)
   84738:	1880021e 	bne	r3,r2,84744 <OSQPostOpt+0xe0>
   8473c:	28800217 	ldw	r2,8(r5)
   84740:	28800415 	stw	r2,16(r5)
   84744:	28800417 	ldw	r2,16(r5)
   84748:	10ffff04 	addi	r3,r2,-4
   8474c:	14bfff15 	stw	r18,-4(r2)
   84750:	28c00415 	stw	r3,16(r5)
   84754:	00000806 	br	84778 <OSQPostOpt+0x114>
   84758:	28800317 	ldw	r2,12(r5)
   8475c:	29000217 	ldw	r4,8(r5)
   84760:	10c00104 	addi	r3,r2,4
   84764:	14800015 	stw	r18,0(r2)
   84768:	28c00315 	stw	r3,12(r5)
   8476c:	1900021e 	bne	r3,r4,84778 <OSQPostOpt+0x114>
   84770:	28800117 	ldw	r2,4(r5)
   84774:	28800315 	stw	r2,12(r5)
   84778:	2880058b 	ldhu	r2,22(r5)
   8477c:	10800044 	addi	r2,r2,1
   84780:	2880058d 	sth	r2,22(r5)
   84784:	9801703a 	wrctl	status,r19
   84788:	0005883a 	mov	r2,zero
   8478c:	dfc00417 	ldw	ra,16(sp)
   84790:	dcc00317 	ldw	r19,12(sp)
   84794:	dc800217 	ldw	r18,8(sp)
   84798:	dc400117 	ldw	r17,4(sp)
   8479c:	dc000017 	ldw	r16,0(sp)
   847a0:	dec00504 	addi	sp,sp,20
   847a4:	f800283a 	ret

000847a8 <OSSemSet>:
   847a8:	30001726 	beq	r6,zero,84808 <OSSemSet+0x60>
   847ac:	2000021e 	bne	r4,zero,847b8 <OSSemSet+0x10>
   847b0:	00800104 	movi	r2,4
   847b4:	00000406 	br	847c8 <OSSemSet+0x20>
   847b8:	20c00003 	ldbu	r3,0(r4)
   847bc:	008000c4 	movi	r2,3
   847c0:	18800326 	beq	r3,r2,847d0 <OSSemSet+0x28>
   847c4:	00800044 	movi	r2,1
   847c8:	30800005 	stb	r2,0(r6)
   847cc:	f800283a 	ret
   847d0:	0007303a 	rdctl	r3,status
   847d4:	00bfff84 	movi	r2,-2
   847d8:	1884703a 	and	r2,r3,r2
   847dc:	1001703a 	wrctl	status,r2
   847e0:	30000005 	stb	zero,0(r6)
   847e4:	2080020b 	ldhu	r2,8(r4)
   847e8:	1000021e 	bne	r2,zero,847f4 <OSSemSet+0x4c>
   847ec:	20800283 	ldbu	r2,10(r4)
   847f0:	1000021e 	bne	r2,zero,847fc <OSSemSet+0x54>
   847f4:	2140020d 	sth	r5,8(r4)
   847f8:	00000206 	br	84804 <OSSemSet+0x5c>
   847fc:	00801244 	movi	r2,73
   84800:	30800005 	stb	r2,0(r6)
   84804:	1801703a 	wrctl	status,r3
   84808:	f800283a 	ret

0008480c <OSSemAccept>:
   8480c:	20000e26 	beq	r4,zero,84848 <OSSemAccept+0x3c>
   84810:	20c00003 	ldbu	r3,0(r4)
   84814:	008000c4 	movi	r2,3
   84818:	18800b1e 	bne	r3,r2,84848 <OSSemAccept+0x3c>
   8481c:	000b303a 	rdctl	r5,status
   84820:	00bfff84 	movi	r2,-2
   84824:	2884703a 	and	r2,r5,r2
   84828:	1001703a 	wrctl	status,r2
   8482c:	2080020b 	ldhu	r2,8(r4)
   84830:	10ffffc4 	addi	r3,r2,-1
   84834:	10bfffcc 	andi	r2,r2,65535
   84838:	10000126 	beq	r2,zero,84840 <OSSemAccept+0x34>
   8483c:	20c0020d 	sth	r3,8(r4)
   84840:	2801703a 	wrctl	status,r5
   84844:	f800283a 	ret
   84848:	0005883a 	mov	r2,zero
   8484c:	f800283a 	ret

00084850 <OSSemCreate>:
   84850:	defffe04 	addi	sp,sp,-8
   84854:	dc000015 	stw	r16,0(sp)
   84858:	dfc00115 	stw	ra,4(sp)
   8485c:	008002b4 	movhi	r2,10
   84860:	108c9c04 	addi	r2,r2,12912
   84864:	10800003 	ldbu	r2,0(r2)
   84868:	0021883a 	mov	r16,zero
   8486c:	1000161e 	bne	r2,zero,848c8 <OSSemCreate+0x78>
   84870:	0007303a 	rdctl	r3,status
   84874:	00bfff84 	movi	r2,-2
   84878:	1884703a 	and	r2,r3,r2
   8487c:	1001703a 	wrctl	status,r2
   84880:	014002b4 	movhi	r5,10
   84884:	294c9b04 	addi	r5,r5,12908
   84888:	2c000017 	ldw	r16,0(r5)
   8488c:	80000d26 	beq	r16,zero,848c4 <OSSemCreate+0x74>
   84890:	80800117 	ldw	r2,4(r16)
   84894:	28800015 	stw	r2,0(r5)
   84898:	1801703a 	wrctl	status,r3
   8489c:	008000c4 	movi	r2,3
   848a0:	80800005 	stb	r2,0(r16)
   848a4:	00800fc4 	movi	r2,63
   848a8:	8100020d 	sth	r4,8(r16)
   848ac:	80800385 	stb	r2,14(r16)
   848b0:	80000115 	stw	zero,4(r16)
   848b4:	800003c5 	stb	zero,15(r16)
   848b8:	8009883a 	mov	r4,r16
   848bc:	0081f800 	call	81f80 <OS_EventWaitListInit>
   848c0:	00000106 	br	848c8 <OSSemCreate+0x78>
   848c4:	1801703a 	wrctl	status,r3
   848c8:	8005883a 	mov	r2,r16
   848cc:	dfc00117 	ldw	ra,4(sp)
   848d0:	dc000017 	ldw	r16,0(sp)
   848d4:	dec00204 	addi	sp,sp,8
   848d8:	f800283a 	ret

000848dc <OSSemDel>:
   848dc:	defffb04 	addi	sp,sp,-20
   848e0:	dc400115 	stw	r17,4(sp)
   848e4:	dc000015 	stw	r16,0(sp)
   848e8:	dfc00415 	stw	ra,16(sp)
   848ec:	dcc00315 	stw	r19,12(sp)
   848f0:	dc800215 	stw	r18,8(sp)
   848f4:	3023883a 	mov	r17,r6
   848f8:	2021883a 	mov	r16,r4
   848fc:	30004426 	beq	r6,zero,84a10 <OSSemDel+0x134>
   84900:	2000021e 	bne	r4,zero,8490c <OSSemDel+0x30>
   84904:	00800104 	movi	r2,4
   84908:	00004006 	br	84a0c <OSSemDel+0x130>
   8490c:	20c00003 	ldbu	r3,0(r4)
   84910:	008000c4 	movi	r2,3
   84914:	18800226 	beq	r3,r2,84920 <OSSemDel+0x44>
   84918:	00800044 	movi	r2,1
   8491c:	00003b06 	br	84a0c <OSSemDel+0x130>
   84920:	008002b4 	movhi	r2,10
   84924:	108c9c04 	addi	r2,r2,12912
   84928:	10800003 	ldbu	r2,0(r2)
   8492c:	10000226 	beq	r2,zero,84938 <OSSemDel+0x5c>
   84930:	008003c4 	movi	r2,15
   84934:	00003506 	br	84a0c <OSSemDel+0x130>
   84938:	0025303a 	rdctl	r18,status
   8493c:	00bfff84 	movi	r2,-2
   84940:	9084703a 	and	r2,r18,r2
   84944:	1001703a 	wrctl	status,r2
   84948:	20800283 	ldbu	r2,10(r4)
   8494c:	29403fcc 	andi	r5,r5,255
   84950:	1004c03a 	cmpne	r2,r2,zero
   84954:	1027883a 	mov	r19,r2
   84958:	28000326 	beq	r5,zero,84968 <OSSemDel+0x8c>
   8495c:	00800044 	movi	r2,1
   84960:	2880281e 	bne	r5,r2,84a04 <OSSemDel+0x128>
   84964:	00001106 	br	849ac <OSSemDel+0xd0>
   84968:	10000c1e 	bne	r2,zero,8499c <OSSemDel+0xc0>
   8496c:	00800fc4 	movi	r2,63
   84970:	20800385 	stb	r2,14(r4)
   84974:	200003c5 	stb	zero,15(r4)
   84978:	20000005 	stb	zero,0(r4)
   8497c:	008002b4 	movhi	r2,10
   84980:	108c9b04 	addi	r2,r2,12908
   84984:	10c00017 	ldw	r3,0(r2)
   84988:	2000020d 	sth	zero,8(r4)
   8498c:	11000015 	stw	r4,0(r2)
   84990:	20c00115 	stw	r3,4(r4)
   84994:	9001703a 	wrctl	status,r18
   84998:	00001706 	br	849f8 <OSSemDel+0x11c>
   8499c:	9001703a 	wrctl	status,r18
   849a0:	00801244 	movi	r2,73
   849a4:	00001906 	br	84a0c <OSSemDel+0x130>
   849a8:	0081e8c0 	call	81e8c <OS_EventTaskRdy>
   849ac:	80800283 	ldbu	r2,10(r16)
   849b0:	8009883a 	mov	r4,r16
   849b4:	000b883a 	mov	r5,zero
   849b8:	01800044 	movi	r6,1
   849bc:	000f883a 	mov	r7,zero
   849c0:	103ff91e 	bne	r2,zero,849a8 <OSSemDel+0xcc>
   849c4:	00800fc4 	movi	r2,63
   849c8:	80800385 	stb	r2,14(r16)
   849cc:	800003c5 	stb	zero,15(r16)
   849d0:	80000005 	stb	zero,0(r16)
   849d4:	008002b4 	movhi	r2,10
   849d8:	108c9b04 	addi	r2,r2,12908
   849dc:	10c00017 	ldw	r3,0(r2)
   849e0:	8000020d 	sth	zero,8(r16)
   849e4:	14000015 	stw	r16,0(r2)
   849e8:	80c00115 	stw	r3,4(r16)
   849ec:	9001703a 	wrctl	status,r18
   849f0:	98000126 	beq	r19,zero,849f8 <OSSemDel+0x11c>
   849f4:	00820ac0 	call	820ac <OS_Sched>
   849f8:	0021883a 	mov	r16,zero
   849fc:	88000005 	stb	zero,0(r17)
   84a00:	00000306 	br	84a10 <OSSemDel+0x134>
   84a04:	9001703a 	wrctl	status,r18
   84a08:	008001c4 	movi	r2,7
   84a0c:	88800005 	stb	r2,0(r17)
   84a10:	8005883a 	mov	r2,r16
   84a14:	dfc00417 	ldw	ra,16(sp)
   84a18:	dcc00317 	ldw	r19,12(sp)
   84a1c:	dc800217 	ldw	r18,8(sp)
   84a20:	dc400117 	ldw	r17,4(sp)
   84a24:	dc000017 	ldw	r16,0(sp)
   84a28:	dec00504 	addi	sp,sp,20
   84a2c:	f800283a 	ret

00084a30 <OSSemPend>:
   84a30:	defffa04 	addi	sp,sp,-24
   84a34:	dc800215 	stw	r18,8(sp)
   84a38:	dc400115 	stw	r17,4(sp)
   84a3c:	dfc00515 	stw	ra,20(sp)
   84a40:	dd000415 	stw	r20,16(sp)
   84a44:	dcc00315 	stw	r19,12(sp)
   84a48:	dc000015 	stw	r16,0(sp)
   84a4c:	3023883a 	mov	r17,r6
   84a50:	2025883a 	mov	r18,r4
   84a54:	30004826 	beq	r6,zero,84b78 <OSSemPend+0x148>
   84a58:	2000021e 	bne	r4,zero,84a64 <OSSemPend+0x34>
   84a5c:	00800104 	movi	r2,4
   84a60:	00000406 	br	84a74 <OSSemPend+0x44>
   84a64:	20c00003 	ldbu	r3,0(r4)
   84a68:	008000c4 	movi	r2,3
   84a6c:	18800326 	beq	r3,r2,84a7c <OSSemPend+0x4c>
   84a70:	00800044 	movi	r2,1
   84a74:	88800005 	stb	r2,0(r17)
   84a78:	00003f06 	br	84b78 <OSSemPend+0x148>
   84a7c:	008002b4 	movhi	r2,10
   84a80:	108c9c04 	addi	r2,r2,12912
   84a84:	10800003 	ldbu	r2,0(r2)
   84a88:	10000226 	beq	r2,zero,84a94 <OSSemPend+0x64>
   84a8c:	00800084 	movi	r2,2
   84a90:	003ff806 	br	84a74 <OSSemPend+0x44>
   84a94:	008002b4 	movhi	r2,10
   84a98:	108c8b04 	addi	r2,r2,12844
   84a9c:	10800003 	ldbu	r2,0(r2)
   84aa0:	10000226 	beq	r2,zero,84aac <OSSemPend+0x7c>
   84aa4:	00800344 	movi	r2,13
   84aa8:	003ff206 	br	84a74 <OSSemPend+0x44>
   84aac:	0027303a 	rdctl	r19,status
   84ab0:	053fff84 	movi	r20,-2
   84ab4:	9d04703a 	and	r2,r19,r20
   84ab8:	1001703a 	wrctl	status,r2
   84abc:	2080020b 	ldhu	r2,8(r4)
   84ac0:	10000526 	beq	r2,zero,84ad8 <OSSemPend+0xa8>
   84ac4:	10bfffc4 	addi	r2,r2,-1
   84ac8:	2080020d 	sth	r2,8(r4)
   84acc:	9801703a 	wrctl	status,r19
   84ad0:	30000005 	stb	zero,0(r6)
   84ad4:	00002806 	br	84b78 <OSSemPend+0x148>
   84ad8:	040002b4 	movhi	r16,10
   84adc:	840c9d04 	addi	r16,r16,12916
   84ae0:	80c00017 	ldw	r3,0(r16)
   84ae4:	18800c03 	ldbu	r2,48(r3)
   84ae8:	10800054 	ori	r2,r2,1
   84aec:	18800c05 	stb	r2,48(r3)
   84af0:	80800017 	ldw	r2,0(r16)
   84af4:	10000c45 	stb	zero,49(r2)
   84af8:	80800017 	ldw	r2,0(r16)
   84afc:	11400b8d 	sth	r5,46(r2)
   84b00:	0081cc00 	call	81cc0 <OS_EventTaskWait>
   84b04:	9801703a 	wrctl	status,r19
   84b08:	00820ac0 	call	820ac <OS_Sched>
   84b0c:	0027303a 	rdctl	r19,status
   84b10:	9d04703a 	and	r2,r19,r20
   84b14:	1001703a 	wrctl	status,r2
   84b18:	81000017 	ldw	r4,0(r16)
   84b1c:	20c00c43 	ldbu	r3,49(r4)
   84b20:	18000326 	beq	r3,zero,84b30 <OSSemPend+0x100>
   84b24:	00800084 	movi	r2,2
   84b28:	1880051e 	bne	r3,r2,84b40 <OSSemPend+0x110>
   84b2c:	00000206 	br	84b38 <OSSemPend+0x108>
   84b30:	88000005 	stb	zero,0(r17)
   84b34:	00000606 	br	84b50 <OSSemPend+0x120>
   84b38:	00800384 	movi	r2,14
   84b3c:	00000306 	br	84b4c <OSSemPend+0x11c>
   84b40:	900b883a 	mov	r5,r18
   84b44:	0081de40 	call	81de4 <OS_EventTaskRemove>
   84b48:	00800284 	movi	r2,10
   84b4c:	88800005 	stb	r2,0(r17)
   84b50:	00c002b4 	movhi	r3,10
   84b54:	18cc9d04 	addi	r3,r3,12916
   84b58:	18800017 	ldw	r2,0(r3)
   84b5c:	10000c05 	stb	zero,48(r2)
   84b60:	18800017 	ldw	r2,0(r3)
   84b64:	10000c45 	stb	zero,49(r2)
   84b68:	18800017 	ldw	r2,0(r3)
   84b6c:	10000815 	stw	zero,32(r2)
   84b70:	10000715 	stw	zero,28(r2)
   84b74:	9801703a 	wrctl	status,r19
   84b78:	dfc00517 	ldw	ra,20(sp)
   84b7c:	dd000417 	ldw	r20,16(sp)
   84b80:	dcc00317 	ldw	r19,12(sp)
   84b84:	dc800217 	ldw	r18,8(sp)
   84b88:	dc400117 	ldw	r17,4(sp)
   84b8c:	dc000017 	ldw	r16,0(sp)
   84b90:	dec00604 	addi	sp,sp,24
   84b94:	f800283a 	ret

00084b98 <OSSemPendAbort>:
   84b98:	defffb04 	addi	sp,sp,-20
   84b9c:	dc800215 	stw	r18,8(sp)
   84ba0:	dc400115 	stw	r17,4(sp)
   84ba4:	dfc00415 	stw	ra,16(sp)
   84ba8:	dcc00315 	stw	r19,12(sp)
   84bac:	dc000015 	stw	r16,0(sp)
   84bb0:	3025883a 	mov	r18,r6
   84bb4:	2023883a 	mov	r17,r4
   84bb8:	30002926 	beq	r6,zero,84c60 <OSSemPendAbort+0xc8>
   84bbc:	2000031e 	bne	r4,zero,84bcc <OSSemPendAbort+0x34>
   84bc0:	0007883a 	mov	r3,zero
   84bc4:	00800104 	movi	r2,4
   84bc8:	00002106 	br	84c50 <OSSemPendAbort+0xb8>
   84bcc:	20c00003 	ldbu	r3,0(r4)
   84bd0:	008000c4 	movi	r2,3
   84bd4:	18800326 	beq	r3,r2,84be4 <OSSemPendAbort+0x4c>
   84bd8:	0007883a 	mov	r3,zero
   84bdc:	00800044 	movi	r2,1
   84be0:	00001b06 	br	84c50 <OSSemPendAbort+0xb8>
   84be4:	0027303a 	rdctl	r19,status
   84be8:	00bfff84 	movi	r2,-2
   84bec:	9884703a 	and	r2,r19,r2
   84bf0:	1001703a 	wrctl	status,r2
   84bf4:	20800283 	ldbu	r2,10(r4)
   84bf8:	10001726 	beq	r2,zero,84c58 <OSSemPendAbort+0xc0>
   84bfc:	28803fcc 	andi	r2,r5,255
   84c00:	04000044 	movi	r16,1
   84c04:	14000a1e 	bne	r2,r16,84c30 <OSSemPendAbort+0x98>
   84c08:	0021883a 	mov	r16,zero
   84c0c:	8809883a 	mov	r4,r17
   84c10:	000b883a 	mov	r5,zero
   84c14:	01800044 	movi	r6,1
   84c18:	01c00084 	movi	r7,2
   84c1c:	0081e8c0 	call	81e8c <OS_EventTaskRdy>
   84c20:	88800283 	ldbu	r2,10(r17)
   84c24:	84000044 	addi	r16,r16,1
   84c28:	10000526 	beq	r2,zero,84c40 <OSSemPendAbort+0xa8>
   84c2c:	003ff706 	br	84c0c <OSSemPendAbort+0x74>
   84c30:	000b883a 	mov	r5,zero
   84c34:	800d883a 	mov	r6,r16
   84c38:	01c00084 	movi	r7,2
   84c3c:	0081e8c0 	call	81e8c <OS_EventTaskRdy>
   84c40:	9801703a 	wrctl	status,r19
   84c44:	00820ac0 	call	820ac <OS_Sched>
   84c48:	80c03fcc 	andi	r3,r16,255
   84c4c:	00800384 	movi	r2,14
   84c50:	90800005 	stb	r2,0(r18)
   84c54:	00000306 	br	84c64 <OSSemPendAbort+0xcc>
   84c58:	9801703a 	wrctl	status,r19
   84c5c:	30000005 	stb	zero,0(r6)
   84c60:	0007883a 	mov	r3,zero
   84c64:	1805883a 	mov	r2,r3
   84c68:	dfc00417 	ldw	ra,16(sp)
   84c6c:	dcc00317 	ldw	r19,12(sp)
   84c70:	dc800217 	ldw	r18,8(sp)
   84c74:	dc400117 	ldw	r17,4(sp)
   84c78:	dc000017 	ldw	r16,0(sp)
   84c7c:	dec00504 	addi	sp,sp,20
   84c80:	f800283a 	ret

00084c84 <OSSemPost>:
   84c84:	defffe04 	addi	sp,sp,-8
   84c88:	dfc00115 	stw	ra,4(sp)
   84c8c:	dc000015 	stw	r16,0(sp)
   84c90:	2011883a 	mov	r8,r4
   84c94:	01400104 	movi	r5,4
   84c98:	20001c26 	beq	r4,zero,84d0c <OSSemPost+0x88>
   84c9c:	20c00003 	ldbu	r3,0(r4)
   84ca0:	008000c4 	movi	r2,3
   84ca4:	01400044 	movi	r5,1
   84ca8:	1880181e 	bne	r3,r2,84d0c <OSSemPost+0x88>
   84cac:	0021303a 	rdctl	r16,status
   84cb0:	00bfff84 	movi	r2,-2
   84cb4:	8084703a 	and	r2,r16,r2
   84cb8:	1001703a 	wrctl	status,r2
   84cbc:	20800283 	ldbu	r2,10(r4)
   84cc0:	000b883a 	mov	r5,zero
   84cc4:	01800044 	movi	r6,1
   84cc8:	000f883a 	mov	r7,zero
   84ccc:	10000426 	beq	r2,zero,84ce0 <OSSemPost+0x5c>
   84cd0:	0081e8c0 	call	81e8c <OS_EventTaskRdy>
   84cd4:	8001703a 	wrctl	status,r16
   84cd8:	00820ac0 	call	820ac <OS_Sched>
   84cdc:	00000706 	br	84cfc <OSSemPost+0x78>
   84ce0:	2080020b 	ldhu	r2,8(r4)
   84ce4:	00ffffd4 	movui	r3,65535
   84ce8:	11000044 	addi	r4,r2,1
   84cec:	10bfffcc 	andi	r2,r2,65535
   84cf0:	10c00426 	beq	r2,r3,84d04 <OSSemPost+0x80>
   84cf4:	4100020d 	sth	r4,8(r8)
   84cf8:	8001703a 	wrctl	status,r16
   84cfc:	000b883a 	mov	r5,zero
   84d00:	00000206 	br	84d0c <OSSemPost+0x88>
   84d04:	8001703a 	wrctl	status,r16
   84d08:	01400c84 	movi	r5,50
   84d0c:	2805883a 	mov	r2,r5
   84d10:	dfc00117 	ldw	ra,4(sp)
   84d14:	dc000017 	ldw	r16,0(sp)
   84d18:	dec00204 	addi	sp,sp,8
   84d1c:	f800283a 	ret

00084d20 <OSSemQuery>:
   84d20:	01800104 	movi	r6,4
   84d24:	20001626 	beq	r4,zero,84d80 <OSSemQuery+0x60>
   84d28:	01800244 	movi	r6,9
   84d2c:	28001426 	beq	r5,zero,84d80 <OSSemQuery+0x60>
   84d30:	20c00003 	ldbu	r3,0(r4)
   84d34:	008000c4 	movi	r2,3
   84d38:	01800044 	movi	r6,1
   84d3c:	1880101e 	bne	r3,r2,84d80 <OSSemQuery+0x60>
   84d40:	0007303a 	rdctl	r3,status
   84d44:	00bfff84 	movi	r2,-2
   84d48:	1884703a 	and	r2,r3,r2
   84d4c:	1001703a 	wrctl	status,r2
   84d50:	20800283 	ldbu	r2,10(r4)
   84d54:	28800145 	stb	r2,5(r5)
   84d58:	208002c3 	ldbu	r2,11(r4)
   84d5c:	28800085 	stb	r2,2(r5)
   84d60:	20800303 	ldbu	r2,12(r4)
   84d64:	288000c5 	stb	r2,3(r5)
   84d68:	20800343 	ldbu	r2,13(r4)
   84d6c:	28800105 	stb	r2,4(r5)
   84d70:	2080020b 	ldhu	r2,8(r4)
   84d74:	2880000d 	sth	r2,0(r5)
   84d78:	1801703a 	wrctl	status,r3
   84d7c:	000d883a 	mov	r6,zero
   84d80:	3005883a 	mov	r2,r6
   84d84:	f800283a 	ret

00084d88 <OS_TaskStkClr>:
   84d88:	31bfffcc 	andi	r6,r6,65535
   84d8c:	3080004c 	andi	r2,r6,1
   84d90:	1005003a 	cmpeq	r2,r2,zero
   84d94:	1000071e 	bne	r2,zero,84db4 <OS_TaskStkClr+0x2c>
   84d98:	3080008c 	andi	r2,r6,2
   84d9c:	1000041e 	bne	r2,zero,84db0 <OS_TaskStkClr+0x28>
   84da0:	f800283a 	ret
   84da4:	20000015 	stw	zero,0(r4)
   84da8:	297fffc4 	addi	r5,r5,-1
   84dac:	21000104 	addi	r4,r4,4
   84db0:	283ffc1e 	bne	r5,zero,84da4 <OS_TaskStkClr+0x1c>
   84db4:	f800283a 	ret

00084db8 <OSTaskQuery>:
   84db8:	defffe04 	addi	sp,sp,-8
   84dbc:	20c03fcc 	andi	r3,r4,255
   84dc0:	00800504 	movi	r2,20
   84dc4:	dfc00115 	stw	ra,4(sp)
   84dc8:	dc000015 	stw	r16,0(sp)
   84dcc:	280d883a 	mov	r6,r5
   84dd0:	10c0042e 	bgeu	r2,r3,84de4 <OSTaskQuery+0x2c>
   84dd4:	00803fc4 	movi	r2,255
   84dd8:	18800226 	beq	r3,r2,84de4 <OSTaskQuery+0x2c>
   84ddc:	00800a84 	movi	r2,42
   84de0:	00002306 	br	84e70 <OSTaskQuery+0xb8>
   84de4:	3000021e 	bne	r6,zero,84df0 <OSTaskQuery+0x38>
   84de8:	00800244 	movi	r2,9
   84dec:	00002006 	br	84e70 <OSTaskQuery+0xb8>
   84df0:	0021303a 	rdctl	r16,status
   84df4:	00bfff84 	movi	r2,-2
   84df8:	8084703a 	and	r2,r16,r2
   84dfc:	1001703a 	wrctl	status,r2
   84e00:	20c03fcc 	andi	r3,r4,255
   84e04:	00803fc4 	movi	r2,255
   84e08:	1880041e 	bne	r3,r2,84e1c <OSTaskQuery+0x64>
   84e0c:	008002b4 	movhi	r2,10
   84e10:	108c9d04 	addi	r2,r2,12916
   84e14:	10800017 	ldw	r2,0(r2)
   84e18:	11000c83 	ldbu	r4,50(r2)
   84e1c:	20803fcc 	andi	r2,r4,255
   84e20:	1085883a 	add	r2,r2,r2
   84e24:	1085883a 	add	r2,r2,r2
   84e28:	00c002b4 	movhi	r3,10
   84e2c:	18dbfb04 	addi	r3,r3,28652
   84e30:	10c5883a 	add	r2,r2,r3
   84e34:	11400017 	ldw	r5,0(r2)
   84e38:	2800031e 	bne	r5,zero,84e48 <OSTaskQuery+0x90>
   84e3c:	8001703a 	wrctl	status,r16
   84e40:	00800a44 	movi	r2,41
   84e44:	00000a06 	br	84e70 <OSTaskQuery+0xb8>
   84e48:	00800044 	movi	r2,1
   84e4c:	2880031e 	bne	r5,r2,84e5c <OSTaskQuery+0xa4>
   84e50:	8001703a 	wrctl	status,r16
   84e54:	008010c4 	movi	r2,67
   84e58:	00000506 	br	84e70 <OSTaskQuery+0xb8>
   84e5c:	3009883a 	mov	r4,r6
   84e60:	01801b04 	movi	r6,108
   84e64:	0081fb80 	call	81fb8 <OS_MemCopy>
   84e68:	8001703a 	wrctl	status,r16
   84e6c:	0005883a 	mov	r2,zero
   84e70:	dfc00117 	ldw	ra,4(sp)
   84e74:	dc000017 	ldw	r16,0(sp)
   84e78:	dec00204 	addi	sp,sp,8
   84e7c:	f800283a 	ret

00084e80 <OSTaskChangePrio>:
   84e80:	defffa04 	addi	sp,sp,-24
   84e84:	20c03fcc 	andi	r3,r4,255
   84e88:	018004c4 	movi	r6,19
   84e8c:	dd000415 	stw	r20,16(sp)
   84e90:	dfc00515 	stw	ra,20(sp)
   84e94:	dcc00315 	stw	r19,12(sp)
   84e98:	dc800215 	stw	r18,8(sp)
   84e9c:	dc400115 	stw	r17,4(sp)
   84ea0:	dc000015 	stw	r16,0(sp)
   84ea4:	2829883a 	mov	r20,r5
   84ea8:	30c0022e 	bgeu	r6,r3,84eb4 <OSTaskChangePrio+0x34>
   84eac:	00803fc4 	movi	r2,255
   84eb0:	1880911e 	bne	r3,r2,850f8 <OSTaskChangePrio+0x278>
   84eb4:	a1c03fcc 	andi	r7,r20,255
   84eb8:	31c08f36 	bltu	r6,r7,850f8 <OSTaskChangePrio+0x278>
   84ebc:	0023303a 	rdctl	r17,status
   84ec0:	00bfff84 	movi	r2,-2
   84ec4:	8884703a 	and	r2,r17,r2
   84ec8:	1001703a 	wrctl	status,r2
   84ecc:	39c5883a 	add	r2,r7,r7
   84ed0:	1085883a 	add	r2,r2,r2
   84ed4:	018002b4 	movhi	r6,10
   84ed8:	319bfb04 	addi	r6,r6,28652
   84edc:	1191883a 	add	r8,r2,r6
   84ee0:	40800017 	ldw	r2,0(r8)
   84ee4:	10000326 	beq	r2,zero,84ef4 <OSTaskChangePrio+0x74>
   84ee8:	8801703a 	wrctl	status,r17
   84eec:	00800a04 	movi	r2,40
   84ef0:	00008206 	br	850fc <OSTaskChangePrio+0x27c>
   84ef4:	00803fc4 	movi	r2,255
   84ef8:	1880041e 	bne	r3,r2,84f0c <OSTaskChangePrio+0x8c>
   84efc:	008002b4 	movhi	r2,10
   84f00:	108c9d04 	addi	r2,r2,12916
   84f04:	10800017 	ldw	r2,0(r2)
   84f08:	11000c83 	ldbu	r4,50(r2)
   84f0c:	20803fcc 	andi	r2,r4,255
   84f10:	1085883a 	add	r2,r2,r2
   84f14:	1085883a 	add	r2,r2,r2
   84f18:	1185883a 	add	r2,r2,r6
   84f1c:	11800017 	ldw	r6,0(r2)
   84f20:	3000031e 	bne	r6,zero,84f30 <OSTaskChangePrio+0xb0>
   84f24:	8801703a 	wrctl	status,r17
   84f28:	00800a44 	movi	r2,41
   84f2c:	00007306 	br	850fc <OSTaskChangePrio+0x27c>
   84f30:	00c00044 	movi	r3,1
   84f34:	30c0031e 	bne	r6,r3,84f44 <OSTaskChangePrio+0xc4>
   84f38:	8801703a 	wrctl	status,r17
   84f3c:	008010c4 	movi	r2,67
   84f40:	00006e06 	br	850fc <OSTaskChangePrio+0x27c>
   84f44:	10000015 	stw	zero,0(r2)
   84f48:	41800015 	stw	r6,0(r8)
   84f4c:	33c00d03 	ldbu	r15,52(r6)
   84f50:	3826d0fa 	srli	r19,r7,3
   84f54:	040002b4 	movhi	r16,10
   84f58:	840c9a44 	addi	r16,r16,12905
   84f5c:	7c13883a 	add	r9,r15,r16
   84f60:	2c8001cc 	andi	r18,r5,7
   84f64:	31c00d43 	ldbu	r7,53(r6)
   84f68:	49000003 	ldbu	r4,0(r9)
   84f6c:	90803fcc 	andi	r2,r18,255
   84f70:	9ac03fcc 	andi	r11,r19,255
   84f74:	1898983a 	sll	r12,r3,r2
   84f78:	1ad4983a 	sll	r10,r3,r11
   84f7c:	21c4703a 	and	r2,r4,r7
   84f80:	10803fcc 	andi	r2,r2,255
   84f84:	501d883a 	mov	r14,r10
   84f88:	601b883a 	mov	r13,r12
   84f8c:	32000d83 	ldbu	r8,54(r6)
   84f90:	10001626 	beq	r2,zero,84fec <OSTaskChangePrio+0x16c>
   84f94:	01c4303a 	nor	r2,zero,r7
   84f98:	1104703a 	and	r2,r2,r4
   84f9c:	10c03fcc 	andi	r3,r2,255
   84fa0:	18c0201c 	xori	r3,r3,128
   84fa4:	18ffe004 	addi	r3,r3,-128
   84fa8:	48800005 	stb	r2,0(r9)
   84fac:	1800061e 	bne	r3,zero,84fc8 <OSTaskChangePrio+0x148>
   84fb0:	010002b4 	movhi	r4,10
   84fb4:	210c9a04 	addi	r4,r4,12904
   84fb8:	20c00003 	ldbu	r3,0(r4)
   84fbc:	0204303a 	nor	r2,zero,r8
   84fc0:	10c4703a 	and	r2,r2,r3
   84fc4:	20800005 	stb	r2,0(r4)
   84fc8:	5c0b883a 	add	r5,r11,r16
   84fcc:	010002b4 	movhi	r4,10
   84fd0:	210c9a04 	addi	r4,r4,12904
   84fd4:	20800003 	ldbu	r2,0(r4)
   84fd8:	28c00003 	ldbu	r3,0(r5)
   84fdc:	5084b03a 	or	r2,r10,r2
   84fe0:	60c6b03a 	or	r3,r12,r3
   84fe4:	20800005 	stb	r2,0(r4)
   84fe8:	28c00005 	stb	r3,0(r5)
   84fec:	31400717 	ldw	r5,28(r6)
   84ff0:	28001626 	beq	r5,zero,8504c <OSTaskChangePrio+0x1cc>
   84ff4:	7947883a 	add	r3,r15,r5
   84ff8:	18c00204 	addi	r3,r3,8
   84ffc:	190000c3 	ldbu	r4,3(r3)
   85000:	01c4303a 	nor	r2,zero,r7
   85004:	1104703a 	and	r2,r2,r4
   85008:	11003fcc 	andi	r4,r2,255
   8500c:	2100201c 	xori	r4,r4,128
   85010:	213fe004 	addi	r4,r4,-128
   85014:	188000c5 	stb	r2,3(r3)
   85018:	2000041e 	bne	r4,zero,8502c <OSTaskChangePrio+0x1ac>
   8501c:	28c00283 	ldbu	r3,10(r5)
   85020:	0204303a 	nor	r2,zero,r8
   85024:	10c4703a 	and	r2,r2,r3
   85028:	28800285 	stb	r2,10(r5)
   8502c:	5945883a 	add	r2,r11,r5
   85030:	10800204 	addi	r2,r2,8
   85034:	29000283 	ldbu	r4,10(r5)
   85038:	10c000c3 	ldbu	r3,3(r2)
   8503c:	2388b03a 	or	r4,r4,r14
   85040:	1b46b03a 	or	r3,r3,r13
   85044:	10c000c5 	stb	r3,3(r2)
   85048:	29000285 	stb	r4,10(r5)
   8504c:	31400817 	ldw	r5,32(r6)
   85050:	28001b26 	beq	r5,zero,850c0 <OSTaskChangePrio+0x240>
   85054:	29000017 	ldw	r4,0(r5)
   85058:	01d4303a 	nor	r10,zero,r7
   8505c:	0212303a 	nor	r9,zero,r8
   85060:	00001106 	br	850a8 <OSTaskChangePrio+0x228>
   85064:	388000c3 	ldbu	r2,3(r7)
   85068:	5084703a 	and	r2,r10,r2
   8506c:	10c03fcc 	andi	r3,r2,255
   85070:	18c0201c 	xori	r3,r3,128
   85074:	18ffe004 	addi	r3,r3,-128
   85078:	388000c5 	stb	r2,3(r7)
   8507c:	1800031e 	bne	r3,zero,8508c <OSTaskChangePrio+0x20c>
   85080:	20800283 	ldbu	r2,10(r4)
   85084:	4884703a 	and	r2,r9,r2
   85088:	20800285 	stb	r2,10(r4)
   8508c:	20800283 	ldbu	r2,10(r4)
   85090:	40c000c3 	ldbu	r3,3(r8)
   85094:	1384b03a 	or	r2,r2,r14
   85098:	1b46b03a 	or	r3,r3,r13
   8509c:	20800285 	stb	r2,10(r4)
   850a0:	40c000c5 	stb	r3,3(r8)
   850a4:	29000017 	ldw	r4,0(r5)
   850a8:	5905883a 	add	r2,r11,r4
   850ac:	12000204 	addi	r8,r2,8
   850b0:	7905883a 	add	r2,r15,r4
   850b4:	11c00204 	addi	r7,r2,8
   850b8:	29400104 	addi	r5,r5,4
   850bc:	203fe91e 	bne	r4,zero,85064 <OSTaskChangePrio+0x1e4>
   850c0:	33400d45 	stb	r13,53(r6)
   850c4:	35000c85 	stb	r20,50(r6)
   850c8:	34c00d05 	stb	r19,52(r6)
   850cc:	34800cc5 	stb	r18,51(r6)
   850d0:	33800d85 	stb	r14,54(r6)
   850d4:	8801703a 	wrctl	status,r17
   850d8:	008002b4 	movhi	r2,10
   850dc:	108c8d04 	addi	r2,r2,12852
   850e0:	10c00003 	ldbu	r3,0(r2)
   850e4:	00800044 	movi	r2,1
   850e8:	1880011e 	bne	r3,r2,850f0 <OSTaskChangePrio+0x270>
   850ec:	00820ac0 	call	820ac <OS_Sched>
   850f0:	0005883a 	mov	r2,zero
   850f4:	00000106 	br	850fc <OSTaskChangePrio+0x27c>
   850f8:	00800a84 	movi	r2,42
   850fc:	dfc00517 	ldw	ra,20(sp)
   85100:	dd000417 	ldw	r20,16(sp)
   85104:	dcc00317 	ldw	r19,12(sp)
   85108:	dc800217 	ldw	r18,8(sp)
   8510c:	dc400117 	ldw	r17,4(sp)
   85110:	dc000017 	ldw	r16,0(sp)
   85114:	dec00604 	addi	sp,sp,24
   85118:	f800283a 	ret

0008511c <OSTaskCreate>:
   8511c:	defff804 	addi	sp,sp,-32
   85120:	dc000315 	stw	r16,12(sp)
   85124:	00800504 	movi	r2,20
   85128:	3c003fcc 	andi	r16,r7,255
   8512c:	dfc00715 	stw	ra,28(sp)
   85130:	dcc00615 	stw	r19,24(sp)
   85134:	dc800515 	stw	r18,20(sp)
   85138:	dc400415 	stw	r17,16(sp)
   8513c:	1400022e 	bgeu	r2,r16,85148 <OSTaskCreate+0x2c>
   85140:	00800a84 	movi	r2,42
   85144:	00003106 	br	8520c <OSTaskCreate+0xf0>
   85148:	000f303a 	rdctl	r7,status
   8514c:	04ffff84 	movi	r19,-2
   85150:	3cc4703a 	and	r2,r7,r19
   85154:	1001703a 	wrctl	status,r2
   85158:	008002b4 	movhi	r2,10
   8515c:	108c9c04 	addi	r2,r2,12912
   85160:	10800003 	ldbu	r2,0(r2)
   85164:	10000326 	beq	r2,zero,85174 <OSTaskCreate+0x58>
   85168:	3801703a 	wrctl	status,r7
   8516c:	00800f04 	movi	r2,60
   85170:	00002606 	br	8520c <OSTaskCreate+0xf0>
   85174:	8405883a 	add	r2,r16,r16
   85178:	1085883a 	add	r2,r2,r2
   8517c:	00c002b4 	movhi	r3,10
   85180:	18dbfb04 	addi	r3,r3,28652
   85184:	10e3883a 	add	r17,r2,r3
   85188:	88800017 	ldw	r2,0(r17)
   8518c:	10001d1e 	bne	r2,zero,85204 <OSTaskCreate+0xe8>
   85190:	04800044 	movi	r18,1
   85194:	8c800015 	stw	r18,0(r17)
   85198:	3801703a 	wrctl	status,r7
   8519c:	000f883a 	mov	r7,zero
   851a0:	008751c0 	call	8751c <OSTaskStkInit>
   851a4:	100b883a 	mov	r5,r2
   851a8:	8009883a 	mov	r4,r16
   851ac:	000d883a 	mov	r6,zero
   851b0:	000f883a 	mov	r7,zero
   851b4:	d8000015 	stw	zero,0(sp)
   851b8:	d8000115 	stw	zero,4(sp)
   851bc:	d8000215 	stw	zero,8(sp)
   851c0:	0082ab80 	call	82ab8 <OS_TCBInit>
   851c4:	1021883a 	mov	r16,r2
   851c8:	10803fcc 	andi	r2,r2,255
   851cc:	1000061e 	bne	r2,zero,851e8 <OSTaskCreate+0xcc>
   851d0:	008002b4 	movhi	r2,10
   851d4:	108c8d04 	addi	r2,r2,12852
   851d8:	10800003 	ldbu	r2,0(r2)
   851dc:	1480071e 	bne	r2,r18,851fc <OSTaskCreate+0xe0>
   851e0:	00820ac0 	call	820ac <OS_Sched>
   851e4:	00000506 	br	851fc <OSTaskCreate+0xe0>
   851e8:	0007303a 	rdctl	r3,status
   851ec:	1cc4703a 	and	r2,r3,r19
   851f0:	1001703a 	wrctl	status,r2
   851f4:	88000015 	stw	zero,0(r17)
   851f8:	1801703a 	wrctl	status,r3
   851fc:	80803fcc 	andi	r2,r16,255
   85200:	00000206 	br	8520c <OSTaskCreate+0xf0>
   85204:	3801703a 	wrctl	status,r7
   85208:	00800a04 	movi	r2,40
   8520c:	dfc00717 	ldw	ra,28(sp)
   85210:	dcc00617 	ldw	r19,24(sp)
   85214:	dc800517 	ldw	r18,20(sp)
   85218:	dc400417 	ldw	r17,16(sp)
   8521c:	dc000317 	ldw	r16,12(sp)
   85220:	dec00804 	addi	sp,sp,32
   85224:	f800283a 	ret

00085228 <OSTaskCreateExt>:
   85228:	defff304 	addi	sp,sp,-52
   8522c:	dc800515 	stw	r18,20(sp)
   85230:	00800504 	movi	r2,20
   85234:	3c803fcc 	andi	r18,r7,255
   85238:	df000b15 	stw	fp,44(sp)
   8523c:	dd800915 	stw	r22,36(sp)
   85240:	dd400815 	stw	r21,32(sp)
   85244:	dd000715 	stw	r20,28(sp)
   85248:	dcc00615 	stw	r19,24(sp)
   8524c:	dc000315 	stw	r16,12(sp)
   85250:	dfc00c15 	stw	ra,48(sp)
   85254:	ddc00a15 	stw	r23,40(sp)
   85258:	dc400415 	stw	r17,16(sp)
   8525c:	2027883a 	mov	r19,r4
   85260:	2829883a 	mov	r20,r5
   85264:	302b883a 	mov	r21,r6
   85268:	df000e17 	ldw	fp,56(sp)
   8526c:	dd800d0b 	ldhu	r22,52(sp)
   85270:	dc00110b 	ldhu	r16,68(sp)
   85274:	1480022e 	bgeu	r2,r18,85280 <OSTaskCreateExt+0x58>
   85278:	00800a84 	movi	r2,42
   8527c:	00003c06 	br	85370 <OSTaskCreateExt+0x148>
   85280:	0009303a 	rdctl	r4,status
   85284:	00ffff84 	movi	r3,-2
   85288:	20c4703a 	and	r2,r4,r3
   8528c:	1001703a 	wrctl	status,r2
   85290:	008002b4 	movhi	r2,10
   85294:	108c9c04 	addi	r2,r2,12912
   85298:	10800003 	ldbu	r2,0(r2)
   8529c:	10000326 	beq	r2,zero,852ac <OSTaskCreateExt+0x84>
   852a0:	2001703a 	wrctl	status,r4
   852a4:	00800f04 	movi	r2,60
   852a8:	00003106 	br	85370 <OSTaskCreateExt+0x148>
   852ac:	9485883a 	add	r2,r18,r18
   852b0:	1085883a 	add	r2,r2,r2
   852b4:	00c002b4 	movhi	r3,10
   852b8:	18dbfb04 	addi	r3,r3,28652
   852bc:	10e3883a 	add	r17,r2,r3
   852c0:	88800017 	ldw	r2,0(r17)
   852c4:	1000281e 	bne	r2,zero,85368 <OSTaskCreateExt+0x140>
   852c8:	05c00044 	movi	r23,1
   852cc:	8dc00015 	stw	r23,0(r17)
   852d0:	2001703a 	wrctl	status,r4
   852d4:	d9400f17 	ldw	r5,60(sp)
   852d8:	843fffcc 	andi	r16,r16,65535
   852dc:	800d883a 	mov	r6,r16
   852e0:	e009883a 	mov	r4,fp
   852e4:	0084d880 	call	84d88 <OS_TaskStkClr>
   852e8:	800f883a 	mov	r7,r16
   852ec:	9809883a 	mov	r4,r19
   852f0:	a00b883a 	mov	r5,r20
   852f4:	a80d883a 	mov	r6,r21
   852f8:	008751c0 	call	8751c <OSTaskStkInit>
   852fc:	100b883a 	mov	r5,r2
   85300:	d8800f17 	ldw	r2,60(sp)
   85304:	9009883a 	mov	r4,r18
   85308:	e00d883a 	mov	r6,fp
   8530c:	d8800015 	stw	r2,0(sp)
   85310:	d8801017 	ldw	r2,64(sp)
   85314:	b1ffffcc 	andi	r7,r22,65535
   85318:	dc000215 	stw	r16,8(sp)
   8531c:	d8800115 	stw	r2,4(sp)
   85320:	0082ab80 	call	82ab8 <OS_TCBInit>
   85324:	1021883a 	mov	r16,r2
   85328:	10803fcc 	andi	r2,r2,255
   8532c:	1000061e 	bne	r2,zero,85348 <OSTaskCreateExt+0x120>
   85330:	008002b4 	movhi	r2,10
   85334:	108c8d04 	addi	r2,r2,12852
   85338:	10800003 	ldbu	r2,0(r2)
   8533c:	15c0081e 	bne	r2,r23,85360 <OSTaskCreateExt+0x138>
   85340:	00820ac0 	call	820ac <OS_Sched>
   85344:	00000606 	br	85360 <OSTaskCreateExt+0x138>
   85348:	0007303a 	rdctl	r3,status
   8534c:	013fff84 	movi	r4,-2
   85350:	1904703a 	and	r2,r3,r4
   85354:	1001703a 	wrctl	status,r2
   85358:	88000015 	stw	zero,0(r17)
   8535c:	1801703a 	wrctl	status,r3
   85360:	80803fcc 	andi	r2,r16,255
   85364:	00000206 	br	85370 <OSTaskCreateExt+0x148>
   85368:	2001703a 	wrctl	status,r4
   8536c:	00800a04 	movi	r2,40
   85370:	dfc00c17 	ldw	ra,48(sp)
   85374:	df000b17 	ldw	fp,44(sp)
   85378:	ddc00a17 	ldw	r23,40(sp)
   8537c:	dd800917 	ldw	r22,36(sp)
   85380:	dd400817 	ldw	r21,32(sp)
   85384:	dd000717 	ldw	r20,28(sp)
   85388:	dcc00617 	ldw	r19,24(sp)
   8538c:	dc800517 	ldw	r18,20(sp)
   85390:	dc400417 	ldw	r17,16(sp)
   85394:	dc000317 	ldw	r16,12(sp)
   85398:	dec00d04 	addi	sp,sp,52
   8539c:	f800283a 	ret

000853a0 <OSTaskDel>:
   853a0:	defffb04 	addi	sp,sp,-20
   853a4:	dfc00415 	stw	ra,16(sp)
   853a8:	dcc00315 	stw	r19,12(sp)
   853ac:	dc800215 	stw	r18,8(sp)
   853b0:	dc400115 	stw	r17,4(sp)
   853b4:	dc000015 	stw	r16,0(sp)
   853b8:	008002b4 	movhi	r2,10
   853bc:	108c9c04 	addi	r2,r2,12912
   853c0:	10800003 	ldbu	r2,0(r2)
   853c4:	10000226 	beq	r2,zero,853d0 <OSTaskDel+0x30>
   853c8:	00801004 	movi	r2,64
   853cc:	00008006 	br	855d0 <OSTaskDel+0x230>
   853d0:	20c03fcc 	andi	r3,r4,255
   853d4:	00800504 	movi	r2,20
   853d8:	1880021e 	bne	r3,r2,853e4 <OSTaskDel+0x44>
   853dc:	00800f84 	movi	r2,62
   853e0:	00007b06 	br	855d0 <OSTaskDel+0x230>
   853e4:	008004c4 	movi	r2,19
   853e8:	10c0042e 	bgeu	r2,r3,853fc <OSTaskDel+0x5c>
   853ec:	00803fc4 	movi	r2,255
   853f0:	18806e26 	beq	r3,r2,855ac <OSTaskDel+0x20c>
   853f4:	00800a84 	movi	r2,42
   853f8:	00007506 	br	855d0 <OSTaskDel+0x230>
   853fc:	0025303a 	rdctl	r18,status
   85400:	00bfff84 	movi	r2,-2
   85404:	9084703a 	and	r2,r18,r2
   85408:	1001703a 	wrctl	status,r2
   8540c:	20803fcc 	andi	r2,r4,255
   85410:	1085883a 	add	r2,r2,r2
   85414:	1085883a 	add	r2,r2,r2
   85418:	00c002b4 	movhi	r3,10
   8541c:	18dbfb04 	addi	r3,r3,28652
   85420:	10e7883a 	add	r19,r2,r3
   85424:	9c000017 	ldw	r16,0(r19)
   85428:	8000031e 	bne	r16,zero,85438 <OSTaskDel+0x98>
   8542c:	9001703a 	wrctl	status,r18
   85430:	008010c4 	movi	r2,67
   85434:	00006606 	br	855d0 <OSTaskDel+0x230>
   85438:	00800044 	movi	r2,1
   8543c:	8080031e 	bne	r16,r2,8544c <OSTaskDel+0xac>
   85440:	9001703a 	wrctl	status,r18
   85444:	00800f44 	movi	r2,61
   85448:	00006106 	br	855d0 <OSTaskDel+0x230>
   8544c:	80c00d03 	ldbu	r3,52(r16)
   85450:	014002b4 	movhi	r5,10
   85454:	294c9a44 	addi	r5,r5,12905
   85458:	80800d43 	ldbu	r2,53(r16)
   8545c:	1947883a 	add	r3,r3,r5
   85460:	19000003 	ldbu	r4,0(r3)
   85464:	0084303a 	nor	r2,zero,r2
   85468:	1104703a 	and	r2,r2,r4
   8546c:	18800005 	stb	r2,0(r3)
   85470:	80800d03 	ldbu	r2,52(r16)
   85474:	1145883a 	add	r2,r2,r5
   85478:	10800003 	ldbu	r2,0(r2)
   8547c:	1000071e 	bne	r2,zero,8549c <OSTaskDel+0xfc>
   85480:	008002b4 	movhi	r2,10
   85484:	108c9a04 	addi	r2,r2,12904
   85488:	80c00d83 	ldbu	r3,54(r16)
   8548c:	11000003 	ldbu	r4,0(r2)
   85490:	00c6303a 	nor	r3,zero,r3
   85494:	1906703a 	and	r3,r3,r4
   85498:	10c00005 	stb	r3,0(r2)
   8549c:	81400717 	ldw	r5,28(r16)
   854a0:	28000226 	beq	r5,zero,854ac <OSTaskDel+0x10c>
   854a4:	8009883a 	mov	r4,r16
   854a8:	0081de40 	call	81de4 <OS_EventTaskRemove>
   854ac:	81400817 	ldw	r5,32(r16)
   854b0:	28000226 	beq	r5,zero,854bc <OSTaskDel+0x11c>
   854b4:	8009883a 	mov	r4,r16
   854b8:	0081e300 	call	81e30 <OS_EventTaskRemoveMulti>
   854bc:	81000a17 	ldw	r4,40(r16)
   854c0:	20000126 	beq	r4,zero,854c8 <OSTaskDel+0x128>
   854c4:	0082e880 	call	82e88 <OS_FlagUnlink>
   854c8:	80000c05 	stb	zero,48(r16)
   854cc:	80000c45 	stb	zero,49(r16)
   854d0:	044002b4 	movhi	r17,10
   854d4:	8c4c8b04 	addi	r17,r17,12844
   854d8:	89000003 	ldbu	r4,0(r17)
   854dc:	00803fc4 	movi	r2,255
   854e0:	80000b8d 	sth	zero,46(r16)
   854e4:	20c03fcc 	andi	r3,r4,255
   854e8:	18800226 	beq	r3,r2,854f4 <OSTaskDel+0x154>
   854ec:	20800044 	addi	r2,r4,1
   854f0:	88800005 	stb	r2,0(r17)
   854f4:	9001703a 	wrctl	status,r18
   854f8:	0081cbc0 	call	81cbc <OS_Dummy>
   854fc:	0025303a 	rdctl	r18,status
   85500:	00bfff84 	movi	r2,-2
   85504:	9084703a 	and	r2,r18,r2
   85508:	1001703a 	wrctl	status,r2
   8550c:	88800003 	ldbu	r2,0(r17)
   85510:	10000226 	beq	r2,zero,8551c <OSTaskDel+0x17c>
   85514:	10bfffc4 	addi	r2,r2,-1
   85518:	88800005 	stb	r2,0(r17)
   8551c:	8009883a 	mov	r4,r16
   85520:	00874a40 	call	874a4 <OSTaskDelHook>
   85524:	00c002b4 	movhi	r3,10
   85528:	18cc9644 	addi	r3,r3,12889
   8552c:	18800003 	ldbu	r2,0(r3)
   85530:	98000015 	stw	zero,0(r19)
   85534:	10bfffc4 	addi	r2,r2,-1
   85538:	18800005 	stb	r2,0(r3)
   8553c:	80c00617 	ldw	r3,24(r16)
   85540:	81000517 	ldw	r4,20(r16)
   85544:	1800051e 	bne	r3,zero,8555c <OSTaskDel+0x1bc>
   85548:	20000615 	stw	zero,24(r4)
   8554c:	008002b4 	movhi	r2,10
   85550:	108c9004 	addi	r2,r2,12864
   85554:	11000015 	stw	r4,0(r2)
   85558:	00000306 	br	85568 <OSTaskDel+0x1c8>
   8555c:	19000515 	stw	r4,20(r3)
   85560:	80800517 	ldw	r2,20(r16)
   85564:	10c00615 	stw	r3,24(r2)
   85568:	00c002b4 	movhi	r3,10
   8556c:	18cc9504 	addi	r3,r3,12884
   85570:	18800017 	ldw	r2,0(r3)
   85574:	80800515 	stw	r2,20(r16)
   85578:	1c000015 	stw	r16,0(r3)
   8557c:	00800fc4 	movi	r2,63
   85580:	80801305 	stb	r2,76(r16)
   85584:	80001345 	stb	zero,77(r16)
   85588:	9001703a 	wrctl	status,r18
   8558c:	008002b4 	movhi	r2,10
   85590:	108c8d04 	addi	r2,r2,12852
   85594:	10c00003 	ldbu	r3,0(r2)
   85598:	00800044 	movi	r2,1
   8559c:	1880011e 	bne	r3,r2,855a4 <OSTaskDel+0x204>
   855a0:	00820ac0 	call	820ac <OS_Sched>
   855a4:	0005883a 	mov	r2,zero
   855a8:	00000906 	br	855d0 <OSTaskDel+0x230>
   855ac:	0025303a 	rdctl	r18,status
   855b0:	00bfff84 	movi	r2,-2
   855b4:	9084703a 	and	r2,r18,r2
   855b8:	1001703a 	wrctl	status,r2
   855bc:	008002b4 	movhi	r2,10
   855c0:	108c9d04 	addi	r2,r2,12916
   855c4:	10800017 	ldw	r2,0(r2)
   855c8:	11000c83 	ldbu	r4,50(r2)
   855cc:	003f8f06 	br	8540c <OSTaskDel+0x6c>
   855d0:	dfc00417 	ldw	ra,16(sp)
   855d4:	dcc00317 	ldw	r19,12(sp)
   855d8:	dc800217 	ldw	r18,8(sp)
   855dc:	dc400117 	ldw	r17,4(sp)
   855e0:	dc000017 	ldw	r16,0(sp)
   855e4:	dec00504 	addi	sp,sp,20
   855e8:	f800283a 	ret

000855ec <OSTaskDelReq>:
   855ec:	21003fcc 	andi	r4,r4,255
   855f0:	00800504 	movi	r2,20
   855f4:	2080021e 	bne	r4,r2,85600 <OSTaskDelReq+0x14>
   855f8:	00800f84 	movi	r2,62
   855fc:	f800283a 	ret
   85600:	008004c4 	movi	r2,19
   85604:	11000e2e 	bgeu	r2,r4,85640 <OSTaskDelReq+0x54>
   85608:	00803fc4 	movi	r2,255
   8560c:	20800226 	beq	r4,r2,85618 <OSTaskDelReq+0x2c>
   85610:	00800a84 	movi	r2,42
   85614:	f800283a 	ret
   85618:	0007303a 	rdctl	r3,status
   8561c:	00bfff84 	movi	r2,-2
   85620:	1884703a 	and	r2,r3,r2
   85624:	1001703a 	wrctl	status,r2
   85628:	008002b4 	movhi	r2,10
   8562c:	108c9d04 	addi	r2,r2,12916
   85630:	10800017 	ldw	r2,0(r2)
   85634:	10800dc3 	ldbu	r2,55(r2)
   85638:	1801703a 	wrctl	status,r3
   8563c:	f800283a 	ret
   85640:	000b303a 	rdctl	r5,status
   85644:	00bfff84 	movi	r2,-2
   85648:	2884703a 	and	r2,r5,r2
   8564c:	1001703a 	wrctl	status,r2
   85650:	2105883a 	add	r2,r4,r4
   85654:	1085883a 	add	r2,r2,r2
   85658:	00c002b4 	movhi	r3,10
   8565c:	18dbfb04 	addi	r3,r3,28652
   85660:	10c5883a 	add	r2,r2,r3
   85664:	11000017 	ldw	r4,0(r2)
   85668:	2000031e 	bne	r4,zero,85678 <OSTaskDelReq+0x8c>
   8566c:	2801703a 	wrctl	status,r5
   85670:	008010c4 	movi	r2,67
   85674:	f800283a 	ret
   85678:	00800044 	movi	r2,1
   8567c:	2080031e 	bne	r4,r2,8568c <OSTaskDelReq+0xa0>
   85680:	2801703a 	wrctl	status,r5
   85684:	00800f44 	movi	r2,61
   85688:	f800283a 	ret
   8568c:	00800fc4 	movi	r2,63
   85690:	20800dc5 	stb	r2,55(r4)
   85694:	2801703a 	wrctl	status,r5
   85698:	0005883a 	mov	r2,zero
   8569c:	f800283a 	ret

000856a0 <OSTaskNameGet>:
   856a0:	defffd04 	addi	sp,sp,-12
   856a4:	dfc00215 	stw	ra,8(sp)
   856a8:	dc000115 	stw	r16,4(sp)
   856ac:	3000021e 	bne	r6,zero,856b8 <OSTaskNameGet+0x18>
   856b0:	0007883a 	mov	r3,zero
   856b4:	00003706 	br	85794 <OSTaskNameGet+0xf4>
   856b8:	20c03fcc 	andi	r3,r4,255
   856bc:	00800504 	movi	r2,20
   856c0:	10c0052e 	bgeu	r2,r3,856d8 <OSTaskNameGet+0x38>
   856c4:	00803fc4 	movi	r2,255
   856c8:	18800326 	beq	r3,r2,856d8 <OSTaskNameGet+0x38>
   856cc:	0007883a 	mov	r3,zero
   856d0:	00800a84 	movi	r2,42
   856d4:	00000306 	br	856e4 <OSTaskNameGet+0x44>
   856d8:	2800041e 	bne	r5,zero,856ec <OSTaskNameGet+0x4c>
   856dc:	0007883a 	mov	r3,zero
   856e0:	00800304 	movi	r2,12
   856e4:	30800005 	stb	r2,0(r6)
   856e8:	00002a06 	br	85794 <OSTaskNameGet+0xf4>
   856ec:	008002b4 	movhi	r2,10
   856f0:	108c9c04 	addi	r2,r2,12912
   856f4:	10800003 	ldbu	r2,0(r2)
   856f8:	10000326 	beq	r2,zero,85708 <OSTaskNameGet+0x68>
   856fc:	0007883a 	mov	r3,zero
   85700:	00800444 	movi	r2,17
   85704:	003ff706 	br	856e4 <OSTaskNameGet+0x44>
   85708:	0021303a 	rdctl	r16,status
   8570c:	00bfff84 	movi	r2,-2
   85710:	8084703a 	and	r2,r16,r2
   85714:	1001703a 	wrctl	status,r2
   85718:	20c03fcc 	andi	r3,r4,255
   8571c:	00803fc4 	movi	r2,255
   85720:	1880041e 	bne	r3,r2,85734 <OSTaskNameGet+0x94>
   85724:	008002b4 	movhi	r2,10
   85728:	108c9d04 	addi	r2,r2,12916
   8572c:	10800017 	ldw	r2,0(r2)
   85730:	11000c83 	ldbu	r4,50(r2)
   85734:	20803fcc 	andi	r2,r4,255
   85738:	1085883a 	add	r2,r2,r2
   8573c:	00c002b4 	movhi	r3,10
   85740:	18dbfb04 	addi	r3,r3,28652
   85744:	1085883a 	add	r2,r2,r2
   85748:	10c5883a 	add	r2,r2,r3
   8574c:	10c00017 	ldw	r3,0(r2)
   85750:	1800021e 	bne	r3,zero,8575c <OSTaskNameGet+0xbc>
   85754:	8001703a 	wrctl	status,r16
   85758:	00000406 	br	8576c <OSTaskNameGet+0xcc>
   8575c:	00800044 	movi	r2,1
   85760:	1880041e 	bne	r3,r2,85774 <OSTaskNameGet+0xd4>
   85764:	8001703a 	wrctl	status,r16
   85768:	0007883a 	mov	r3,zero
   8576c:	008010c4 	movi	r2,67
   85770:	003fdc06 	br	856e4 <OSTaskNameGet+0x44>
   85774:	2809883a 	mov	r4,r5
   85778:	19401304 	addi	r5,r3,76
   8577c:	d9800015 	stw	r6,0(sp)
   85780:	0081fdc0 	call	81fdc <OS_StrCopy>
   85784:	8001703a 	wrctl	status,r16
   85788:	d9800017 	ldw	r6,0(sp)
   8578c:	10c03fcc 	andi	r3,r2,255
   85790:	30000005 	stb	zero,0(r6)
   85794:	1805883a 	mov	r2,r3
   85798:	dfc00217 	ldw	ra,8(sp)
   8579c:	dc000117 	ldw	r16,4(sp)
   857a0:	dec00304 	addi	sp,sp,12
   857a4:	f800283a 	ret

000857a8 <OSTaskNameSet>:
   857a8:	defffb04 	addi	sp,sp,-20
   857ac:	dc400215 	stw	r17,8(sp)
   857b0:	dfc00415 	stw	ra,16(sp)
   857b4:	dc800315 	stw	r18,12(sp)
   857b8:	dc000115 	stw	r16,4(sp)
   857bc:	2823883a 	mov	r17,r5
   857c0:	30003a26 	beq	r6,zero,858ac <OSTaskNameSet+0x104>
   857c4:	20c03fcc 	andi	r3,r4,255
   857c8:	00800504 	movi	r2,20
   857cc:	10c0042e 	bgeu	r2,r3,857e0 <OSTaskNameSet+0x38>
   857d0:	00803fc4 	movi	r2,255
   857d4:	18800226 	beq	r3,r2,857e0 <OSTaskNameSet+0x38>
   857d8:	00800a84 	movi	r2,42
   857dc:	00000206 	br	857e8 <OSTaskNameSet+0x40>
   857e0:	8800031e 	bne	r17,zero,857f0 <OSTaskNameSet+0x48>
   857e4:	00800304 	movi	r2,12
   857e8:	30800005 	stb	r2,0(r6)
   857ec:	00002f06 	br	858ac <OSTaskNameSet+0x104>
   857f0:	008002b4 	movhi	r2,10
   857f4:	108c9c04 	addi	r2,r2,12912
   857f8:	10800003 	ldbu	r2,0(r2)
   857fc:	10000226 	beq	r2,zero,85808 <OSTaskNameSet+0x60>
   85800:	00800484 	movi	r2,18
   85804:	003ff806 	br	857e8 <OSTaskNameSet+0x40>
   85808:	0025303a 	rdctl	r18,status
   8580c:	00bfff84 	movi	r2,-2
   85810:	9084703a 	and	r2,r18,r2
   85814:	1001703a 	wrctl	status,r2
   85818:	20c03fcc 	andi	r3,r4,255
   8581c:	00803fc4 	movi	r2,255
   85820:	1880041e 	bne	r3,r2,85834 <OSTaskNameSet+0x8c>
   85824:	008002b4 	movhi	r2,10
   85828:	108c9d04 	addi	r2,r2,12916
   8582c:	10800017 	ldw	r2,0(r2)
   85830:	11000c83 	ldbu	r4,50(r2)
   85834:	20803fcc 	andi	r2,r4,255
   85838:	1085883a 	add	r2,r2,r2
   8583c:	1085883a 	add	r2,r2,r2
   85840:	00c002b4 	movhi	r3,10
   85844:	18dbfb04 	addi	r3,r3,28652
   85848:	10c5883a 	add	r2,r2,r3
   8584c:	14000017 	ldw	r16,0(r2)
   85850:	80000226 	beq	r16,zero,8585c <OSTaskNameSet+0xb4>
   85854:	00800044 	movi	r2,1
   85858:	8080031e 	bne	r16,r2,85868 <OSTaskNameSet+0xc0>
   8585c:	9001703a 	wrctl	status,r18
   85860:	008010c4 	movi	r2,67
   85864:	003fe006 	br	857e8 <OSTaskNameSet+0x40>
   85868:	8809883a 	mov	r4,r17
   8586c:	d9800015 	stw	r6,0(sp)
   85870:	00820080 	call	82008 <OS_StrLen>
   85874:	10803fcc 	andi	r2,r2,255
   85878:	00c007c4 	movi	r3,31
   8587c:	d9800017 	ldw	r6,0(sp)
   85880:	1880032e 	bgeu	r3,r2,85890 <OSTaskNameSet+0xe8>
   85884:	9001703a 	wrctl	status,r18
   85888:	00801044 	movi	r2,65
   8588c:	003fd606 	br	857e8 <OSTaskNameSet+0x40>
   85890:	81001304 	addi	r4,r16,76
   85894:	880b883a 	mov	r5,r17
   85898:	d9800015 	stw	r6,0(sp)
   8589c:	0081fdc0 	call	81fdc <OS_StrCopy>
   858a0:	9001703a 	wrctl	status,r18
   858a4:	d9800017 	ldw	r6,0(sp)
   858a8:	30000005 	stb	zero,0(r6)
   858ac:	dfc00417 	ldw	ra,16(sp)
   858b0:	dc800317 	ldw	r18,12(sp)
   858b4:	dc400217 	ldw	r17,8(sp)
   858b8:	dc000117 	ldw	r16,4(sp)
   858bc:	dec00504 	addi	sp,sp,20
   858c0:	f800283a 	ret

000858c4 <OSTaskResume>:
   858c4:	deffff04 	addi	sp,sp,-4
   858c8:	21003fcc 	andi	r4,r4,255
   858cc:	008004c4 	movi	r2,19
   858d0:	dfc00015 	stw	ra,0(sp)
   858d4:	1100022e 	bgeu	r2,r4,858e0 <OSTaskResume+0x1c>
   858d8:	00800a84 	movi	r2,42
   858dc:	00003706 	br	859bc <OSTaskResume+0xf8>
   858e0:	000d303a 	rdctl	r6,status
   858e4:	00bfff84 	movi	r2,-2
   858e8:	3084703a 	and	r2,r6,r2
   858ec:	1001703a 	wrctl	status,r2
   858f0:	2105883a 	add	r2,r4,r4
   858f4:	1085883a 	add	r2,r2,r2
   858f8:	00c002b4 	movhi	r3,10
   858fc:	18dbfb04 	addi	r3,r3,28652
   85900:	10c5883a 	add	r2,r2,r3
   85904:	11400017 	ldw	r5,0(r2)
   85908:	2800031e 	bne	r5,zero,85918 <OSTaskResume+0x54>
   8590c:	3001703a 	wrctl	status,r6
   85910:	00801184 	movi	r2,70
   85914:	00002906 	br	859bc <OSTaskResume+0xf8>
   85918:	01c00044 	movi	r7,1
   8591c:	29c0031e 	bne	r5,r7,8592c <OSTaskResume+0x68>
   85920:	3001703a 	wrctl	status,r6
   85924:	008010c4 	movi	r2,67
   85928:	00002406 	br	859bc <OSTaskResume+0xf8>
   8592c:	29000c03 	ldbu	r4,48(r5)
   85930:	2080020c 	andi	r2,r4,8
   85934:	10001f26 	beq	r2,zero,859b4 <OSTaskResume+0xf0>
   85938:	00fffdc4 	movi	r3,-9
   8593c:	20c6703a 	and	r3,r4,r3
   85940:	18803fcc 	andi	r2,r3,255
   85944:	28c00c05 	stb	r3,48(r5)
   85948:	1000181e 	bne	r2,zero,859ac <OSTaskResume+0xe8>
   8594c:	28800b8b 	ldhu	r2,46(r5)
   85950:	1000161e 	bne	r2,zero,859ac <OSTaskResume+0xe8>
   85954:	010002b4 	movhi	r4,10
   85958:	210c9a04 	addi	r4,r4,12904
   8595c:	28c00d83 	ldbu	r3,54(r5)
   85960:	20800003 	ldbu	r2,0(r4)
   85964:	10c4b03a 	or	r2,r2,r3
   85968:	20800005 	stb	r2,0(r4)
   8596c:	28c00d03 	ldbu	r3,52(r5)
   85970:	008002b4 	movhi	r2,10
   85974:	108c9a44 	addi	r2,r2,12905
   85978:	29000d43 	ldbu	r4,53(r5)
   8597c:	1887883a 	add	r3,r3,r2
   85980:	18800003 	ldbu	r2,0(r3)
   85984:	1104b03a 	or	r2,r2,r4
   85988:	18800005 	stb	r2,0(r3)
   8598c:	3001703a 	wrctl	status,r6
   85990:	008002b4 	movhi	r2,10
   85994:	108c8d04 	addi	r2,r2,12852
   85998:	10800003 	ldbu	r2,0(r2)
   8599c:	11c0011e 	bne	r2,r7,859a4 <OSTaskResume+0xe0>
   859a0:	00820ac0 	call	820ac <OS_Sched>
   859a4:	0005883a 	mov	r2,zero
   859a8:	00000406 	br	859bc <OSTaskResume+0xf8>
   859ac:	3001703a 	wrctl	status,r6
   859b0:	003ffc06 	br	859a4 <OSTaskResume+0xe0>
   859b4:	3001703a 	wrctl	status,r6
   859b8:	00801104 	movi	r2,68
   859bc:	dfc00017 	ldw	ra,0(sp)
   859c0:	dec00104 	addi	sp,sp,4
   859c4:	f800283a 	ret

000859c8 <OSTaskStkChk>:
   859c8:	20c03fcc 	andi	r3,r4,255
   859cc:	00800504 	movi	r2,20
   859d0:	10c0042e 	bgeu	r2,r3,859e4 <OSTaskStkChk+0x1c>
   859d4:	00803fc4 	movi	r2,255
   859d8:	18800226 	beq	r3,r2,859e4 <OSTaskStkChk+0x1c>
   859dc:	00800a84 	movi	r2,42
   859e0:	f800283a 	ret
   859e4:	2800021e 	bne	r5,zero,859f0 <OSTaskStkChk+0x28>
   859e8:	00800244 	movi	r2,9
   859ec:	f800283a 	ret
   859f0:	28000015 	stw	zero,0(r5)
   859f4:	28000115 	stw	zero,4(r5)
   859f8:	000f303a 	rdctl	r7,status
   859fc:	00bfff84 	movi	r2,-2
   85a00:	3884703a 	and	r2,r7,r2
   85a04:	1001703a 	wrctl	status,r2
   85a08:	20c03fcc 	andi	r3,r4,255
   85a0c:	00803fc4 	movi	r2,255
   85a10:	1880041e 	bne	r3,r2,85a24 <OSTaskStkChk+0x5c>
   85a14:	008002b4 	movhi	r2,10
   85a18:	108c9d04 	addi	r2,r2,12916
   85a1c:	10800017 	ldw	r2,0(r2)
   85a20:	11000c83 	ldbu	r4,50(r2)
   85a24:	20803fcc 	andi	r2,r4,255
   85a28:	1085883a 	add	r2,r2,r2
   85a2c:	00c002b4 	movhi	r3,10
   85a30:	18dbfb04 	addi	r3,r3,28652
   85a34:	1085883a 	add	r2,r2,r2
   85a38:	10c5883a 	add	r2,r2,r3
   85a3c:	10c00017 	ldw	r3,0(r2)
   85a40:	18000226 	beq	r3,zero,85a4c <OSTaskStkChk+0x84>
   85a44:	00800044 	movi	r2,1
   85a48:	1880031e 	bne	r3,r2,85a58 <OSTaskStkChk+0x90>
   85a4c:	3801703a 	wrctl	status,r7
   85a50:	008010c4 	movi	r2,67
   85a54:	f800283a 	ret
   85a58:	1880040b 	ldhu	r2,16(r3)
   85a5c:	1080004c 	andi	r2,r2,1
   85a60:	1000031e 	bne	r2,zero,85a70 <OSTaskStkChk+0xa8>
   85a64:	3801703a 	wrctl	status,r7
   85a68:	00801144 	movi	r2,69
   85a6c:	f800283a 	ret
   85a70:	19800217 	ldw	r6,8(r3)
   85a74:	19000317 	ldw	r4,12(r3)
   85a78:	3801703a 	wrctl	status,r7
   85a7c:	0007883a 	mov	r3,zero
   85a80:	00000106 	br	85a88 <OSTaskStkChk+0xc0>
   85a84:	18c00044 	addi	r3,r3,1
   85a88:	30800017 	ldw	r2,0(r6)
   85a8c:	31800104 	addi	r6,r6,4
   85a90:	103ffc26 	beq	r2,zero,85a84 <OSTaskStkChk+0xbc>
   85a94:	20c5c83a 	sub	r2,r4,r3
   85a98:	1085883a 	add	r2,r2,r2
   85a9c:	1085883a 	add	r2,r2,r2
   85aa0:	18c7883a 	add	r3,r3,r3
   85aa4:	18c7883a 	add	r3,r3,r3
   85aa8:	28800115 	stw	r2,4(r5)
   85aac:	0005883a 	mov	r2,zero
   85ab0:	28c00015 	stw	r3,0(r5)
   85ab4:	f800283a 	ret

00085ab8 <OSTaskSuspend>:
   85ab8:	deffff04 	addi	sp,sp,-4
   85abc:	20c03fcc 	andi	r3,r4,255
   85ac0:	00800504 	movi	r2,20
   85ac4:	dfc00015 	stw	ra,0(sp)
   85ac8:	1880021e 	bne	r3,r2,85ad4 <OSTaskSuspend+0x1c>
   85acc:	008011c4 	movi	r2,71
   85ad0:	00004706 	br	85bf0 <OSTaskSuspend+0x138>
   85ad4:	008004c4 	movi	r2,19
   85ad8:	10c0042e 	bgeu	r2,r3,85aec <OSTaskSuspend+0x34>
   85adc:	00803fc4 	movi	r2,255
   85ae0:	18803926 	beq	r3,r2,85bc8 <OSTaskSuspend+0x110>
   85ae4:	00800a84 	movi	r2,42
   85ae8:	00004106 	br	85bf0 <OSTaskSuspend+0x138>
   85aec:	000f303a 	rdctl	r7,status
   85af0:	00bfff84 	movi	r2,-2
   85af4:	3884703a 	and	r2,r7,r2
   85af8:	1001703a 	wrctl	status,r2
   85afc:	008002b4 	movhi	r2,10
   85b00:	108c9d04 	addi	r2,r2,12916
   85b04:	10800017 	ldw	r2,0(r2)
   85b08:	10800c83 	ldbu	r2,50(r2)
   85b0c:	1885003a 	cmpeq	r2,r3,r2
   85b10:	100d883a 	mov	r6,r2
   85b14:	20803fcc 	andi	r2,r4,255
   85b18:	1085883a 	add	r2,r2,r2
   85b1c:	1085883a 	add	r2,r2,r2
   85b20:	00c002b4 	movhi	r3,10
   85b24:	18dbfb04 	addi	r3,r3,28652
   85b28:	10c5883a 	add	r2,r2,r3
   85b2c:	11400017 	ldw	r5,0(r2)
   85b30:	2800031e 	bne	r5,zero,85b40 <OSTaskSuspend+0x88>
   85b34:	3801703a 	wrctl	status,r7
   85b38:	00801204 	movi	r2,72
   85b3c:	00002c06 	br	85bf0 <OSTaskSuspend+0x138>
   85b40:	02000044 	movi	r8,1
   85b44:	2a00031e 	bne	r5,r8,85b54 <OSTaskSuspend+0x9c>
   85b48:	3801703a 	wrctl	status,r7
   85b4c:	008010c4 	movi	r2,67
   85b50:	00002706 	br	85bf0 <OSTaskSuspend+0x138>
   85b54:	29000d03 	ldbu	r4,52(r5)
   85b58:	00c002b4 	movhi	r3,10
   85b5c:	18cc9a44 	addi	r3,r3,12905
   85b60:	28800d43 	ldbu	r2,53(r5)
   85b64:	20c9883a 	add	r4,r4,r3
   85b68:	20c00003 	ldbu	r3,0(r4)
   85b6c:	0084303a 	nor	r2,zero,r2
   85b70:	10c4703a 	and	r2,r2,r3
   85b74:	10c03fcc 	andi	r3,r2,255
   85b78:	18c0201c 	xori	r3,r3,128
   85b7c:	18ffe004 	addi	r3,r3,-128
   85b80:	20800005 	stb	r2,0(r4)
   85b84:	1800071e 	bne	r3,zero,85ba4 <OSTaskSuspend+0xec>
   85b88:	008002b4 	movhi	r2,10
   85b8c:	108c9a04 	addi	r2,r2,12904
   85b90:	28c00d83 	ldbu	r3,54(r5)
   85b94:	11000003 	ldbu	r4,0(r2)
   85b98:	00c6303a 	nor	r3,zero,r3
   85b9c:	1906703a 	and	r3,r3,r4
   85ba0:	10c00005 	stb	r3,0(r2)
   85ba4:	28800c03 	ldbu	r2,48(r5)
   85ba8:	10800214 	ori	r2,r2,8
   85bac:	28800c05 	stb	r2,48(r5)
   85bb0:	3801703a 	wrctl	status,r7
   85bb4:	30803fcc 	andi	r2,r6,255
   85bb8:	1200011e 	bne	r2,r8,85bc0 <OSTaskSuspend+0x108>
   85bbc:	00820ac0 	call	820ac <OS_Sched>
   85bc0:	0005883a 	mov	r2,zero
   85bc4:	00000a06 	br	85bf0 <OSTaskSuspend+0x138>
   85bc8:	000f303a 	rdctl	r7,status
   85bcc:	00bfff84 	movi	r2,-2
   85bd0:	3884703a 	and	r2,r7,r2
   85bd4:	1001703a 	wrctl	status,r2
   85bd8:	008002b4 	movhi	r2,10
   85bdc:	108c9d04 	addi	r2,r2,12916
   85be0:	10800017 	ldw	r2,0(r2)
   85be4:	01800044 	movi	r6,1
   85be8:	11000c83 	ldbu	r4,50(r2)
   85bec:	003fc906 	br	85b14 <OSTaskSuspend+0x5c>
   85bf0:	dfc00017 	ldw	ra,0(sp)
   85bf4:	dec00104 	addi	sp,sp,4
   85bf8:	f800283a 	ret

00085bfc <OSTimeSet>:
   85bfc:	0007303a 	rdctl	r3,status
   85c00:	00bfff84 	movi	r2,-2
   85c04:	1884703a 	and	r2,r3,r2
   85c08:	1001703a 	wrctl	status,r2
   85c0c:	008002b4 	movhi	r2,10
   85c10:	108c9f04 	addi	r2,r2,12924
   85c14:	11000015 	stw	r4,0(r2)
   85c18:	1801703a 	wrctl	status,r3
   85c1c:	f800283a 	ret

00085c20 <OSTimeDly>:
   85c20:	008002b4 	movhi	r2,10
   85c24:	108c9c04 	addi	r2,r2,12912
   85c28:	10c00003 	ldbu	r3,0(r2)
   85c2c:	200d883a 	mov	r6,r4
   85c30:	20bfffcc 	andi	r2,r4,65535
   85c34:	18001f1e 	bne	r3,zero,85cb4 <OSTimeDly+0x94>
   85c38:	10001e26 	beq	r2,zero,85cb4 <OSTimeDly+0x94>
   85c3c:	0011303a 	rdctl	r8,status
   85c40:	00bfff84 	movi	r2,-2
   85c44:	4084703a 	and	r2,r8,r2
   85c48:	1001703a 	wrctl	status,r2
   85c4c:	008002b4 	movhi	r2,10
   85c50:	108c9d04 	addi	r2,r2,12916
   85c54:	11400017 	ldw	r5,0(r2)
   85c58:	00c002b4 	movhi	r3,10
   85c5c:	18cc9a44 	addi	r3,r3,12905
   85c60:	01c002b4 	movhi	r7,10
   85c64:	39cc9a04 	addi	r7,r7,12904
   85c68:	29000d03 	ldbu	r4,52(r5)
   85c6c:	28800d43 	ldbu	r2,53(r5)
   85c70:	20c9883a 	add	r4,r4,r3
   85c74:	20c00003 	ldbu	r3,0(r4)
   85c78:	0084303a 	nor	r2,zero,r2
   85c7c:	10c4703a 	and	r2,r2,r3
   85c80:	10c03fcc 	andi	r3,r2,255
   85c84:	18c0201c 	xori	r3,r3,128
   85c88:	18ffe004 	addi	r3,r3,-128
   85c8c:	20800005 	stb	r2,0(r4)
   85c90:	1800051e 	bne	r3,zero,85ca8 <OSTimeDly+0x88>
   85c94:	28800d83 	ldbu	r2,54(r5)
   85c98:	38c00003 	ldbu	r3,0(r7)
   85c9c:	0084303a 	nor	r2,zero,r2
   85ca0:	10c4703a 	and	r2,r2,r3
   85ca4:	38800005 	stb	r2,0(r7)
   85ca8:	29800b8d 	sth	r6,46(r5)
   85cac:	4001703a 	wrctl	status,r8
   85cb0:	00820ac1 	jmpi	820ac <OS_Sched>
   85cb4:	f800283a 	ret

00085cb8 <OSTimeDlyHMSM>:
   85cb8:	defffb04 	addi	sp,sp,-20
   85cbc:	dc800215 	stw	r18,8(sp)
   85cc0:	dc400115 	stw	r17,4(sp)
   85cc4:	dfc00415 	stw	ra,16(sp)
   85cc8:	dcc00315 	stw	r19,12(sp)
   85ccc:	dc000015 	stw	r16,0(sp)
   85cd0:	008002b4 	movhi	r2,10
   85cd4:	108c9c04 	addi	r2,r2,12912
   85cd8:	10800003 	ldbu	r2,0(r2)
   85cdc:	2825883a 	mov	r18,r5
   85ce0:	3023883a 	mov	r17,r6
   85ce4:	10000226 	beq	r2,zero,85cf0 <OSTimeDlyHMSM+0x38>
   85ce8:	00801544 	movi	r2,85
   85cec:	00005306 	br	85e3c <OSTimeDlyHMSM+0x184>
   85cf0:	20803fcc 	andi	r2,r4,255
   85cf4:	1000081e 	bne	r2,zero,85d18 <OSTimeDlyHMSM+0x60>
   85cf8:	28803fcc 	andi	r2,r5,255
   85cfc:	1000061e 	bne	r2,zero,85d18 <OSTimeDlyHMSM+0x60>
   85d00:	30803fcc 	andi	r2,r6,255
   85d04:	1000091e 	bne	r2,zero,85d2c <OSTimeDlyHMSM+0x74>
   85d08:	38bfffcc 	andi	r2,r7,65535
   85d0c:	10000c1e 	bne	r2,zero,85d40 <OSTimeDlyHMSM+0x88>
   85d10:	00801504 	movi	r2,84
   85d14:	00004906 	br	85e3c <OSTimeDlyHMSM+0x184>
   85d18:	90c03fcc 	andi	r3,r18,255
   85d1c:	00800ec4 	movi	r2,59
   85d20:	10c0022e 	bgeu	r2,r3,85d2c <OSTimeDlyHMSM+0x74>
   85d24:	00801444 	movi	r2,81
   85d28:	00004406 	br	85e3c <OSTimeDlyHMSM+0x184>
   85d2c:	88c03fcc 	andi	r3,r17,255
   85d30:	00800ec4 	movi	r2,59
   85d34:	10c0022e 	bgeu	r2,r3,85d40 <OSTimeDlyHMSM+0x88>
   85d38:	00801484 	movi	r2,82
   85d3c:	00003f06 	br	85e3c <OSTimeDlyHMSM+0x184>
   85d40:	3cffffcc 	andi	r19,r7,65535
   85d44:	0080f9c4 	movi	r2,999
   85d48:	14c0022e 	bgeu	r2,r19,85d54 <OSTimeDlyHMSM+0x9c>
   85d4c:	008014c4 	movi	r2,83
   85d50:	00003a06 	br	85e3c <OSTimeDlyHMSM+0x184>
   85d54:	21003fcc 	andi	r4,r4,255
   85d58:	01438404 	movi	r5,3600
   85d5c:	00809980 	call	80998 <__mulsi3>
   85d60:	91003fcc 	andi	r4,r18,255
   85d64:	01400f04 	movi	r5,60
   85d68:	1021883a 	mov	r16,r2
   85d6c:	00809980 	call	80998 <__mulsi3>
   85d70:	80a1883a 	add	r16,r16,r2
   85d74:	89003fcc 	andi	r4,r17,255
   85d78:	8109883a 	add	r4,r16,r4
   85d7c:	00898680 	call	89868 <__floatunsidf>
   85d80:	045023f4 	movhi	r17,16527
   85d84:	8c500004 	addi	r17,r17,16384
   85d88:	0021883a 	mov	r16,zero
   85d8c:	800d883a 	mov	r6,r16
   85d90:	180b883a 	mov	r5,r3
   85d94:	880f883a 	mov	r7,r17
   85d98:	1009883a 	mov	r4,r2
   85d9c:	0088ff40 	call	88ff4 <__muldf3>
   85da0:	9809883a 	mov	r4,r19
   85da4:	1025883a 	mov	r18,r2
   85da8:	1827883a 	mov	r19,r3
   85dac:	00898680 	call	89868 <__floatunsidf>
   85db0:	0011883a 	mov	r8,zero
   85db4:	024ff834 	movhi	r9,16352
   85db8:	480f883a 	mov	r7,r9
   85dbc:	400d883a 	mov	r6,r8
   85dc0:	180b883a 	mov	r5,r3
   85dc4:	1009883a 	mov	r4,r2
   85dc8:	0088f800 	call	88f80 <__adddf3>
   85dcc:	180b883a 	mov	r5,r3
   85dd0:	000d883a 	mov	r6,zero
   85dd4:	880f883a 	mov	r7,r17
   85dd8:	1009883a 	mov	r4,r2
   85ddc:	0088ff40 	call	88ff4 <__muldf3>
   85de0:	180b883a 	mov	r5,r3
   85de4:	000d883a 	mov	r6,zero
   85de8:	880f883a 	mov	r7,r17
   85dec:	1009883a 	mov	r4,r2
   85df0:	00893b80 	call	893b8 <__divdf3>
   85df4:	180f883a 	mov	r7,r3
   85df8:	980b883a 	mov	r5,r19
   85dfc:	9009883a 	mov	r4,r18
   85e00:	100d883a 	mov	r6,r2
   85e04:	0088f800 	call	88f80 <__adddf3>
   85e08:	1009883a 	mov	r4,r2
   85e0c:	180b883a 	mov	r5,r3
   85e10:	00883e00 	call	883e0 <__fixunsdfsi>
   85e14:	1020d43a 	srli	r16,r2,16
   85e18:	113fffcc 	andi	r4,r2,65535
   85e1c:	00000206 	br	85e28 <OSTimeDlyHMSM+0x170>
   85e20:	0085c200 	call	85c20 <OSTimeDly>
   85e24:	01200014 	movui	r4,32768
   85e28:	0085c200 	call	85c20 <OSTimeDly>
   85e2c:	80bfffcc 	andi	r2,r16,65535
   85e30:	01200014 	movui	r4,32768
   85e34:	843fffc4 	addi	r16,r16,-1
   85e38:	103ff91e 	bne	r2,zero,85e20 <OSTimeDlyHMSM+0x168>
   85e3c:	dfc00417 	ldw	ra,16(sp)
   85e40:	dcc00317 	ldw	r19,12(sp)
   85e44:	dc800217 	ldw	r18,8(sp)
   85e48:	dc400117 	ldw	r17,4(sp)
   85e4c:	dc000017 	ldw	r16,0(sp)
   85e50:	dec00504 	addi	sp,sp,20
   85e54:	f800283a 	ret

00085e58 <OSTimeDlyResume>:
   85e58:	deffff04 	addi	sp,sp,-4
   85e5c:	21003fcc 	andi	r4,r4,255
   85e60:	008004c4 	movi	r2,19
   85e64:	dfc00015 	stw	ra,0(sp)
   85e68:	1100022e 	bgeu	r2,r4,85e74 <OSTimeDlyResume+0x1c>
   85e6c:	00800a84 	movi	r2,42
   85e70:	00003406 	br	85f44 <OSTimeDlyResume+0xec>
   85e74:	000d303a 	rdctl	r6,status
   85e78:	00bfff84 	movi	r2,-2
   85e7c:	3084703a 	and	r2,r6,r2
   85e80:	1001703a 	wrctl	status,r2
   85e84:	2105883a 	add	r2,r4,r4
   85e88:	1085883a 	add	r2,r2,r2
   85e8c:	00c002b4 	movhi	r3,10
   85e90:	18dbfb04 	addi	r3,r3,28652
   85e94:	10c5883a 	add	r2,r2,r3
   85e98:	11400017 	ldw	r5,0(r2)
   85e9c:	28000226 	beq	r5,zero,85ea8 <OSTimeDlyResume+0x50>
   85ea0:	01000044 	movi	r4,1
   85ea4:	2900031e 	bne	r5,r4,85eb4 <OSTimeDlyResume+0x5c>
   85ea8:	3001703a 	wrctl	status,r6
   85eac:	008010c4 	movi	r2,67
   85eb0:	00002406 	br	85f44 <OSTimeDlyResume+0xec>
   85eb4:	28800b8b 	ldhu	r2,46(r5)
   85eb8:	1000031e 	bne	r2,zero,85ec8 <OSTimeDlyResume+0x70>
   85ebc:	3001703a 	wrctl	status,r6
   85ec0:	00801404 	movi	r2,80
   85ec4:	00001f06 	br	85f44 <OSTimeDlyResume+0xec>
   85ec8:	28c00c03 	ldbu	r3,48(r5)
   85ecc:	28000b8d 	sth	zero,46(r5)
   85ed0:	18800dcc 	andi	r2,r3,55
   85ed4:	10000426 	beq	r2,zero,85ee8 <OSTimeDlyResume+0x90>
   85ed8:	1880320c 	andi	r2,r3,200
   85edc:	28800c05 	stb	r2,48(r5)
   85ee0:	29000c45 	stb	r4,49(r5)
   85ee4:	00000106 	br	85eec <OSTimeDlyResume+0x94>
   85ee8:	28000c45 	stb	zero,49(r5)
   85eec:	28800c03 	ldbu	r2,48(r5)
   85ef0:	1080020c 	andi	r2,r2,8
   85ef4:	1000111e 	bne	r2,zero,85f3c <OSTimeDlyResume+0xe4>
   85ef8:	010002b4 	movhi	r4,10
   85efc:	210c9a04 	addi	r4,r4,12904
   85f00:	28c00d83 	ldbu	r3,54(r5)
   85f04:	20800003 	ldbu	r2,0(r4)
   85f08:	10c4b03a 	or	r2,r2,r3
   85f0c:	20800005 	stb	r2,0(r4)
   85f10:	28c00d03 	ldbu	r3,52(r5)
   85f14:	008002b4 	movhi	r2,10
   85f18:	108c9a44 	addi	r2,r2,12905
   85f1c:	29000d43 	ldbu	r4,53(r5)
   85f20:	1887883a 	add	r3,r3,r2
   85f24:	18800003 	ldbu	r2,0(r3)
   85f28:	1104b03a 	or	r2,r2,r4
   85f2c:	18800005 	stb	r2,0(r3)
   85f30:	3001703a 	wrctl	status,r6
   85f34:	00820ac0 	call	820ac <OS_Sched>
   85f38:	00000106 	br	85f40 <OSTimeDlyResume+0xe8>
   85f3c:	3001703a 	wrctl	status,r6
   85f40:	0005883a 	mov	r2,zero
   85f44:	dfc00017 	ldw	ra,0(sp)
   85f48:	dec00104 	addi	sp,sp,4
   85f4c:	f800283a 	ret

00085f50 <OSTimeGet>:
   85f50:	0007303a 	rdctl	r3,status
   85f54:	00bfff84 	movi	r2,-2
   85f58:	1884703a 	and	r2,r3,r2
   85f5c:	1001703a 	wrctl	status,r2
   85f60:	008002b4 	movhi	r2,10
   85f64:	108c9f04 	addi	r2,r2,12924
   85f68:	10800017 	ldw	r2,0(r2)
   85f6c:	1801703a 	wrctl	status,r3
   85f70:	f800283a 	ret

00085f74 <OSTmr_Free>:
   85f74:	00800fc4 	movi	r2,63
   85f78:	20800805 	stb	r2,32(r4)
   85f7c:	20000c45 	stb	zero,49(r4)
   85f80:	20000c05 	stb	zero,48(r4)
   85f84:	20000845 	stb	zero,33(r4)
   85f88:	018002b4 	movhi	r6,10
   85f8c:	318c8f04 	addi	r6,r6,12860
   85f90:	01c002b4 	movhi	r7,10
   85f94:	39cc9304 	addi	r7,r7,12876
   85f98:	014002b4 	movhi	r5,10
   85f9c:	294c8a04 	addi	r5,r5,12840
   85fa0:	3080000b 	ldhu	r2,0(r6)
   85fa4:	38c0000b 	ldhu	r3,0(r7)
   85fa8:	2a000017 	ldw	r8,0(r5)
   85fac:	10bfffc4 	addi	r2,r2,-1
   85fb0:	18c00044 	addi	r3,r3,1
   85fb4:	29000015 	stw	r4,0(r5)
   85fb8:	3080000d 	sth	r2,0(r6)
   85fbc:	38c0000d 	sth	r3,0(r7)
   85fc0:	22000315 	stw	r8,12(r4)
   85fc4:	20000715 	stw	zero,28(r4)
   85fc8:	20000515 	stw	zero,20(r4)
   85fcc:	20000115 	stw	zero,4(r4)
   85fd0:	20000215 	stw	zero,8(r4)
   85fd4:	20000415 	stw	zero,16(r4)
   85fd8:	f800283a 	ret

00085fdc <OSTmr_Link>:
   85fdc:	008000c4 	movi	r2,3
   85fe0:	20800c45 	stb	r2,49(r4)
   85fe4:	29403fcc 	andi	r5,r5,255
   85fe8:	00800044 	movi	r2,1
   85fec:	2880031e 	bne	r5,r2,85ffc <OSTmr_Link+0x20>
   85ff0:	008002b4 	movhi	r2,10
   85ff4:	108c9e04 	addi	r2,r2,12920
   85ff8:	00000406 	br	8600c <OSTmr_Link+0x30>
   85ffc:	21400617 	ldw	r5,24(r4)
   86000:	008002b4 	movhi	r2,10
   86004:	108c9e04 	addi	r2,r2,12920
   86008:	2800041e 	bne	r5,zero,8601c <OSTmr_Link+0x40>
   8600c:	10c00017 	ldw	r3,0(r2)
   86010:	20800717 	ldw	r2,28(r4)
   86014:	10c5883a 	add	r2,r2,r3
   86018:	00000206 	br	86024 <OSTmr_Link+0x48>
   8601c:	10800017 	ldw	r2,0(r2)
   86020:	2885883a 	add	r2,r5,r2
   86024:	20800515 	stw	r2,20(r4)
   86028:	20800517 	ldw	r2,20(r4)
   8602c:	00c002b4 	movhi	r3,10
   86030:	18ccb304 	addi	r3,r3,13004
   86034:	1080004c 	andi	r2,r2,1
   86038:	100490fa 	slli	r2,r2,3
   8603c:	10c7883a 	add	r3,r2,r3
   86040:	19400017 	ldw	r5,0(r3)
   86044:	2800051e 	bne	r5,zero,8605c <OSTmr_Link+0x80>
   86048:	00800044 	movi	r2,1
   8604c:	1880010d 	sth	r2,4(r3)
   86050:	19000015 	stw	r4,0(r3)
   86054:	20000315 	stw	zero,12(r4)
   86058:	00000606 	br	86074 <OSTmr_Link+0x98>
   8605c:	1880010b 	ldhu	r2,4(r3)
   86060:	19000015 	stw	r4,0(r3)
   86064:	21400315 	stw	r5,12(r4)
   86068:	10800044 	addi	r2,r2,1
   8606c:	1880010d 	sth	r2,4(r3)
   86070:	29000415 	stw	r4,16(r5)
   86074:	20000415 	stw	zero,16(r4)
   86078:	f800283a 	ret

0008607c <OSTmr_Unlink>:
   8607c:	20800517 	ldw	r2,20(r4)
   86080:	00c002b4 	movhi	r3,10
   86084:	18ccb304 	addi	r3,r3,13004
   86088:	21400317 	ldw	r5,12(r4)
   8608c:	1080004c 	andi	r2,r2,1
   86090:	100490fa 	slli	r2,r2,3
   86094:	10c7883a 	add	r3,r2,r3
   86098:	18800017 	ldw	r2,0(r3)
   8609c:	1100041e 	bne	r2,r4,860b0 <OSTmr_Unlink+0x34>
   860a0:	19400015 	stw	r5,0(r3)
   860a4:	28000626 	beq	r5,zero,860c0 <OSTmr_Unlink+0x44>
   860a8:	28000415 	stw	zero,16(r5)
   860ac:	00000406 	br	860c0 <OSTmr_Unlink+0x44>
   860b0:	20800417 	ldw	r2,16(r4)
   860b4:	11400315 	stw	r5,12(r2)
   860b8:	28000126 	beq	r5,zero,860c0 <OSTmr_Unlink+0x44>
   860bc:	28800415 	stw	r2,16(r5)
   860c0:	00800044 	movi	r2,1
   860c4:	20800c45 	stb	r2,49(r4)
   860c8:	1880010b 	ldhu	r2,4(r3)
   860cc:	20000415 	stw	zero,16(r4)
   860d0:	20000315 	stw	zero,12(r4)
   860d4:	10bfffc4 	addi	r2,r2,-1
   860d8:	1880010d 	sth	r2,4(r3)
   860dc:	f800283a 	ret

000860e0 <OSTmr_Init>:
   860e0:	defff804 	addi	sp,sp,-32
   860e4:	010002b4 	movhi	r4,10
   860e8:	210d9304 	addi	r4,r4,13900
   860ec:	0140d004 	movi	r5,832
   860f0:	dfc00715 	stw	ra,28(sp)
   860f4:	dc000615 	stw	r16,24(sp)
   860f8:	0081f9c0 	call	81f9c <OS_MemClr>
   860fc:	010002b4 	movhi	r4,10
   86100:	210cb304 	addi	r4,r4,13004
   86104:	01400404 	movi	r5,16
   86108:	0081f9c0 	call	81f9c <OS_MemClr>
   8610c:	01c002b4 	movhi	r7,10
   86110:	39cda004 	addi	r7,r7,13952
   86114:	02001904 	movi	r8,100
   86118:	02400fc4 	movi	r9,63
   8611c:	3880c304 	addi	r2,r7,780
   86120:	3a3ff305 	stb	r8,-52(r7)
   86124:	383fff45 	stb	zero,-3(r7)
   86128:	39fff615 	stw	r7,-40(r7)
   8612c:	3a7ffb05 	stb	r9,-20(r7)
   86130:	383ffb45 	stb	zero,-19(r7)
   86134:	39c00d04 	addi	r7,r7,52
   86138:	38bff91e 	bne	r7,r2,86120 <OSTmr_Init+0x40>
   8613c:	00c00404 	movi	r3,16
   86140:	008002b4 	movhi	r2,10
   86144:	108c9304 	addi	r2,r2,12876
   86148:	10c0000d 	sth	r3,0(r2)
   8614c:	39bf3004 	addi	r6,r7,-832
   86150:	008002b4 	movhi	r2,10
   86154:	108c8a04 	addi	r2,r2,12840
   86158:	397ff304 	addi	r5,r7,-52
   8615c:	11800015 	stw	r6,0(r2)
   86160:	3a3ff305 	stb	r8,-52(r7)
   86164:	2a400805 	stb	r9,32(r5)
   86168:	28000845 	stb	zero,33(r5)
   8616c:	008002b4 	movhi	r2,10
   86170:	108c9e04 	addi	r2,r2,12920
   86174:	10000015 	stw	zero,0(r2)
   86178:	008002b4 	movhi	r2,10
   8617c:	108c8f04 	addi	r2,r2,12860
   86180:	1000000d 	sth	zero,0(r2)
   86184:	28000c45 	stb	zero,49(r5)
   86188:	28000315 	stw	zero,12(r5)
   8618c:	01000044 	movi	r4,1
   86190:	00848500 	call	84850 <OSSemCreate>
   86194:	040002b4 	movhi	r16,10
   86198:	840ca004 	addi	r16,r16,12928
   8619c:	0009883a 	mov	r4,zero
   861a0:	80800015 	stw	r2,0(r16)
   861a4:	00848500 	call	84850 <OSSemCreate>
   861a8:	81000017 	ldw	r4,0(r16)
   861ac:	040002b4 	movhi	r16,10
   861b0:	840c8c04 	addi	r16,r16,12848
   861b4:	80800015 	stw	r2,0(r16)
   861b8:	d9800504 	addi	r6,sp,20
   861bc:	01400274 	movhi	r5,9
   861c0:	29684204 	addi	r5,r5,-24312
   861c4:	0082d100 	call	82d10 <OSEventNameSet>
   861c8:	81000017 	ldw	r4,0(r16)
   861cc:	d9800504 	addi	r6,sp,20
   861d0:	01400274 	movhi	r5,9
   861d4:	29684704 	addi	r5,r5,-24292
   861d8:	0082d100 	call	82d10 <OSEventNameSet>
   861dc:	00bfff54 	movui	r2,65533
   861e0:	00c002b4 	movhi	r3,10
   861e4:	18d3e704 	addi	r3,r3,20380
   861e8:	d8800015 	stw	r2,0(sp)
   861ec:	00808004 	movi	r2,512
   861f0:	1981ff04 	addi	r6,r3,2044
   861f4:	000f883a 	mov	r7,zero
   861f8:	d8800215 	stw	r2,8(sp)
   861fc:	01000234 	movhi	r4,8
   86200:	21189f04 	addi	r4,r4,25212
   86204:	000b883a 	mov	r5,zero
   86208:	008000c4 	movi	r2,3
   8620c:	d8c00115 	stw	r3,4(sp)
   86210:	d8800415 	stw	r2,16(sp)
   86214:	d8000315 	stw	zero,12(sp)
   86218:	00852280 	call	85228 <OSTaskCreateExt>
   8621c:	0009883a 	mov	r4,zero
   86220:	01400274 	movhi	r5,9
   86224:	29684c04 	addi	r5,r5,-24272
   86228:	d9800544 	addi	r6,sp,21
   8622c:	00857a80 	call	857a8 <OSTaskNameSet>
   86230:	dfc00717 	ldw	ra,28(sp)
   86234:	dc000617 	ldw	r16,24(sp)
   86238:	dec00804 	addi	sp,sp,32
   8623c:	f800283a 	ret

00086240 <OSTmr_Lock>:
   86240:	008002b4 	movhi	r2,10
   86244:	108ca004 	addi	r2,r2,12928
   86248:	11000017 	ldw	r4,0(r2)
   8624c:	defffe04 	addi	sp,sp,-8
   86250:	000b883a 	mov	r5,zero
   86254:	d80d883a 	mov	r6,sp
   86258:	dfc00115 	stw	ra,4(sp)
   8625c:	0084a300 	call	84a30 <OSSemPend>
   86260:	dfc00117 	ldw	ra,4(sp)
   86264:	dec00204 	addi	sp,sp,8
   86268:	f800283a 	ret

0008626c <OSTmr_Unlock>:
   8626c:	008002b4 	movhi	r2,10
   86270:	108ca004 	addi	r2,r2,12928
   86274:	11000017 	ldw	r4,0(r2)
   86278:	0084c841 	jmpi	84c84 <OSSemPost>

0008627c <OSTmr_Task>:
   8627c:	defffc04 	addi	sp,sp,-16
   86280:	dfc00315 	stw	ra,12(sp)
   86284:	dc400215 	stw	r17,8(sp)
   86288:	dc000115 	stw	r16,4(sp)
   8628c:	008002b4 	movhi	r2,10
   86290:	108c8c04 	addi	r2,r2,12848
   86294:	11000017 	ldw	r4,0(r2)
   86298:	000b883a 	mov	r5,zero
   8629c:	d80d883a 	mov	r6,sp
   862a0:	0084a300 	call	84a30 <OSSemPend>
   862a4:	00862400 	call	86240 <OSTmr_Lock>
   862a8:	010002b4 	movhi	r4,10
   862ac:	210c9e04 	addi	r4,r4,12920
   862b0:	20800017 	ldw	r2,0(r4)
   862b4:	10800044 	addi	r2,r2,1
   862b8:	10c0004c 	andi	r3,r2,1
   862bc:	180690fa 	slli	r3,r3,3
   862c0:	20800015 	stw	r2,0(r4)
   862c4:	008002b4 	movhi	r2,10
   862c8:	108cb304 	addi	r2,r2,13004
   862cc:	1887883a 	add	r3,r3,r2
   862d0:	1c000017 	ldw	r16,0(r3)
   862d4:	00001606 	br	86330 <OSTmr_Task+0xb4>
   862d8:	008002b4 	movhi	r2,10
   862dc:	108c9e04 	addi	r2,r2,12920
   862e0:	10c00017 	ldw	r3,0(r2)
   862e4:	80800517 	ldw	r2,20(r16)
   862e8:	84400317 	ldw	r17,12(r16)
   862ec:	18800f1e 	bne	r3,r2,8632c <OSTmr_Task+0xb0>
   862f0:	80800117 	ldw	r2,4(r16)
   862f4:	8009883a 	mov	r4,r16
   862f8:	10000226 	beq	r2,zero,86304 <OSTmr_Task+0x88>
   862fc:	81400217 	ldw	r5,8(r16)
   86300:	103ee83a 	callr	r2
   86304:	8009883a 	mov	r4,r16
   86308:	008607c0 	call	8607c <OSTmr_Unlink>
   8630c:	80800c03 	ldbu	r2,48(r16)
   86310:	00c00084 	movi	r3,2
   86314:	01400044 	movi	r5,1
   86318:	8009883a 	mov	r4,r16
   8631c:	10c0021e 	bne	r2,r3,86328 <OSTmr_Task+0xac>
   86320:	0085fdc0 	call	85fdc <OSTmr_Link>
   86324:	00000106 	br	8632c <OSTmr_Task+0xb0>
   86328:	80c00c45 	stb	r3,49(r16)
   8632c:	8821883a 	mov	r16,r17
   86330:	803fe91e 	bne	r16,zero,862d8 <OSTmr_Task+0x5c>
   86334:	008626c0 	call	8626c <OSTmr_Unlock>
   86338:	003fd406 	br	8628c <OSTmr_Task+0x10>

0008633c <OSTmrStop>:
   8633c:	defffa04 	addi	sp,sp,-24
   86340:	dd000415 	stw	r20,16(sp)
   86344:	dcc00315 	stw	r19,12(sp)
   86348:	dc800215 	stw	r18,8(sp)
   8634c:	dc000015 	stw	r16,0(sp)
   86350:	dfc00515 	stw	ra,20(sp)
   86354:	dc400115 	stw	r17,4(sp)
   86358:	3825883a 	mov	r18,r7
   8635c:	2021883a 	mov	r16,r4
   86360:	3029883a 	mov	r20,r6
   86364:	2827883a 	mov	r19,r5
   86368:	38004126 	beq	r7,zero,86470 <OSTmrStop+0x134>
   8636c:	2000031e 	bne	r4,zero,8637c <OSTmrStop+0x40>
   86370:	0007883a 	mov	r3,zero
   86374:	00bfe284 	movi	r2,-118
   86378:	00003806 	br	8645c <OSTmrStop+0x120>
   8637c:	20c00003 	ldbu	r3,0(r4)
   86380:	00801904 	movi	r2,100
   86384:	18800326 	beq	r3,r2,86394 <OSTmrStop+0x58>
   86388:	0007883a 	mov	r3,zero
   8638c:	00bfe244 	movi	r2,-119
   86390:	00003206 	br	8645c <OSTmrStop+0x120>
   86394:	008002b4 	movhi	r2,10
   86398:	108c9c04 	addi	r2,r2,12912
   8639c:	10800003 	ldbu	r2,0(r2)
   863a0:	10000326 	beq	r2,zero,863b0 <OSTmrStop+0x74>
   863a4:	0007883a 	mov	r3,zero
   863a8:	00bfe2c4 	movi	r2,-117
   863ac:	00002b06 	br	8645c <OSTmrStop+0x120>
   863b0:	00862400 	call	86240 <OSTmr_Lock>
   863b4:	84400c43 	ldbu	r17,49(r16)
   863b8:	00800084 	movi	r2,2
   863bc:	14400336 	bltu	r2,r17,863cc <OSTmrStop+0x90>
   863c0:	04000044 	movi	r16,1
   863c4:	8c001e2e 	bgeu	r17,r16,86440 <OSTmrStop+0x104>
   863c8:	00002106 	br	86450 <OSTmrStop+0x114>
   863cc:	008000c4 	movi	r2,3
   863d0:	8880241e 	bne	r17,r2,86464 <OSTmrStop+0x128>
   863d4:	8009883a 	mov	r4,r16
   863d8:	008607c0 	call	8607c <OSTmr_Unlink>
   863dc:	99403fcc 	andi	r5,r19,255
   863e0:	90000005 	stb	zero,0(r18)
   863e4:	2c400426 	beq	r5,r17,863f8 <OSTmrStop+0xbc>
   863e8:	00800104 	movi	r2,4
   863ec:	28800726 	beq	r5,r2,8640c <OSTmrStop+0xd0>
   863f0:	28001026 	beq	r5,zero,86434 <OSTmrStop+0xf8>
   863f4:	00000d06 	br	8642c <OSTmrStop+0xf0>
   863f8:	80800117 	ldw	r2,4(r16)
   863fc:	10000926 	beq	r2,zero,86424 <OSTmrStop+0xe8>
   86400:	81400217 	ldw	r5,8(r16)
   86404:	8009883a 	mov	r4,r16
   86408:	00000406 	br	8641c <OSTmrStop+0xe0>
   8640c:	80800117 	ldw	r2,4(r16)
   86410:	10000426 	beq	r2,zero,86424 <OSTmrStop+0xe8>
   86414:	8009883a 	mov	r4,r16
   86418:	a00b883a 	mov	r5,r20
   8641c:	103ee83a 	callr	r2
   86420:	00000406 	br	86434 <OSTmrStop+0xf8>
   86424:	00bfe3c4 	movi	r2,-113
   86428:	00000106 	br	86430 <OSTmrStop+0xf4>
   8642c:	00bfe104 	movi	r2,-124
   86430:	90800005 	stb	r2,0(r18)
   86434:	008626c0 	call	8626c <OSTmr_Unlock>
   86438:	00c00044 	movi	r3,1
   8643c:	00000d06 	br	86474 <OSTmrStop+0x138>
   86440:	008626c0 	call	8626c <OSTmr_Unlock>
   86444:	8007883a 	mov	r3,r16
   86448:	00bfe384 	movi	r2,-114
   8644c:	00000306 	br	8645c <OSTmrStop+0x120>
   86450:	008626c0 	call	8626c <OSTmr_Unlock>
   86454:	0007883a 	mov	r3,zero
   86458:	00bfe1c4 	movi	r2,-121
   8645c:	90800005 	stb	r2,0(r18)
   86460:	00000406 	br	86474 <OSTmrStop+0x138>
   86464:	008626c0 	call	8626c <OSTmr_Unlock>
   86468:	00bfe344 	movi	r2,-115
   8646c:	90800005 	stb	r2,0(r18)
   86470:	0007883a 	mov	r3,zero
   86474:	1805883a 	mov	r2,r3
   86478:	dfc00517 	ldw	ra,20(sp)
   8647c:	dd000417 	ldw	r20,16(sp)
   86480:	dcc00317 	ldw	r19,12(sp)
   86484:	dc800217 	ldw	r18,8(sp)
   86488:	dc400117 	ldw	r17,4(sp)
   8648c:	dc000017 	ldw	r16,0(sp)
   86490:	dec00604 	addi	sp,sp,24
   86494:	f800283a 	ret

00086498 <OSTmrStart>:
   86498:	defffc04 	addi	sp,sp,-16
   8649c:	dc400115 	stw	r17,4(sp)
   864a0:	dc000015 	stw	r16,0(sp)
   864a4:	dfc00315 	stw	ra,12(sp)
   864a8:	dc800215 	stw	r18,8(sp)
   864ac:	2823883a 	mov	r17,r5
   864b0:	2021883a 	mov	r16,r4
   864b4:	28003126 	beq	r5,zero,8657c <OSTmrStart+0xe4>
   864b8:	2000031e 	bne	r4,zero,864c8 <OSTmrStart+0x30>
   864bc:	0007883a 	mov	r3,zero
   864c0:	00bfe284 	movi	r2,-118
   864c4:	00002806 	br	86568 <OSTmrStart+0xd0>
   864c8:	20c00003 	ldbu	r3,0(r4)
   864cc:	00801904 	movi	r2,100
   864d0:	18800326 	beq	r3,r2,864e0 <OSTmrStart+0x48>
   864d4:	0007883a 	mov	r3,zero
   864d8:	00bfe244 	movi	r2,-119
   864dc:	00002206 	br	86568 <OSTmrStart+0xd0>
   864e0:	008002b4 	movhi	r2,10
   864e4:	108c9c04 	addi	r2,r2,12912
   864e8:	10800003 	ldbu	r2,0(r2)
   864ec:	10000326 	beq	r2,zero,864fc <OSTmrStart+0x64>
   864f0:	0007883a 	mov	r3,zero
   864f4:	00bfe2c4 	movi	r2,-117
   864f8:	00001b06 	br	86568 <OSTmrStart+0xd0>
   864fc:	00862400 	call	86240 <OSTmr_Lock>
   86500:	80c00c43 	ldbu	r3,49(r16)
   86504:	00800084 	movi	r2,2
   86508:	10c00336 	bltu	r2,r3,86518 <OSTmrStart+0x80>
   8650c:	04800044 	movi	r18,1
   86510:	1c800b2e 	bgeu	r3,r18,86540 <OSTmrStart+0xa8>
   86514:	00001106 	br	8655c <OSTmrStart+0xc4>
   86518:	008000c4 	movi	r2,3
   8651c:	1880141e 	bne	r3,r2,86570 <OSTmrStart+0xd8>
   86520:	8009883a 	mov	r4,r16
   86524:	008607c0 	call	8607c <OSTmr_Unlink>
   86528:	000b883a 	mov	r5,zero
   8652c:	8009883a 	mov	r4,r16
   86530:	0085fdc0 	call	85fdc <OSTmr_Link>
   86534:	008626c0 	call	8626c <OSTmr_Unlock>
   86538:	00c00044 	movi	r3,1
   8653c:	00000506 	br	86554 <OSTmrStart+0xbc>
   86540:	8009883a 	mov	r4,r16
   86544:	000b883a 	mov	r5,zero
   86548:	0085fdc0 	call	85fdc <OSTmr_Link>
   8654c:	008626c0 	call	8626c <OSTmr_Unlock>
   86550:	9007883a 	mov	r3,r18
   86554:	88000005 	stb	zero,0(r17)
   86558:	00000906 	br	86580 <OSTmrStart+0xe8>
   8655c:	008626c0 	call	8626c <OSTmr_Unlock>
   86560:	0007883a 	mov	r3,zero
   86564:	00bfe1c4 	movi	r2,-121
   86568:	88800005 	stb	r2,0(r17)
   8656c:	00000406 	br	86580 <OSTmrStart+0xe8>
   86570:	008626c0 	call	8626c <OSTmr_Unlock>
   86574:	00bfe344 	movi	r2,-115
   86578:	88800005 	stb	r2,0(r17)
   8657c:	0007883a 	mov	r3,zero
   86580:	1805883a 	mov	r2,r3
   86584:	dfc00317 	ldw	ra,12(sp)
   86588:	dc800217 	ldw	r18,8(sp)
   8658c:	dc400117 	ldw	r17,4(sp)
   86590:	dc000017 	ldw	r16,0(sp)
   86594:	dec00404 	addi	sp,sp,16
   86598:	f800283a 	ret

0008659c <OSTmrStateGet>:
   8659c:	defffd04 	addi	sp,sp,-12
   865a0:	dc000115 	stw	r16,4(sp)
   865a4:	dfc00215 	stw	ra,8(sp)
   865a8:	2021883a 	mov	r16,r4
   865ac:	2800021e 	bne	r5,zero,865b8 <OSTmrStateGet+0x1c>
   865b0:	0021883a 	mov	r16,zero
   865b4:	00001e06 	br	86630 <OSTmrStateGet+0x94>
   865b8:	2000021e 	bne	r4,zero,865c4 <OSTmrStateGet+0x28>
   865bc:	00bfe284 	movi	r2,-118
   865c0:	00000506 	br	865d8 <OSTmrStateGet+0x3c>
   865c4:	20c00003 	ldbu	r3,0(r4)
   865c8:	00801904 	movi	r2,100
   865cc:	18800426 	beq	r3,r2,865e0 <OSTmrStateGet+0x44>
   865d0:	0021883a 	mov	r16,zero
   865d4:	00bfe244 	movi	r2,-119
   865d8:	28800005 	stb	r2,0(r5)
   865dc:	00001406 	br	86630 <OSTmrStateGet+0x94>
   865e0:	008002b4 	movhi	r2,10
   865e4:	108c9c04 	addi	r2,r2,12912
   865e8:	10800003 	ldbu	r2,0(r2)
   865ec:	10000326 	beq	r2,zero,865fc <OSTmrStateGet+0x60>
   865f0:	0021883a 	mov	r16,zero
   865f4:	00bfe2c4 	movi	r2,-117
   865f8:	003ff706 	br	865d8 <OSTmrStateGet+0x3c>
   865fc:	d9400015 	stw	r5,0(sp)
   86600:	00862400 	call	86240 <OSTmr_Lock>
   86604:	81000c43 	ldbu	r4,49(r16)
   86608:	008000c4 	movi	r2,3
   8660c:	d9400017 	ldw	r5,0(sp)
   86610:	20c03fcc 	andi	r3,r4,255
   86614:	10c00236 	bltu	r2,r3,86620 <OSTmrStateGet+0x84>
   86618:	28000005 	stb	zero,0(r5)
   8661c:	00000206 	br	86628 <OSTmrStateGet+0x8c>
   86620:	00bfe344 	movi	r2,-115
   86624:	28800005 	stb	r2,0(r5)
   86628:	24003fcc 	andi	r16,r4,255
   8662c:	008626c0 	call	8626c <OSTmr_Unlock>
   86630:	8005883a 	mov	r2,r16
   86634:	dfc00217 	ldw	ra,8(sp)
   86638:	dc000117 	ldw	r16,4(sp)
   8663c:	dec00304 	addi	sp,sp,12
   86640:	f800283a 	ret

00086644 <OSTmrRemainGet>:
   86644:	defffc04 	addi	sp,sp,-16
   86648:	dc000115 	stw	r16,4(sp)
   8664c:	dfc00315 	stw	ra,12(sp)
   86650:	dc400215 	stw	r17,8(sp)
   86654:	2821883a 	mov	r16,r5
   86658:	28003926 	beq	r5,zero,86740 <OSTmrRemainGet+0xfc>
   8665c:	2000031e 	bne	r4,zero,8666c <OSTmrRemainGet+0x28>
   86660:	0023883a 	mov	r17,zero
   86664:	00bfe284 	movi	r2,-118
   86668:	00003006 	br	8672c <OSTmrRemainGet+0xe8>
   8666c:	20c00003 	ldbu	r3,0(r4)
   86670:	00801904 	movi	r2,100
   86674:	18800326 	beq	r3,r2,86684 <OSTmrRemainGet+0x40>
   86678:	0023883a 	mov	r17,zero
   8667c:	00bfe244 	movi	r2,-119
   86680:	00002a06 	br	8672c <OSTmrRemainGet+0xe8>
   86684:	008002b4 	movhi	r2,10
   86688:	108c9c04 	addi	r2,r2,12912
   8668c:	10800003 	ldbu	r2,0(r2)
   86690:	10000326 	beq	r2,zero,866a0 <OSTmrRemainGet+0x5c>
   86694:	0023883a 	mov	r17,zero
   86698:	00bfe2c4 	movi	r2,-117
   8669c:	00002306 	br	8672c <OSTmrRemainGet+0xe8>
   866a0:	d9000015 	stw	r4,0(sp)
   866a4:	00862400 	call	86240 <OSTmr_Lock>
   866a8:	d9000017 	ldw	r4,0(sp)
   866ac:	00800044 	movi	r2,1
   866b0:	20c00c43 	ldbu	r3,49(r4)
   866b4:	18800b26 	beq	r3,r2,866e4 <OSTmrRemainGet+0xa0>
   866b8:	18801936 	bltu	r3,r2,86720 <OSTmrRemainGet+0xdc>
   866bc:	00800084 	movi	r2,2
   866c0:	18801326 	beq	r3,r2,86710 <OSTmrRemainGet+0xcc>
   866c4:	008000c4 	movi	r2,3
   866c8:	18801a1e 	bne	r3,r2,86734 <OSTmrRemainGet+0xf0>
   866cc:	00c002b4 	movhi	r3,10
   866d0:	18cc9e04 	addi	r3,r3,12920
   866d4:	20800517 	ldw	r2,20(r4)
   866d8:	18c00017 	ldw	r3,0(r3)
   866dc:	10e3c83a 	sub	r17,r2,r3
   866e0:	00000906 	br	86708 <OSTmrRemainGet+0xc4>
   866e4:	20c00c03 	ldbu	r3,48(r4)
   866e8:	00800084 	movi	r2,2
   866ec:	21400617 	ldw	r5,24(r4)
   866f0:	1880041e 	bne	r3,r2,86704 <OSTmrRemainGet+0xc0>
   866f4:	2823883a 	mov	r17,r5
   866f8:	2800031e 	bne	r5,zero,86708 <OSTmrRemainGet+0xc4>
   866fc:	24400717 	ldw	r17,28(r4)
   86700:	00000106 	br	86708 <OSTmrRemainGet+0xc4>
   86704:	2823883a 	mov	r17,r5
   86708:	008626c0 	call	8626c <OSTmr_Unlock>
   8670c:	00000206 	br	86718 <OSTmrRemainGet+0xd4>
   86710:	008626c0 	call	8626c <OSTmr_Unlock>
   86714:	0023883a 	mov	r17,zero
   86718:	80000005 	stb	zero,0(r16)
   8671c:	00000906 	br	86744 <OSTmrRemainGet+0x100>
   86720:	008626c0 	call	8626c <OSTmr_Unlock>
   86724:	0023883a 	mov	r17,zero
   86728:	00bfe1c4 	movi	r2,-121
   8672c:	80800005 	stb	r2,0(r16)
   86730:	00000406 	br	86744 <OSTmrRemainGet+0x100>
   86734:	008626c0 	call	8626c <OSTmr_Unlock>
   86738:	00bfe344 	movi	r2,-115
   8673c:	80800005 	stb	r2,0(r16)
   86740:	0023883a 	mov	r17,zero
   86744:	8805883a 	mov	r2,r17
   86748:	dfc00317 	ldw	ra,12(sp)
   8674c:	dc400217 	ldw	r17,8(sp)
   86750:	dc000117 	ldw	r16,4(sp)
   86754:	dec00404 	addi	sp,sp,16
   86758:	f800283a 	ret

0008675c <OSTmrDel>:
   8675c:	defffc04 	addi	sp,sp,-16
   86760:	dc400115 	stw	r17,4(sp)
   86764:	dc000015 	stw	r16,0(sp)
   86768:	dfc00315 	stw	ra,12(sp)
   8676c:	dc800215 	stw	r18,8(sp)
   86770:	2823883a 	mov	r17,r5
   86774:	2021883a 	mov	r16,r4
   86778:	28002f26 	beq	r5,zero,86838 <OSTmrDel+0xdc>
   8677c:	2000031e 	bne	r4,zero,8678c <OSTmrDel+0x30>
   86780:	0007883a 	mov	r3,zero
   86784:	00bfe284 	movi	r2,-118
   86788:	00002606 	br	86824 <OSTmrDel+0xc8>
   8678c:	20c00003 	ldbu	r3,0(r4)
   86790:	00801904 	movi	r2,100
   86794:	18800326 	beq	r3,r2,867a4 <OSTmrDel+0x48>
   86798:	0007883a 	mov	r3,zero
   8679c:	00bfe244 	movi	r2,-119
   867a0:	00002006 	br	86824 <OSTmrDel+0xc8>
   867a4:	008002b4 	movhi	r2,10
   867a8:	108c9c04 	addi	r2,r2,12912
   867ac:	10800003 	ldbu	r2,0(r2)
   867b0:	10000326 	beq	r2,zero,867c0 <OSTmrDel+0x64>
   867b4:	0007883a 	mov	r3,zero
   867b8:	00bfe2c4 	movi	r2,-117
   867bc:	00001906 	br	86824 <OSTmrDel+0xc8>
   867c0:	00862400 	call	86240 <OSTmr_Lock>
   867c4:	80c00c43 	ldbu	r3,49(r16)
   867c8:	00800084 	movi	r2,2
   867cc:	10c00336 	bltu	r2,r3,867dc <OSTmrDel+0x80>
   867d0:	04800044 	movi	r18,1
   867d4:	1c800a2e 	bgeu	r3,r18,86800 <OSTmrDel+0xa4>
   867d8:	00000f06 	br	86818 <OSTmrDel+0xbc>
   867dc:	008000c4 	movi	r2,3
   867e0:	1880121e 	bne	r3,r2,8682c <OSTmrDel+0xd0>
   867e4:	8009883a 	mov	r4,r16
   867e8:	008607c0 	call	8607c <OSTmr_Unlink>
   867ec:	8009883a 	mov	r4,r16
   867f0:	0085f740 	call	85f74 <OSTmr_Free>
   867f4:	008626c0 	call	8626c <OSTmr_Unlock>
   867f8:	00c00044 	movi	r3,1
   867fc:	00000406 	br	86810 <OSTmrDel+0xb4>
   86800:	8009883a 	mov	r4,r16
   86804:	0085f740 	call	85f74 <OSTmr_Free>
   86808:	008626c0 	call	8626c <OSTmr_Unlock>
   8680c:	9007883a 	mov	r3,r18
   86810:	88000005 	stb	zero,0(r17)
   86814:	00000906 	br	8683c <OSTmrDel+0xe0>
   86818:	008626c0 	call	8626c <OSTmr_Unlock>
   8681c:	0007883a 	mov	r3,zero
   86820:	00bfe1c4 	movi	r2,-121
   86824:	88800005 	stb	r2,0(r17)
   86828:	00000406 	br	8683c <OSTmrDel+0xe0>
   8682c:	008626c0 	call	8626c <OSTmr_Unlock>
   86830:	00bfe344 	movi	r2,-115
   86834:	88800005 	stb	r2,0(r17)
   86838:	0007883a 	mov	r3,zero
   8683c:	1805883a 	mov	r2,r3
   86840:	dfc00317 	ldw	ra,12(sp)
   86844:	dc800217 	ldw	r18,8(sp)
   86848:	dc400117 	ldw	r17,4(sp)
   8684c:	dc000017 	ldw	r16,0(sp)
   86850:	dec00404 	addi	sp,sp,16
   86854:	f800283a 	ret

00086858 <OSTmrSignal>:
   86858:	008002b4 	movhi	r2,10
   8685c:	108c8c04 	addi	r2,r2,12848
   86860:	11000017 	ldw	r4,0(r2)
   86864:	deffff04 	addi	sp,sp,-4
   86868:	dfc00015 	stw	ra,0(sp)
   8686c:	0084c840 	call	84c84 <OSSemPost>
   86870:	10803fcc 	andi	r2,r2,255
   86874:	dfc00017 	ldw	ra,0(sp)
   86878:	dec00104 	addi	sp,sp,4
   8687c:	f800283a 	ret

00086880 <OSTmrNameGet>:
   86880:	defffc04 	addi	sp,sp,-16
   86884:	dc800215 	stw	r18,8(sp)
   86888:	dc400115 	stw	r17,4(sp)
   8688c:	dc000015 	stw	r16,0(sp)
   86890:	dfc00315 	stw	ra,12(sp)
   86894:	3023883a 	mov	r17,r6
   86898:	2021883a 	mov	r16,r4
   8689c:	2825883a 	mov	r18,r5
   868a0:	30002a26 	beq	r6,zero,8694c <OSTmrNameGet+0xcc>
   868a4:	2800031e 	bne	r5,zero,868b4 <OSTmrNameGet+0x34>
   868a8:	0007883a 	mov	r3,zero
   868ac:	00bfe204 	movi	r2,-120
   868b0:	00002106 	br	86938 <OSTmrNameGet+0xb8>
   868b4:	2000031e 	bne	r4,zero,868c4 <OSTmrNameGet+0x44>
   868b8:	0007883a 	mov	r3,zero
   868bc:	00bfe284 	movi	r2,-118
   868c0:	00001d06 	br	86938 <OSTmrNameGet+0xb8>
   868c4:	20c00003 	ldbu	r3,0(r4)
   868c8:	00801904 	movi	r2,100
   868cc:	18800326 	beq	r3,r2,868dc <OSTmrNameGet+0x5c>
   868d0:	0007883a 	mov	r3,zero
   868d4:	00bfe244 	movi	r2,-119
   868d8:	00001706 	br	86938 <OSTmrNameGet+0xb8>
   868dc:	008002b4 	movhi	r2,10
   868e0:	108c9c04 	addi	r2,r2,12912
   868e4:	10800003 	ldbu	r2,0(r2)
   868e8:	10000326 	beq	r2,zero,868f8 <OSTmrNameGet+0x78>
   868ec:	0007883a 	mov	r3,zero
   868f0:	00800444 	movi	r2,17
   868f4:	00001006 	br	86938 <OSTmrNameGet+0xb8>
   868f8:	00862400 	call	86240 <OSTmr_Lock>
   868fc:	80c00c43 	ldbu	r3,49(r16)
   86900:	18000a26 	beq	r3,zero,8692c <OSTmrNameGet+0xac>
   86904:	008000c4 	movi	r2,3
   86908:	10c00d36 	bltu	r2,r3,86940 <OSTmrNameGet+0xc0>
   8690c:	81400804 	addi	r5,r16,32
   86910:	9009883a 	mov	r4,r18
   86914:	0081fdc0 	call	81fdc <OS_StrCopy>
   86918:	1021883a 	mov	r16,r2
   8691c:	008626c0 	call	8626c <OSTmr_Unlock>
   86920:	80c03fcc 	andi	r3,r16,255
   86924:	88000005 	stb	zero,0(r17)
   86928:	00000906 	br	86950 <OSTmrNameGet+0xd0>
   8692c:	008626c0 	call	8626c <OSTmr_Unlock>
   86930:	0007883a 	mov	r3,zero
   86934:	00bfe1c4 	movi	r2,-121
   86938:	88800005 	stb	r2,0(r17)
   8693c:	00000406 	br	86950 <OSTmrNameGet+0xd0>
   86940:	008626c0 	call	8626c <OSTmr_Unlock>
   86944:	00bfe344 	movi	r2,-115
   86948:	88800005 	stb	r2,0(r17)
   8694c:	0007883a 	mov	r3,zero
   86950:	1805883a 	mov	r2,r3
   86954:	dfc00317 	ldw	ra,12(sp)
   86958:	dc800217 	ldw	r18,8(sp)
   8695c:	dc400117 	ldw	r17,4(sp)
   86960:	dc000017 	ldw	r16,0(sp)
   86964:	dec00404 	addi	sp,sp,16
   86968:	f800283a 	ret

0008696c <OSTmrCreate>:
   8696c:	defff804 	addi	sp,sp,-32
   86970:	dc000015 	stw	r16,0(sp)
   86974:	dc000a17 	ldw	r16,40(sp)
   86978:	dd400515 	stw	r21,20(sp)
   8697c:	dd000415 	stw	r20,16(sp)
   86980:	dcc00315 	stw	r19,12(sp)
   86984:	dc800215 	stw	r18,8(sp)
   86988:	dc400115 	stw	r17,4(sp)
   8698c:	dfc00715 	stw	ra,28(sp)
   86990:	dd800615 	stw	r22,24(sp)
   86994:	2027883a 	mov	r19,r4
   86998:	2829883a 	mov	r20,r5
   8699c:	382b883a 	mov	r21,r7
   869a0:	3025883a 	mov	r18,r6
   869a4:	dc400917 	ldw	r17,36(sp)
   869a8:	8000021e 	bne	r16,zero,869b4 <OSTmrCreate+0x48>
   869ac:	002d883a 	mov	r22,zero
   869b0:	00004a06 	br	86adc <OSTmrCreate+0x170>
   869b4:	30c03fcc 	andi	r3,r6,255
   869b8:	00800044 	movi	r2,1
   869bc:	18800626 	beq	r3,r2,869d8 <OSTmrCreate+0x6c>
   869c0:	00800084 	movi	r2,2
   869c4:	1880091e 	bne	r3,r2,869ec <OSTmrCreate+0x80>
   869c8:	28000b1e 	bne	r5,zero,869f8 <OSTmrCreate+0x8c>
   869cc:	002d883a 	mov	r22,zero
   869d0:	00bfe0c4 	movi	r2,-125
   869d4:	00000306 	br	869e4 <OSTmrCreate+0x78>
   869d8:	2000071e 	bne	r4,zero,869f8 <OSTmrCreate+0x8c>
   869dc:	002d883a 	mov	r22,zero
   869e0:	00bfe084 	movi	r2,-126
   869e4:	80800005 	stb	r2,0(r16)
   869e8:	00003c06 	br	86adc <OSTmrCreate+0x170>
   869ec:	002d883a 	mov	r22,zero
   869f0:	00bfe104 	movi	r2,-124
   869f4:	003ffb06 	br	869e4 <OSTmrCreate+0x78>
   869f8:	008002b4 	movhi	r2,10
   869fc:	108c9c04 	addi	r2,r2,12912
   86a00:	10800003 	ldbu	r2,0(r2)
   86a04:	10000326 	beq	r2,zero,86a14 <OSTmrCreate+0xa8>
   86a08:	002d883a 	mov	r22,zero
   86a0c:	00bfe2c4 	movi	r2,-117
   86a10:	003ff406 	br	869e4 <OSTmrCreate+0x78>
   86a14:	00862400 	call	86240 <OSTmr_Lock>
   86a18:	01c002b4 	movhi	r7,10
   86a1c:	39cc8a04 	addi	r7,r7,12840
   86a20:	3d800017 	ldw	r22,0(r7)
   86a24:	b0001826 	beq	r22,zero,86a88 <OSTmrCreate+0x11c>
   86a28:	014002b4 	movhi	r5,10
   86a2c:	294c8f04 	addi	r5,r5,12860
   86a30:	018002b4 	movhi	r6,10
   86a34:	318c9304 	addi	r6,r6,12876
   86a38:	2880000b 	ldhu	r2,0(r5)
   86a3c:	30c0000b 	ldhu	r3,0(r6)
   86a40:	b1000317 	ldw	r4,12(r22)
   86a44:	10800044 	addi	r2,r2,1
   86a48:	18ffffc4 	addi	r3,r3,-1
   86a4c:	2880000d 	sth	r2,0(r5)
   86a50:	39000015 	stw	r4,0(r7)
   86a54:	30c0000d 	sth	r3,0(r6)
   86a58:	00800044 	movi	r2,1
   86a5c:	b0800c45 	stb	r2,49(r22)
   86a60:	b4800c05 	stb	r18,48(r22)
   86a64:	d8800817 	ldw	r2,32(sp)
   86a68:	b4c00615 	stw	r19,24(r22)
   86a6c:	b5000715 	stw	r20,28(r22)
   86a70:	b5400115 	stw	r21,4(r22)
   86a74:	b0800215 	stw	r2,8(r22)
   86a78:	b0000315 	stw	zero,12(r22)
   86a7c:	b0000415 	stw	zero,16(r22)
   86a80:	8800041e 	bne	r17,zero,86a94 <OSTmrCreate+0x128>
   86a84:	00001306 	br	86ad4 <OSTmrCreate+0x168>
   86a88:	008626c0 	call	8626c <OSTmr_Unlock>
   86a8c:	00bfe184 	movi	r2,-122
   86a90:	003fd406 	br	869e4 <OSTmrCreate+0x78>
   86a94:	8809883a 	mov	r4,r17
   86a98:	00820080 	call	82008 <OS_StrLen>
   86a9c:	10803fcc 	andi	r2,r2,255
   86aa0:	00c003c4 	movi	r3,15
   86aa4:	18800436 	bltu	r3,r2,86ab8 <OSTmrCreate+0x14c>
   86aa8:	880b883a 	mov	r5,r17
   86aac:	b1000804 	addi	r4,r22,32
   86ab0:	0081fdc0 	call	81fdc <OS_StrCopy>
   86ab4:	00000706 	br	86ad4 <OSTmrCreate+0x168>
   86ab8:	008008c4 	movi	r2,35
   86abc:	b0800805 	stb	r2,32(r22)
   86ac0:	b0000845 	stb	zero,33(r22)
   86ac4:	00bfe304 	movi	r2,-116
   86ac8:	80800005 	stb	r2,0(r16)
   86acc:	008626c0 	call	8626c <OSTmr_Unlock>
   86ad0:	00000206 	br	86adc <OSTmrCreate+0x170>
   86ad4:	008626c0 	call	8626c <OSTmr_Unlock>
   86ad8:	80000005 	stb	zero,0(r16)
   86adc:	b005883a 	mov	r2,r22
   86ae0:	dfc00717 	ldw	ra,28(sp)
   86ae4:	dd800617 	ldw	r22,24(sp)
   86ae8:	dd400517 	ldw	r21,20(sp)
   86aec:	dd000417 	ldw	r20,16(sp)
   86af0:	dcc00317 	ldw	r19,12(sp)
   86af4:	dc800217 	ldw	r18,8(sp)
   86af8:	dc400117 	ldw	r17,4(sp)
   86afc:	dc000017 	ldw	r16,0(sp)
   86b00:	dec00804 	addi	sp,sp,32
   86b04:	f800283a 	ret

00086b08 <alt_dev_reg>:
   86b08:	01400274 	movhi	r5,9
   86b0c:	295ab604 	addi	r5,r5,27352
   86b10:	00870e41 	jmpi	870e4 <alt_dev_llist_insert>

00086b14 <alt_avalon_mutex_reg>:
   86b14:	defffe04 	addi	sp,sp,-8
   86b18:	dc000015 	stw	r16,0(sp)
   86b1c:	2021883a 	mov	r16,r4
   86b20:	01000044 	movi	r4,1
   86b24:	dfc00115 	stw	ra,4(sp)
   86b28:	00848500 	call	84850 <OSSemCreate>
   86b2c:	01400274 	movhi	r5,9
   86b30:	295ab204 	addi	r5,r5,27336
   86b34:	8009883a 	mov	r4,r16
   86b38:	80800415 	stw	r2,16(r16)
   86b3c:	10000726 	beq	r2,zero,86b5c <alt_avalon_mutex_reg+0x48>
   86b40:	dfc00117 	ldw	ra,4(sp)
   86b44:	dc000017 	ldw	r16,0(sp)
   86b48:	dec00204 	addi	sp,sp,8
   86b4c:	00870e41 	jmpi	870e4 <alt_dev_llist_insert>
   86b50:	103ee83a 	callr	r2
   86b54:	1009883a 	mov	r4,r2
   86b58:	00000606 	br	86b74 <alt_avalon_mutex_reg+0x60>
   86b5c:	00800274 	movhi	r2,9
   86b60:	109ab904 	addi	r2,r2,27364
   86b64:	10800017 	ldw	r2,0(r2)
   86b68:	010002b4 	movhi	r4,10
   86b6c:	210c8204 	addi	r4,r4,12808
   86b70:	103ff71e 	bne	r2,zero,86b50 <alt_avalon_mutex_reg+0x3c>
   86b74:	00bffd04 	movi	r2,-12
   86b78:	00c00304 	movi	r3,12
   86b7c:	20c00015 	stw	r3,0(r4)
   86b80:	dfc00117 	ldw	ra,4(sp)
   86b84:	dc000017 	ldw	r16,0(sp)
   86b88:	dec00204 	addi	sp,sp,8
   86b8c:	f800283a 	ret

00086b90 <alt_sys_init>:
   86b90:	deffff04 	addi	sp,sp,-4
   86b94:	000b883a 	mov	r5,zero
   86b98:	01800084 	movi	r6,2
   86b9c:	01c0fa04 	movi	r7,1000
   86ba0:	01000434 	movhi	r4,16
   86ba4:	21144804 	addi	r4,r4,20768
   86ba8:	dfc00015 	stw	ra,0(sp)
   86bac:	0086e040 	call	86e04 <alt_avalon_timer_sc_init>
   86bb0:	01000274 	movhi	r4,9
   86bb4:	211a3c04 	addi	r4,r4,26864
   86bb8:	0086b140 	call	86b14 <alt_avalon_mutex_reg>
   86bbc:	01000274 	movhi	r4,9
   86bc0:	211a4104 	addi	r4,r4,26884
   86bc4:	0086b140 	call	86b14 <alt_avalon_mutex_reg>
   86bc8:	01000274 	movhi	r4,9
   86bcc:	211a4604 	addi	r4,r4,26904
   86bd0:	0086b140 	call	86b14 <alt_avalon_mutex_reg>
   86bd4:	01000274 	movhi	r4,9
   86bd8:	211a4b04 	addi	r4,r4,26924
   86bdc:	0086b140 	call	86b14 <alt_avalon_mutex_reg>
   86be0:	01000274 	movhi	r4,9
   86be4:	211a5004 	addi	r4,r4,26944
   86be8:	0086b140 	call	86b14 <alt_avalon_mutex_reg>
   86bec:	00c00044 	movi	r3,1
   86bf0:	00800434 	movhi	r2,16
   86bf4:	10940004 	addi	r2,r2,20480
   86bf8:	10c00035 	stwio	r3,0(r2)
   86bfc:	01000274 	movhi	r4,9
   86c00:	211a5504 	addi	r4,r4,26964
   86c04:	0086b080 	call	86b08 <alt_dev_reg>
   86c08:	01000274 	movhi	r4,9
   86c0c:	211a6004 	addi	r4,r4,27008
   86c10:	0086b080 	call	86b08 <alt_dev_reg>
   86c14:	01000274 	movhi	r4,9
   86c18:	211a6b04 	addi	r4,r4,27052
   86c1c:	dfc00017 	ldw	ra,0(sp)
   86c20:	dec00104 	addi	sp,sp,4
   86c24:	0086b081 	jmpi	86b08 <alt_dev_reg>

00086c28 <alt_irq_init>:
   86c28:	deffff04 	addi	sp,sp,-4
   86c2c:	dfc00015 	stw	ra,0(sp)
   86c30:	00873c80 	call	873c8 <altera_nios2_qsys_irq_init>
   86c34:	00800044 	movi	r2,1
   86c38:	1001703a 	wrctl	status,r2
   86c3c:	dfc00017 	ldw	ra,0(sp)
   86c40:	dec00104 	addi	sp,sp,4
   86c44:	f800283a 	ret

00086c48 <altera_avalon_jtag_uart_write>:
   86c48:	21000017 	ldw	r4,0(r4)
   86c4c:	298f883a 	add	r7,r5,r6
   86c50:	20c00104 	addi	r3,r4,4
   86c54:	00000606 	br	86c70 <altera_avalon_jtag_uart_write+0x28>
   86c58:	18800037 	ldwio	r2,0(r3)
   86c5c:	10bfffec 	andhi	r2,r2,65535
   86c60:	10000326 	beq	r2,zero,86c70 <altera_avalon_jtag_uart_write+0x28>
   86c64:	28800007 	ldb	r2,0(r5)
   86c68:	29400044 	addi	r5,r5,1
   86c6c:	20800035 	stwio	r2,0(r4)
   86c70:	29fff936 	bltu	r5,r7,86c58 <altera_avalon_jtag_uart_write+0x10>
   86c74:	3005883a 	mov	r2,r6
   86c78:	f800283a 	ret

00086c7c <altera_avalon_mutex_close>:
   86c7c:	f800283a 	ret

00086c80 <altera_avalon_mutex_first_lock>:
   86c80:	20800317 	ldw	r2,12(r4)
   86c84:	10800137 	ldwio	r2,4(r2)
   86c88:	1080004c 	andi	r2,r2,1
   86c8c:	f800283a 	ret

00086c90 <altera_avalon_mutex_is_mine>:
   86c90:	000b317a 	rdctl	r5,cpuid
   86c94:	20800317 	ldw	r2,12(r4)
   86c98:	10800037 	ldwio	r2,0(r2)
   86c9c:	0009883a 	mov	r4,zero
   86ca0:	1006d43a 	srli	r3,r2,16
   86ca4:	10bfffcc 	andi	r2,r2,65535
   86ca8:	1940011e 	bne	r3,r5,86cb0 <altera_avalon_mutex_is_mine+0x20>
   86cac:	1008c03a 	cmpne	r4,r2,zero
   86cb0:	2005883a 	mov	r2,r4
   86cb4:	f800283a 	ret

00086cb8 <alt_mutex_trylock>:
   86cb8:	0007317a 	rdctl	r3,cpuid
   86cbc:	1806943a 	slli	r3,r3,16
   86cc0:	20800317 	ldw	r2,12(r4)
   86cc4:	1946b03a 	or	r3,r3,r5
   86cc8:	10c00035 	stwio	r3,0(r2)
   86ccc:	20800317 	ldw	r2,12(r4)
   86cd0:	10800037 	ldwio	r2,0(r2)
   86cd4:	10c4c03a 	cmpne	r2,r2,r3
   86cd8:	0085c83a 	sub	r2,zero,r2
   86cdc:	f800283a 	ret

00086ce0 <altera_avalon_mutex_unlock>:
   86ce0:	0007317a 	rdctl	r3,cpuid
   86ce4:	21400317 	ldw	r5,12(r4)
   86ce8:	00800044 	movi	r2,1
   86cec:	28800135 	stwio	r2,4(r5)
   86cf0:	1806943a 	slli	r3,r3,16
   86cf4:	20800317 	ldw	r2,12(r4)
   86cf8:	10c00035 	stwio	r3,0(r2)
   86cfc:	21000417 	ldw	r4,16(r4)
   86d00:	0084c841 	jmpi	84c84 <OSSemPost>

00086d04 <altera_avalon_mutex_trylock>:
   86d04:	defffc04 	addi	sp,sp,-16
   86d08:	dc400215 	stw	r17,8(sp)
   86d0c:	2023883a 	mov	r17,r4
   86d10:	21000417 	ldw	r4,16(r4)
   86d14:	dc000115 	stw	r16,4(sp)
   86d18:	d80d883a 	mov	r6,sp
   86d1c:	2821883a 	mov	r16,r5
   86d20:	000b883a 	mov	r5,zero
   86d24:	dfc00315 	stw	ra,12(sp)
   86d28:	0084a300 	call	84a30 <OSSemPend>
   86d2c:	800b883a 	mov	r5,r16
   86d30:	8809883a 	mov	r4,r17
   86d34:	0086cb80 	call	86cb8 <alt_mutex_trylock>
   86d38:	1021883a 	mov	r16,r2
   86d3c:	10000226 	beq	r2,zero,86d48 <altera_avalon_mutex_trylock+0x44>
   86d40:	89000417 	ldw	r4,16(r17)
   86d44:	0084c840 	call	84c84 <OSSemPost>
   86d48:	8005883a 	mov	r2,r16
   86d4c:	dfc00317 	ldw	ra,12(sp)
   86d50:	dc400217 	ldw	r17,8(sp)
   86d54:	dc000117 	ldw	r16,4(sp)
   86d58:	dec00404 	addi	sp,sp,16
   86d5c:	f800283a 	ret

00086d60 <altera_avalon_mutex_open>:
   86d60:	defffe04 	addi	sp,sp,-8
   86d64:	d1602604 	addi	r5,gp,-32616
   86d68:	dc000015 	stw	r16,0(sp)
   86d6c:	dfc00115 	stw	ra,4(sp)
   86d70:	00871d40 	call	871d4 <alt_find_dev>
   86d74:	1021883a 	mov	r16,r2
   86d78:	10000a1e 	bne	r2,zero,86da4 <altera_avalon_mutex_open+0x44>
   86d7c:	00800274 	movhi	r2,9
   86d80:	109ab904 	addi	r2,r2,27364
   86d84:	10800017 	ldw	r2,0(r2)
   86d88:	00c002b4 	movhi	r3,10
   86d8c:	18cc8204 	addi	r3,r3,12808
   86d90:	10000226 	beq	r2,zero,86d9c <altera_avalon_mutex_open+0x3c>
   86d94:	103ee83a 	callr	r2
   86d98:	1007883a 	mov	r3,r2
   86d9c:	008004c4 	movi	r2,19
   86da0:	18800015 	stw	r2,0(r3)
   86da4:	8005883a 	mov	r2,r16
   86da8:	dfc00117 	ldw	ra,4(sp)
   86dac:	dc000017 	ldw	r16,0(sp)
   86db0:	dec00204 	addi	sp,sp,8
   86db4:	f800283a 	ret

00086db8 <altera_avalon_mutex_lock>:
   86db8:	defffc04 	addi	sp,sp,-16
   86dbc:	dc000115 	stw	r16,4(sp)
   86dc0:	2021883a 	mov	r16,r4
   86dc4:	21000417 	ldw	r4,16(r4)
   86dc8:	dc400215 	stw	r17,8(sp)
   86dcc:	d80d883a 	mov	r6,sp
   86dd0:	2823883a 	mov	r17,r5
   86dd4:	000b883a 	mov	r5,zero
   86dd8:	dfc00315 	stw	ra,12(sp)
   86ddc:	0084a300 	call	84a30 <OSSemPend>
   86de0:	8009883a 	mov	r4,r16
   86de4:	880b883a 	mov	r5,r17
   86de8:	0086cb80 	call	86cb8 <alt_mutex_trylock>
   86dec:	103ffc1e 	bne	r2,zero,86de0 <altera_avalon_mutex_lock+0x28>
   86df0:	dfc00317 	ldw	ra,12(sp)
   86df4:	dc400217 	ldw	r17,8(sp)
   86df8:	dc000117 	ldw	r16,4(sp)
   86dfc:	dec00404 	addi	sp,sp,16
   86e00:	f800283a 	ret

00086e04 <alt_avalon_timer_sc_init>:
   86e04:	00c002b4 	movhi	r3,10
   86e08:	18cca604 	addi	r3,r3,12952
   86e0c:	18800017 	ldw	r2,0(r3)
   86e10:	200b883a 	mov	r5,r4
   86e14:	1000011e 	bne	r2,zero,86e1c <alt_avalon_timer_sc_init+0x18>
   86e18:	19c00015 	stw	r7,0(r3)
   86e1c:	008001c4 	movi	r2,7
   86e20:	28800135 	stwio	r2,4(r5)
   86e24:	3009883a 	mov	r4,r6
   86e28:	01800234 	movhi	r6,8
   86e2c:	319b8d04 	addi	r6,r6,28212
   86e30:	00872481 	jmpi	87248 <alt_irq_register>

00086e34 <alt_avalon_timer_sc_irq>:
   86e34:	defffe04 	addi	sp,sp,-8
   86e38:	dfc00115 	stw	ra,4(sp)
   86e3c:	dc000015 	stw	r16,0(sp)
   86e40:	20000035 	stwio	zero,0(r4)
   86e44:	20800137 	ldwio	r2,4(r4)
   86e48:	0021303a 	rdctl	r16,status
   86e4c:	00bfff84 	movi	r2,-2
   86e50:	8084703a 	and	r2,r16,r2
   86e54:	1001703a 	wrctl	status,r2
   86e58:	008731c0 	call	8731c <alt_tick>
   86e5c:	8001703a 	wrctl	status,r16
   86e60:	dfc00117 	ldw	ra,4(sp)
   86e64:	dc000017 	ldw	r16,0(sp)
   86e68:	dec00204 	addi	sp,sp,8
   86e6c:	f800283a 	ret

00086e70 <perf_print_formatted_report>:
   86e70:	defff404 	addi	sp,sp,-48
   86e74:	ddc00815 	stw	r23,32(sp)
   86e78:	dc000115 	stw	r16,4(sp)
   86e7c:	202f883a 	mov	r23,r4
   86e80:	2821883a 	mov	r16,r5
   86e84:	dfc00a15 	stw	ra,40(sp)
   86e88:	df000915 	stw	fp,36(sp)
   86e8c:	dd800715 	stw	r22,28(sp)
   86e90:	dd400615 	stw	r21,24(sp)
   86e94:	dd000515 	stw	r20,20(sp)
   86e98:	dcc00415 	stw	r19,16(sp)
   86e9c:	dc800315 	stw	r18,12(sp)
   86ea0:	dc400215 	stw	r17,8(sp)
   86ea4:	d9c00b15 	stw	r7,44(sp)
   86ea8:	3039883a 	mov	fp,r6
   86eac:	20000035 	stwio	zero,0(r4)
   86eb0:	d8800b04 	addi	r2,sp,44
   86eb4:	d8800015 	stw	r2,0(sp)
   86eb8:	00877200 	call	87720 <perf_get_total_time>
   86ebc:	01000274 	movhi	r4,9
   86ec0:	21287004 	addi	r4,r4,-24128
   86ec4:	1827883a 	mov	r19,r3
   86ec8:	1025883a 	mov	r18,r2
   86ecc:	00812180 	call	81218 <puts>
   86ed0:	018003f4 	movhi	r6,15
   86ed4:	31909004 	addi	r6,r6,16960
   86ed8:	000f883a 	mov	r7,zero
   86edc:	9009883a 	mov	r4,r18
   86ee0:	980b883a 	mov	r5,r19
   86ee4:	00882bc0 	call	882bc <__muldi3>
   86ee8:	002b883a 	mov	r21,zero
   86eec:	a80f883a 	mov	r7,r21
   86ef0:	180b883a 	mov	r5,r3
   86ef4:	1009883a 	mov	r4,r2
   86ef8:	800d883a 	mov	r6,r16
   86efc:	00884840 	call	88484 <__udivdi3>
   86f00:	180d883a 	mov	r6,r3
   86f04:	01000274 	movhi	r4,9
   86f08:	21287804 	addi	r4,r4,-24096
   86f0c:	100b883a 	mov	r5,r2
   86f10:	00877b80 	call	877b8 <printf>
   86f14:	900b883a 	mov	r5,r18
   86f18:	980d883a 	mov	r6,r19
   86f1c:	01000274 	movhi	r4,9
   86f20:	21287e04 	addi	r4,r4,-24072
   86f24:	00877b80 	call	877b8 <printf>
   86f28:	01000274 	movhi	r4,9
   86f2c:	21288404 	addi	r4,r4,-24048
   86f30:	00812180 	call	81218 <puts>
   86f34:	01000274 	movhi	r4,9
   86f38:	21289504 	addi	r4,r4,-23980
   86f3c:	00812180 	call	81218 <puts>
   86f40:	01000274 	movhi	r4,9
   86f44:	21288404 	addi	r4,r4,-24048
   86f48:	00812180 	call	81218 <puts>
   86f4c:	d8800017 	ldw	r2,0(sp)
   86f50:	8029883a 	mov	r20,r16
   86f54:	05800044 	movi	r22,1
   86f58:	00003c06 	br	8704c <perf_print_formatted_report+0x1dc>
   86f5c:	00876f00 	call	876f0 <perf_get_section_time>
   86f60:	800b883a 	mov	r5,r16
   86f64:	01000274 	movhi	r4,9
   86f68:	2128a604 	addi	r4,r4,-23912
   86f6c:	1021883a 	mov	r16,r2
   86f70:	1823883a 	mov	r17,r3
   86f74:	00877b80 	call	877b8 <printf>
   86f78:	94c4b03a 	or	r2,r18,r19
   86f7c:	01801904 	movi	r6,100
   86f80:	000f883a 	mov	r7,zero
   86f84:	8009883a 	mov	r4,r16
   86f88:	880b883a 	mov	r5,r17
   86f8c:	10000a26 	beq	r2,zero,86fb8 <perf_print_formatted_report+0x148>
   86f90:	00882bc0 	call	882bc <__muldi3>
   86f94:	180b883a 	mov	r5,r3
   86f98:	1009883a 	mov	r4,r2
   86f9c:	900d883a 	mov	r6,r18
   86fa0:	980f883a 	mov	r7,r19
   86fa4:	00884840 	call	88484 <__udivdi3>
   86fa8:	100b883a 	mov	r5,r2
   86fac:	01000274 	movhi	r4,9
   86fb0:	2128a804 	addi	r4,r4,-23904
   86fb4:	00000306 	br	86fc4 <perf_print_formatted_report+0x154>
   86fb8:	01000274 	movhi	r4,9
   86fbc:	2128a804 	addi	r4,r4,-23904
   86fc0:	000b883a 	mov	r5,zero
   86fc4:	00877b80 	call	877b8 <printf>
   86fc8:	008003f4 	movhi	r2,15
   86fcc:	10909004 	addi	r2,r2,16960
   86fd0:	8009883a 	mov	r4,r16
   86fd4:	880b883a 	mov	r5,r17
   86fd8:	000f883a 	mov	r7,zero
   86fdc:	100d883a 	mov	r6,r2
   86fe0:	00882bc0 	call	882bc <__muldi3>
   86fe4:	180b883a 	mov	r5,r3
   86fe8:	a80f883a 	mov	r7,r21
   86fec:	1009883a 	mov	r4,r2
   86ff0:	a00d883a 	mov	r6,r20
   86ff4:	00884840 	call	88484 <__udivdi3>
   86ff8:	180d883a 	mov	r6,r3
   86ffc:	01000274 	movhi	r4,9
   87000:	2128aa04 	addi	r4,r4,-23896
   87004:	100b883a 	mov	r5,r2
   87008:	00877b80 	call	877b8 <printf>
   8700c:	800b883a 	mov	r5,r16
   87010:	01000274 	movhi	r4,9
   87014:	2128ad04 	addi	r4,r4,-23884
   87018:	00877b80 	call	877b8 <printf>
   8701c:	b00b883a 	mov	r5,r22
   87020:	b809883a 	mov	r4,r23
   87024:	00876e00 	call	876e0 <perf_get_num_starts>
   87028:	100b883a 	mov	r5,r2
   8702c:	01000274 	movhi	r4,9
   87030:	2128af04 	addi	r4,r4,-23876
   87034:	00877b80 	call	877b8 <printf>
   87038:	01000274 	movhi	r4,9
   8703c:	21288404 	addi	r4,r4,-24048
   87040:	00812180 	call	81218 <puts>
   87044:	d8800017 	ldw	r2,0(sp)
   87048:	b5800044 	addi	r22,r22,1
   8704c:	14000017 	ldw	r16,0(r2)
   87050:	10800104 	addi	r2,r2,4
   87054:	d8800015 	stw	r2,0(sp)
   87058:	b00b883a 	mov	r5,r22
   8705c:	b809883a 	mov	r4,r23
   87060:	e5bfbe0e 	bge	fp,r22,86f5c <perf_print_formatted_report+0xec>
   87064:	0005883a 	mov	r2,zero
   87068:	dfc00a17 	ldw	ra,40(sp)
   8706c:	df000917 	ldw	fp,36(sp)
   87070:	ddc00817 	ldw	r23,32(sp)
   87074:	dd800717 	ldw	r22,28(sp)
   87078:	dd400617 	ldw	r21,24(sp)
   8707c:	dd000517 	ldw	r20,20(sp)
   87080:	dcc00417 	ldw	r19,16(sp)
   87084:	dc800317 	ldw	r18,12(sp)
   87088:	dc400217 	ldw	r17,8(sp)
   8708c:	dc000117 	ldw	r16,4(sp)
   87090:	dec00c04 	addi	sp,sp,48
   87094:	f800283a 	ret

00087098 <close>:
   87098:	deffff04 	addi	sp,sp,-4
   8709c:	dfc00015 	stw	ra,0(sp)
   870a0:	00800274 	movhi	r2,9
   870a4:	109ab904 	addi	r2,r2,27364
   870a8:	10800017 	ldw	r2,0(r2)
   870ac:	00c002b4 	movhi	r3,10
   870b0:	18cc8204 	addi	r3,r3,12808
   870b4:	10000226 	beq	r2,zero,870c0 <close+0x28>
   870b8:	103ee83a 	callr	r2
   870bc:	1007883a 	mov	r3,r2
   870c0:	00801604 	movi	r2,88
   870c4:	18800015 	stw	r2,0(r3)
   870c8:	00bfffc4 	movi	r2,-1
   870cc:	dfc00017 	ldw	ra,0(sp)
   870d0:	dec00104 	addi	sp,sp,4
   870d4:	f800283a 	ret

000870d8 <alt_dcache_flush_all>:
   870d8:	f800283a 	ret

000870dc <alt_dev_null_write>:
   870dc:	3005883a 	mov	r2,r6
   870e0:	f800283a 	ret

000870e4 <alt_dev_llist_insert>:
   870e4:	deffff04 	addi	sp,sp,-4
   870e8:	dfc00015 	stw	ra,0(sp)
   870ec:	20000326 	beq	r4,zero,870fc <alt_dev_llist_insert+0x18>
   870f0:	20800217 	ldw	r2,8(r4)
   870f4:	000d883a 	mov	r6,zero
   870f8:	10000c1e 	bne	r2,zero,8712c <alt_dev_llist_insert+0x48>
   870fc:	00800274 	movhi	r2,9
   87100:	109ab904 	addi	r2,r2,27364
   87104:	10800017 	ldw	r2,0(r2)
   87108:	00c002b4 	movhi	r3,10
   8710c:	18cc8204 	addi	r3,r3,12808
   87110:	10000226 	beq	r2,zero,8711c <alt_dev_llist_insert+0x38>
   87114:	103ee83a 	callr	r2
   87118:	1007883a 	mov	r3,r2
   8711c:	00800584 	movi	r2,22
   87120:	01bffa84 	movi	r6,-22
   87124:	18800015 	stw	r2,0(r3)
   87128:	00000606 	br	87144 <alt_dev_llist_insert+0x60>
   8712c:	28800017 	ldw	r2,0(r5)
   87130:	21400115 	stw	r5,4(r4)
   87134:	20800015 	stw	r2,0(r4)
   87138:	28800017 	ldw	r2,0(r5)
   8713c:	29000015 	stw	r4,0(r5)
   87140:	11000115 	stw	r4,4(r2)
   87144:	3005883a 	mov	r2,r6
   87148:	dfc00017 	ldw	ra,0(sp)
   8714c:	dec00104 	addi	sp,sp,4
   87150:	f800283a 	ret

00087154 <_do_ctors>:
   87154:	defffe04 	addi	sp,sp,-8
   87158:	dc000015 	stw	r16,0(sp)
   8715c:	04000274 	movhi	r16,9
   87160:	8427ec04 	addi	r16,r16,-24656
   87164:	dfc00115 	stw	ra,4(sp)
   87168:	00000306 	br	87178 <_do_ctors+0x24>
   8716c:	80800017 	ldw	r2,0(r16)
   87170:	843fff04 	addi	r16,r16,-4
   87174:	103ee83a 	callr	r2
   87178:	00800274 	movhi	r2,9
   8717c:	10a7ec04 	addi	r2,r2,-24656
   87180:	80bffa2e 	bgeu	r16,r2,8716c <_do_ctors+0x18>
   87184:	dfc00117 	ldw	ra,4(sp)
   87188:	dc000017 	ldw	r16,0(sp)
   8718c:	dec00204 	addi	sp,sp,8
   87190:	f800283a 	ret

00087194 <_do_dtors>:
   87194:	defffe04 	addi	sp,sp,-8
   87198:	dc000015 	stw	r16,0(sp)
   8719c:	04000274 	movhi	r16,9
   871a0:	8427ec04 	addi	r16,r16,-24656
   871a4:	dfc00115 	stw	ra,4(sp)
   871a8:	00000306 	br	871b8 <_do_dtors+0x24>
   871ac:	80800017 	ldw	r2,0(r16)
   871b0:	843fff04 	addi	r16,r16,-4
   871b4:	103ee83a 	callr	r2
   871b8:	00800274 	movhi	r2,9
   871bc:	10a7ed04 	addi	r2,r2,-24652
   871c0:	80bffa2e 	bgeu	r16,r2,871ac <_do_dtors+0x18>
   871c4:	dfc00117 	ldw	ra,4(sp)
   871c8:	dc000017 	ldw	r16,0(sp)
   871cc:	dec00204 	addi	sp,sp,8
   871d0:	f800283a 	ret

000871d4 <alt_find_dev>:
   871d4:	defffb04 	addi	sp,sp,-20
   871d8:	dcc00315 	stw	r19,12(sp)
   871dc:	dc800215 	stw	r18,8(sp)
   871e0:	dc400115 	stw	r17,4(sp)
   871e4:	dc000015 	stw	r16,0(sp)
   871e8:	dfc00415 	stw	ra,16(sp)
   871ec:	2c000017 	ldw	r16,0(r5)
   871f0:	2823883a 	mov	r17,r5
   871f4:	2027883a 	mov	r19,r4
   871f8:	008129c0 	call	8129c <strlen>
   871fc:	14800044 	addi	r18,r2,1
   87200:	00000406 	br	87214 <alt_find_dev+0x40>
   87204:	81000217 	ldw	r4,8(r16)
   87208:	008775c0 	call	8775c <memcmp>
   8720c:	10000526 	beq	r2,zero,87224 <alt_find_dev+0x50>
   87210:	84000017 	ldw	r16,0(r16)
   87214:	980b883a 	mov	r5,r19
   87218:	900d883a 	mov	r6,r18
   8721c:	847ff91e 	bne	r16,r17,87204 <alt_find_dev+0x30>
   87220:	0021883a 	mov	r16,zero
   87224:	8005883a 	mov	r2,r16
   87228:	dfc00417 	ldw	ra,16(sp)
   8722c:	dcc00317 	ldw	r19,12(sp)
   87230:	dc800217 	ldw	r18,8(sp)
   87234:	dc400117 	ldw	r17,4(sp)
   87238:	dc000017 	ldw	r16,0(sp)
   8723c:	dec00504 	addi	sp,sp,20
   87240:	f800283a 	ret

00087244 <alt_icache_flush_all>:
   87244:	f800283a 	ret

00087248 <alt_irq_register>:
   87248:	008007c4 	movi	r2,31
   8724c:	200f883a 	mov	r7,r4
   87250:	00fffa84 	movi	r3,-22
   87254:	11002236 	bltu	r2,r4,872e0 <alt_irq_register+0x98>
   87258:	0015303a 	rdctl	r10,status
   8725c:	027fff84 	movi	r9,-2
   87260:	5244703a 	and	r2,r10,r9
   87264:	1001703a 	wrctl	status,r2
   87268:	200490fa 	slli	r2,r4,3
   8726c:	00c002b4 	movhi	r3,10
   87270:	18dc1004 	addi	r3,r3,28736
   87274:	020002b4 	movhi	r8,10
   87278:	420ca504 	addi	r8,r8,12948
   8727c:	10c5883a 	add	r2,r2,r3
   87280:	11400115 	stw	r5,4(r2)
   87284:	11800015 	stw	r6,0(r2)
   87288:	30000826 	beq	r6,zero,872ac <alt_irq_register+0x64>
   8728c:	0009303a 	rdctl	r4,status
   87290:	2244703a 	and	r2,r4,r9
   87294:	1001703a 	wrctl	status,r2
   87298:	00c00044 	movi	r3,1
   8729c:	19c6983a 	sll	r3,r3,r7
   872a0:	40800017 	ldw	r2,0(r8)
   872a4:	10c4b03a 	or	r2,r2,r3
   872a8:	00000706 	br	872c8 <alt_irq_register+0x80>
   872ac:	0009303a 	rdctl	r4,status
   872b0:	2244703a 	and	r2,r4,r9
   872b4:	1001703a 	wrctl	status,r2
   872b8:	00ffff84 	movi	r3,-2
   872bc:	19c6183a 	rol	r3,r3,r7
   872c0:	40800017 	ldw	r2,0(r8)
   872c4:	10c4703a 	and	r2,r2,r3
   872c8:	40800015 	stw	r2,0(r8)
   872cc:	40800017 	ldw	r2,0(r8)
   872d0:	100170fa 	wrctl	ienable,r2
   872d4:	2001703a 	wrctl	status,r4
   872d8:	5001703a 	wrctl	status,r10
   872dc:	0007883a 	mov	r3,zero
   872e0:	1805883a 	mov	r2,r3
   872e4:	f800283a 	ret

000872e8 <alt_alarm_stop>:
   872e8:	000b303a 	rdctl	r5,status
   872ec:	00bfff84 	movi	r2,-2
   872f0:	2884703a 	and	r2,r5,r2
   872f4:	1001703a 	wrctl	status,r2
   872f8:	20c00017 	ldw	r3,0(r4)
   872fc:	20800117 	ldw	r2,4(r4)
   87300:	18800115 	stw	r2,4(r3)
   87304:	20800117 	ldw	r2,4(r4)
   87308:	21000115 	stw	r4,4(r4)
   8730c:	10c00015 	stw	r3,0(r2)
   87310:	21000015 	stw	r4,0(r4)
   87314:	2801703a 	wrctl	status,r5
   87318:	f800283a 	ret

0008731c <alt_tick>:
   8731c:	defffd04 	addi	sp,sp,-12
   87320:	d0921b17 	ldw	r2,18540(gp)
   87324:	dc000015 	stw	r16,0(sp)
   87328:	d4202f17 	ldw	r16,-32580(gp)
   8732c:	10800044 	addi	r2,r2,1
   87330:	dfc00215 	stw	ra,8(sp)
   87334:	dc400115 	stw	r17,4(sp)
   87338:	d0921b15 	stw	r2,18540(gp)
   8733c:	00001b06 	br	873ac <alt_tick+0x90>
   87340:	80800403 	ldbu	r2,16(r16)
   87344:	84400017 	ldw	r17,0(r16)
   87348:	10000326 	beq	r2,zero,87358 <alt_tick+0x3c>
   8734c:	d0921b17 	ldw	r2,18540(gp)
   87350:	1000011e 	bne	r2,zero,87358 <alt_tick+0x3c>
   87354:	80000405 	stb	zero,16(r16)
   87358:	d0d21b17 	ldw	r3,18540(gp)
   8735c:	80800217 	ldw	r2,8(r16)
   87360:	18801136 	bltu	r3,r2,873a8 <alt_tick+0x8c>
   87364:	80800403 	ldbu	r2,16(r16)
   87368:	10000f1e 	bne	r2,zero,873a8 <alt_tick+0x8c>
   8736c:	81000517 	ldw	r4,20(r16)
   87370:	80800317 	ldw	r2,12(r16)
   87374:	103ee83a 	callr	r2
   87378:	1009883a 	mov	r4,r2
   8737c:	1000031e 	bne	r2,zero,8738c <alt_tick+0x70>
   87380:	8009883a 	mov	r4,r16
   87384:	00872e80 	call	872e8 <alt_alarm_stop>
   87388:	00000706 	br	873a8 <alt_tick+0x8c>
   8738c:	80800217 	ldw	r2,8(r16)
   87390:	d0d21b17 	ldw	r3,18540(gp)
   87394:	1105883a 	add	r2,r2,r4
   87398:	80800215 	stw	r2,8(r16)
   8739c:	10c0022e 	bgeu	r2,r3,873a8 <alt_tick+0x8c>
   873a0:	00800044 	movi	r2,1
   873a4:	80800405 	stb	r2,16(r16)
   873a8:	8821883a 	mov	r16,r17
   873ac:	d0a02f04 	addi	r2,gp,-32580
   873b0:	80bfe31e 	bne	r16,r2,87340 <alt_tick+0x24>
   873b4:	dfc00217 	ldw	ra,8(sp)
   873b8:	dc400117 	ldw	r17,4(sp)
   873bc:	dc000017 	ldw	r16,0(sp)
   873c0:	dec00304 	addi	sp,sp,12
   873c4:	00828f81 	jmpi	828f8 <OSTimeTick>

000873c8 <altera_nios2_qsys_irq_init>:
   873c8:	000170fa 	wrctl	ienable,zero
   873cc:	f800283a 	ret

000873d0 <OSCtxSw>:
   873d0:	defff504 	addi	sp,sp,-44
   873d4:	d0e00317 	ldw	r3,-32756(gp)
   873d8:	d1121117 	ldw	r4,18500(gp)
   873dc:	dfc00015 	stw	ra,0(sp)
   873e0:	df000115 	stw	fp,4(sp)
   873e4:	ddc00215 	stw	r23,8(sp)
   873e8:	dd800315 	stw	r22,12(sp)
   873ec:	dd400415 	stw	r21,16(sp)
   873f0:	dd000515 	stw	r20,20(sp)
   873f4:	dcc00615 	stw	r19,24(sp)
   873f8:	dc800715 	stw	r18,28(sp)
   873fc:	dc400815 	stw	r17,32(sp)
   87400:	dc000915 	stw	r16,36(sp)
   87404:	d8c00a15 	stw	r3,40(sp)
   87408:	26c00015 	stw	sp,0(r4)
   8740c:	00874a80 	call	874a8 <OSTaskSwHook>
   87410:	d1120c17 	ldw	r4,18480(gp)
   87414:	d1520387 	ldb	r5,18446(gp)
   87418:	d1121115 	stw	r4,18500(gp)
   8741c:	d15203c5 	stb	r5,18447(gp)
   87420:	26c00017 	ldw	sp,0(r4)
   87424:	d8c00a17 	ldw	r3,40(sp)
   87428:	dfc00017 	ldw	ra,0(sp)
   8742c:	df000117 	ldw	fp,4(sp)
   87430:	ddc00217 	ldw	r23,8(sp)
   87434:	dd800317 	ldw	r22,12(sp)
   87438:	dd400417 	ldw	r21,16(sp)
   8743c:	dd000517 	ldw	r20,20(sp)
   87440:	dcc00617 	ldw	r19,24(sp)
   87444:	dc800717 	ldw	r18,28(sp)
   87448:	dc400817 	ldw	r17,32(sp)
   8744c:	dc000917 	ldw	r16,36(sp)
   87450:	d0e00315 	stw	r3,-32756(gp)
   87454:	dec00b04 	addi	sp,sp,44
   87458:	f800283a 	ret

0008745c <OSStartHighRdy>:
   8745c:	0025303a 	rdctl	r18,status
   87460:	047fff84 	movi	r17,-2
   87464:	9464703a 	and	r18,r18,r17
   87468:	9001703a 	wrctl	status,r18
   8746c:	00874a80 	call	874a8 <OSTaskSwHook>
   87470:	04800044 	movi	r18,1
   87474:	d4920105 	stb	r18,18436(gp)
   87478:	003fe506 	br	87410 <OSCtxSw+0x40>

0008747c <OSStartTsk>:
   8747c:	06c00004 	movi	sp,0
   87480:	0005303a 	rdctl	r2,status
   87484:	10800054 	ori	r2,r2,1
   87488:	1001703a 	wrctl	status,r2
   8748c:	d8800117 	ldw	r2,4(sp)
   87490:	d9000017 	ldw	r4,0(sp)
   87494:	dec00204 	addi	sp,sp,8
   87498:	103ee83a 	callr	r2
   8749c:	0001883a 	nop

000874a0 <OSTaskCreateHook>:
   874a0:	f800283a 	ret

000874a4 <OSTaskDelHook>:
   874a4:	f800283a 	ret

000874a8 <OSTaskSwHook>:
   874a8:	f800283a 	ret

000874ac <OSTaskStatHook>:
   874ac:	f800283a 	ret

000874b0 <OSInitHookBegin>:
   874b0:	d0121c0d 	sth	zero,18544(gp)
   874b4:	f800283a 	ret

000874b8 <OSInitHookEnd>:
   874b8:	f800283a 	ret

000874bc <OSTaskIdleHook>:
   874bc:	f800283a 	ret

000874c0 <OSTCBInitHook>:
   874c0:	f800283a 	ret

000874c4 <OSTimeTickHook>:
   874c4:	d0921c0b 	ldhu	r2,18544(gp)
   874c8:	deffff04 	addi	sp,sp,-4
   874cc:	dfc00015 	stw	ra,0(sp)
   874d0:	10800044 	addi	r2,r2,1
   874d4:	113fffcc 	andi	r4,r2,65535
   874d8:	d0921c0d 	sth	r2,18544(gp)
   874dc:	00896980 	call	89698 <__floatsidf>
   874e0:	0011883a 	mov	r8,zero
   874e4:	02501674 	movhi	r9,16473
   874e8:	180b883a 	mov	r5,r3
   874ec:	480f883a 	mov	r7,r9
   874f0:	1009883a 	mov	r4,r2
   874f4:	400d883a 	mov	r6,r8
   874f8:	00896100 	call	89610 <__gedf2>
   874fc:	10000416 	blt	r2,zero,87510 <OSTimeTickHook+0x4c>
   87500:	d0121c0d 	sth	zero,18544(gp)
   87504:	dfc00017 	ldw	ra,0(sp)
   87508:	dec00104 	addi	sp,sp,4
   8750c:	00868581 	jmpi	86858 <OSTmrSignal>
   87510:	dfc00017 	ldw	ra,0(sp)
   87514:	dec00104 	addi	sp,sp,4
   87518:	f800283a 	ret

0008751c <OSTaskStkInit>:
   8751c:	defffb04 	addi	sp,sp,-20
   87520:	00bfff04 	movi	r2,-4
   87524:	dc000015 	stw	r16,0(sp)
   87528:	30a0703a 	and	r16,r6,r2
   8752c:	843f0004 	addi	r16,r16,-1024
   87530:	dc400115 	stw	r17,4(sp)
   87534:	8440bb04 	addi	r17,r16,748
   87538:	88c02e04 	addi	r3,r17,184
   8753c:	88801704 	addi	r2,r17,92
   87540:	80c00315 	stw	r3,12(r16)
   87544:	dcc00315 	stw	r19,12(sp)
   87548:	dc800215 	stw	r18,8(sp)
   8754c:	2827883a 	mov	r19,r5
   87550:	2025883a 	mov	r18,r4
   87554:	80800215 	stw	r2,8(r16)
   87558:	81000504 	addi	r4,r16,20
   8755c:	80000015 	stw	zero,0(r16)
   87560:	84400115 	stw	r17,4(r16)
   87564:	80000415 	stw	zero,16(r16)
   87568:	000b883a 	mov	r5,zero
   8756c:	01800644 	movi	r6,25
   87570:	dfc00415 	stw	ra,16(sp)
   87574:	00877980 	call	87798 <memset>
   87578:	00800274 	movhi	r2,9
   8757c:	10a8b504 	addi	r2,r2,-23852
   87580:	81001f04 	addi	r4,r16,124
   87584:	80800d15 	stw	r2,52(r16)
   87588:	80000c15 	stw	zero,48(r16)
   8758c:	80000e15 	stw	zero,56(r16)
   87590:	80000f15 	stw	zero,60(r16)
   87594:	80001015 	stw	zero,64(r16)
   87598:	80001115 	stw	zero,68(r16)
   8759c:	80001215 	stw	zero,72(r16)
   875a0:	80001315 	stw	zero,76(r16)
   875a4:	80001415 	stw	zero,80(r16)
   875a8:	80001515 	stw	zero,84(r16)
   875ac:	80001615 	stw	zero,88(r16)
   875b0:	80001715 	stw	zero,92(r16)
   875b4:	80001805 	stb	zero,96(r16)
   875b8:	000b883a 	mov	r5,zero
   875bc:	01800904 	movi	r6,36
   875c0:	00877980 	call	87798 <memset>
   875c4:	00800044 	movi	r2,1
   875c8:	80802915 	stw	r2,164(r16)
   875cc:	008cc384 	movi	r2,13070
   875d0:	80802b0d 	sth	r2,172(r16)
   875d4:	00aaf344 	movi	r2,-21555
   875d8:	80802b8d 	sth	r2,174(r16)
   875dc:	00848d04 	movi	r2,4660
   875e0:	80802c0d 	sth	r2,176(r16)
   875e4:	00b99b44 	movi	r2,-6547
   875e8:	80802c8d 	sth	r2,178(r16)
   875ec:	00b7bb04 	movi	r2,-8468
   875f0:	80802d0d 	sth	r2,180(r16)
   875f4:	00800144 	movi	r2,5
   875f8:	80802d8d 	sth	r2,182(r16)
   875fc:	008002c4 	movi	r2,11
   87600:	80802e0d 	sth	r2,184(r16)
   87604:	80002815 	stw	zero,160(r16)
   87608:	80002a15 	stw	zero,168(r16)
   8760c:	80002f15 	stw	zero,188(r16)
   87610:	80003015 	stw	zero,192(r16)
   87614:	80003115 	stw	zero,196(r16)
   87618:	80003215 	stw	zero,200(r16)
   8761c:	80003315 	stw	zero,204(r16)
   87620:	80003415 	stw	zero,208(r16)
   87624:	80003e15 	stw	zero,248(r16)
   87628:	80003f15 	stw	zero,252(r16)
   8762c:	80004015 	stw	zero,256(r16)
   87630:	80004115 	stw	zero,260(r16)
   87634:	80004215 	stw	zero,264(r16)
   87638:	80004315 	stw	zero,268(r16)
   8763c:	80004415 	stw	zero,272(r16)
   87640:	80004515 	stw	zero,276(r16)
   87644:	80004615 	stw	zero,280(r16)
   87648:	80004715 	stw	zero,284(r16)
   8764c:	80003505 	stb	zero,212(r16)
   87650:	80003705 	stb	zero,220(r16)
   87654:	80003d15 	stw	zero,244(r16)
   87658:	80005215 	stw	zero,328(r16)
   8765c:	80005315 	stw	zero,332(r16)
   87660:	80005415 	stw	zero,336(r16)
   87664:	80005515 	stw	zero,340(r16)
   87668:	8000b515 	stw	zero,724(r16)
   8766c:	8809883a 	mov	r4,r17
   87670:	80007515 	stw	zero,468(r16)
   87674:	8000b715 	stw	zero,732(r16)
   87678:	8000b815 	stw	zero,736(r16)
   8767c:	8000b915 	stw	zero,740(r16)
   87680:	8000ba15 	stw	zero,744(r16)
   87684:	000b883a 	mov	r5,zero
   87688:	01804504 	movi	r6,276
   8768c:	00877980 	call	87798 <memset>
   87690:	80bff304 	addi	r2,r16,-52
   87694:	00c00234 	movhi	r3,8
   87698:	18dd2004 	addi	r3,r3,29824
   8769c:	14800c15 	stw	r18,48(r2)
   876a0:	14c00b15 	stw	r19,44(r2)
   876a4:	14000a15 	stw	r16,40(r2)
   876a8:	10c00015 	stw	r3,0(r2)
   876ac:	dfc00417 	ldw	ra,16(sp)
   876b0:	dcc00317 	ldw	r19,12(sp)
   876b4:	dc800217 	ldw	r18,8(sp)
   876b8:	dc400117 	ldw	r17,4(sp)
   876bc:	dc000017 	ldw	r16,0(sp)
   876c0:	dec00504 	addi	sp,sp,20
   876c4:	f800283a 	ret

000876c8 <alt_get_performance_counter_base>:
   876c8:	00800434 	movhi	r2,16
   876cc:	10940004 	addi	r2,r2,20480
   876d0:	f800283a 	ret

000876d4 <alt_get_cpu_freq>:
   876d4:	0080bef4 	movhi	r2,763
   876d8:	10bc2004 	addi	r2,r2,-3968
   876dc:	f800283a 	ret

000876e0 <perf_get_num_starts>:
   876e0:	280a913a 	slli	r5,r5,4
   876e4:	2149883a 	add	r4,r4,r5
   876e8:	20800237 	ldwio	r2,8(r4)
   876ec:	f800283a 	ret

000876f0 <perf_get_section_time>:
   876f0:	20000035 	stwio	zero,0(r4)
   876f4:	280a913a 	slli	r5,r5,4
   876f8:	2149883a 	add	r4,r4,r5
   876fc:	23400037 	ldwio	r13,0(r4)
   87700:	23000137 	ldwio	r12,4(r4)
   87704:	0015883a 	mov	r10,zero
   87708:	0013883a 	mov	r9,zero
   8770c:	5348b03a 	or	r4,r10,r13
   87710:	624ab03a 	or	r5,r12,r9
   87714:	2005883a 	mov	r2,r4
   87718:	2807883a 	mov	r3,r5
   8771c:	f800283a 	ret

00087720 <perf_get_total_time>:
   87720:	000b883a 	mov	r5,zero
   87724:	00876f01 	jmpi	876f0 <perf_get_section_time>

00087728 <atexit>:
   87728:	200b883a 	mov	r5,r4
   8772c:	000d883a 	mov	r6,zero
   87730:	0009883a 	mov	r4,zero
   87734:	000f883a 	mov	r7,zero
   87738:	0087f901 	jmpi	87f90 <__register_exitproc>

0008773c <exit>:
   8773c:	defffe04 	addi	sp,sp,-8
   87740:	dc400015 	stw	r17,0(sp)
   87744:	000b883a 	mov	r5,zero
   87748:	2023883a 	mov	r17,r4
   8774c:	dfc00115 	stw	ra,4(sp)
   87750:	00881000 	call	88100 <__call_exitprocs>
   87754:	8809883a 	mov	r4,r17
   87758:	0089f900 	call	89f90 <_exit>

0008775c <memcmp>:
   8775c:	31ffffc4 	addi	r7,r6,-1
   87760:	3000061e 	bne	r6,zero,8777c <memcmp+0x20>
   87764:	00000a06 	br	87790 <memcmp+0x34>
   87768:	39ffffc4 	addi	r7,r7,-1
   8776c:	00bfffc4 	movi	r2,-1
   87770:	21000044 	addi	r4,r4,1
   87774:	29400044 	addi	r5,r5,1
   87778:	38800526 	beq	r7,r2,87790 <memcmp+0x34>
   8777c:	20c00003 	ldbu	r3,0(r4)
   87780:	28800003 	ldbu	r2,0(r5)
   87784:	18bff826 	beq	r3,r2,87768 <memcmp+0xc>
   87788:	1885c83a 	sub	r2,r3,r2
   8778c:	f800283a 	ret
   87790:	0005883a 	mov	r2,zero
   87794:	f800283a 	ret

00087798 <memset>:
   87798:	30000526 	beq	r6,zero,877b0 <memset+0x18>
   8779c:	310d883a 	add	r6,r6,r4
   877a0:	2005883a 	mov	r2,r4
   877a4:	11400005 	stb	r5,0(r2)
   877a8:	10800044 	addi	r2,r2,1
   877ac:	11bffd1e 	bne	r2,r6,877a4 <memset+0xc>
   877b0:	2005883a 	mov	r2,r4
   877b4:	f800283a 	ret

000877b8 <printf>:
   877b8:	defffb04 	addi	sp,sp,-20
   877bc:	dfc00115 	stw	ra,4(sp)
   877c0:	d9400215 	stw	r5,8(sp)
   877c4:	d9800315 	stw	r6,12(sp)
   877c8:	d9c00415 	stw	r7,16(sp)
   877cc:	00800274 	movhi	r2,9
   877d0:	109a8f04 	addi	r2,r2,27196
   877d4:	11400017 	ldw	r5,0(r2)
   877d8:	d8800204 	addi	r2,sp,8
   877dc:	d8800015 	stw	r2,0(sp)
   877e0:	29c00217 	ldw	r7,8(r5)
   877e4:	100d883a 	mov	r6,r2
   877e8:	00800234 	movhi	r2,8
   877ec:	1085bf04 	addi	r2,r2,5884
   877f0:	200b883a 	mov	r5,r4
   877f4:	38800115 	stw	r2,4(r7)
   877f8:	3809883a 	mov	r4,r7
   877fc:	0087f6c0 	call	87f6c <__vfprintf_internal>
   87800:	dfc00117 	ldw	ra,4(sp)
   87804:	dec00504 	addi	sp,sp,20
   87808:	f800283a 	ret

0008780c <_printf_r>:
   8780c:	defffc04 	addi	sp,sp,-16
   87810:	dfc00115 	stw	ra,4(sp)
   87814:	d9800215 	stw	r6,8(sp)
   87818:	d9c00315 	stw	r7,12(sp)
   8781c:	22000217 	ldw	r8,8(r4)
   87820:	d8800204 	addi	r2,sp,8
   87824:	d8800015 	stw	r2,0(sp)
   87828:	100f883a 	mov	r7,r2
   8782c:	00800234 	movhi	r2,8
   87830:	1085bf04 	addi	r2,r2,5884
   87834:	280d883a 	mov	r6,r5
   87838:	40800115 	stw	r2,4(r8)
   8783c:	400b883a 	mov	r5,r8
   87840:	00878d00 	call	878d0 <___vfprintf_internal_r>
   87844:	dfc00117 	ldw	ra,4(sp)
   87848:	dec00404 	addi	sp,sp,16
   8784c:	f800283a 	ret

00087850 <print_repeat>:
   87850:	defffb04 	addi	sp,sp,-20
   87854:	dc800315 	stw	r18,12(sp)
   87858:	dc400215 	stw	r17,8(sp)
   8785c:	dc000115 	stw	r16,4(sp)
   87860:	dfc00415 	stw	ra,16(sp)
   87864:	2025883a 	mov	r18,r4
   87868:	2823883a 	mov	r17,r5
   8786c:	3821883a 	mov	r16,r7
   87870:	d9800005 	stb	r6,0(sp)
   87874:	9009883a 	mov	r4,r18
   87878:	880b883a 	mov	r5,r17
   8787c:	d80d883a 	mov	r6,sp
   87880:	01c00044 	movi	r7,1
   87884:	04000b0e 	bge	zero,r16,878b4 <print_repeat+0x64>
   87888:	88c00117 	ldw	r3,4(r17)
   8788c:	843fffc4 	addi	r16,r16,-1
   87890:	183ee83a 	callr	r3
   87894:	103ff726 	beq	r2,zero,87874 <print_repeat+0x24>
   87898:	00bfffc4 	movi	r2,-1
   8789c:	dfc00417 	ldw	ra,16(sp)
   878a0:	dc800317 	ldw	r18,12(sp)
   878a4:	dc400217 	ldw	r17,8(sp)
   878a8:	dc000117 	ldw	r16,4(sp)
   878ac:	dec00504 	addi	sp,sp,20
   878b0:	f800283a 	ret
   878b4:	0005883a 	mov	r2,zero
   878b8:	dfc00417 	ldw	ra,16(sp)
   878bc:	dc800317 	ldw	r18,12(sp)
   878c0:	dc400217 	ldw	r17,8(sp)
   878c4:	dc000117 	ldw	r16,4(sp)
   878c8:	dec00504 	addi	sp,sp,20
   878cc:	f800283a 	ret

000878d0 <___vfprintf_internal_r>:
   878d0:	deffe304 	addi	sp,sp,-116
   878d4:	df001b15 	stw	fp,108(sp)
   878d8:	ddc01a15 	stw	r23,104(sp)
   878dc:	dd001715 	stw	r20,92(sp)
   878e0:	dc801515 	stw	r18,84(sp)
   878e4:	dc001315 	stw	r16,76(sp)
   878e8:	dfc01c15 	stw	ra,112(sp)
   878ec:	dd801915 	stw	r22,100(sp)
   878f0:	dd401815 	stw	r21,96(sp)
   878f4:	dcc01615 	stw	r19,88(sp)
   878f8:	dc401415 	stw	r17,80(sp)
   878fc:	d9001015 	stw	r4,64(sp)
   87900:	2829883a 	mov	r20,r5
   87904:	d9c01115 	stw	r7,68(sp)
   87908:	3025883a 	mov	r18,r6
   8790c:	0021883a 	mov	r16,zero
   87910:	d8000f15 	stw	zero,60(sp)
   87914:	d8000e15 	stw	zero,56(sp)
   87918:	0039883a 	mov	fp,zero
   8791c:	d8000915 	stw	zero,36(sp)
   87920:	d8000d15 	stw	zero,52(sp)
   87924:	d8000c15 	stw	zero,48(sp)
   87928:	d8000b15 	stw	zero,44(sp)
   8792c:	002f883a 	mov	r23,zero
   87930:	91400003 	ldbu	r5,0(r18)
   87934:	01c00044 	movi	r7,1
   87938:	94800044 	addi	r18,r18,1
   8793c:	29003fcc 	andi	r4,r5,255
   87940:	2100201c 	xori	r4,r4,128
   87944:	213fe004 	addi	r4,r4,-128
   87948:	20001526 	beq	r4,zero,879a0 <___vfprintf_internal_r+0xd0>
   8794c:	81c03526 	beq	r16,r7,87a24 <___vfprintf_internal_r+0x154>
   87950:	3c002016 	blt	r7,r16,879d4 <___vfprintf_internal_r+0x104>
   87954:	803ff61e 	bne	r16,zero,87930 <___vfprintf_internal_r+0x60>
   87958:	00800944 	movi	r2,37
   8795c:	2081501e 	bne	r4,r2,87ea0 <___vfprintf_internal_r+0x5d0>
   87960:	073fffc4 	movi	fp,-1
   87964:	00800284 	movi	r2,10
   87968:	d9c00c15 	stw	r7,48(sp)
   8796c:	d8000f15 	stw	zero,60(sp)
   87970:	d8000e15 	stw	zero,56(sp)
   87974:	df000915 	stw	fp,36(sp)
   87978:	d8800d15 	stw	r2,52(sp)
   8797c:	d8000b15 	stw	zero,44(sp)
   87980:	91400003 	ldbu	r5,0(r18)
   87984:	3821883a 	mov	r16,r7
   87988:	94800044 	addi	r18,r18,1
   8798c:	29003fcc 	andi	r4,r5,255
   87990:	2100201c 	xori	r4,r4,128
   87994:	213fe004 	addi	r4,r4,-128
   87998:	01c00044 	movi	r7,1
   8799c:	203feb1e 	bne	r4,zero,8794c <___vfprintf_internal_r+0x7c>
   879a0:	b805883a 	mov	r2,r23
   879a4:	dfc01c17 	ldw	ra,112(sp)
   879a8:	df001b17 	ldw	fp,108(sp)
   879ac:	ddc01a17 	ldw	r23,104(sp)
   879b0:	dd801917 	ldw	r22,100(sp)
   879b4:	dd401817 	ldw	r21,96(sp)
   879b8:	dd001717 	ldw	r20,92(sp)
   879bc:	dcc01617 	ldw	r19,88(sp)
   879c0:	dc801517 	ldw	r18,84(sp)
   879c4:	dc401417 	ldw	r17,80(sp)
   879c8:	dc001317 	ldw	r16,76(sp)
   879cc:	dec01d04 	addi	sp,sp,116
   879d0:	f800283a 	ret
   879d4:	00800084 	movi	r2,2
   879d8:	80801726 	beq	r16,r2,87a38 <___vfprintf_internal_r+0x168>
   879dc:	008000c4 	movi	r2,3
   879e0:	80bfd31e 	bne	r16,r2,87930 <___vfprintf_internal_r+0x60>
   879e4:	2c7ff404 	addi	r17,r5,-48
   879e8:	88c03fcc 	andi	r3,r17,255
   879ec:	00800244 	movi	r2,9
   879f0:	10c02136 	bltu	r2,r3,87a78 <___vfprintf_internal_r+0x1a8>
   879f4:	d8c00917 	ldw	r3,36(sp)
   879f8:	18012716 	blt	r3,zero,87e98 <___vfprintf_internal_r+0x5c8>
   879fc:	d9000917 	ldw	r4,36(sp)
   87a00:	01400284 	movi	r5,10
   87a04:	00809980 	call	80998 <__mulsi3>
   87a08:	1007883a 	mov	r3,r2
   87a0c:	88803fcc 	andi	r2,r17,255
   87a10:	1080201c 	xori	r2,r2,128
   87a14:	10bfe004 	addi	r2,r2,-128
   87a18:	1887883a 	add	r3,r3,r2
   87a1c:	d8c00915 	stw	r3,36(sp)
   87a20:	003fc306 	br	87930 <___vfprintf_internal_r+0x60>
   87a24:	00800c04 	movi	r2,48
   87a28:	2080b326 	beq	r4,r2,87cf8 <___vfprintf_internal_r+0x428>
   87a2c:	00800944 	movi	r2,37
   87a30:	20812726 	beq	r4,r2,87ed0 <___vfprintf_internal_r+0x600>
   87a34:	04000084 	movi	r16,2
   87a38:	2c7ff404 	addi	r17,r5,-48
   87a3c:	88c03fcc 	andi	r3,r17,255
   87a40:	00800244 	movi	r2,9
   87a44:	10c00a36 	bltu	r2,r3,87a70 <___vfprintf_internal_r+0x1a0>
   87a48:	e000b416 	blt	fp,zero,87d1c <___vfprintf_internal_r+0x44c>
   87a4c:	e009883a 	mov	r4,fp
   87a50:	01400284 	movi	r5,10
   87a54:	00809980 	call	80998 <__mulsi3>
   87a58:	1007883a 	mov	r3,r2
   87a5c:	88803fcc 	andi	r2,r17,255
   87a60:	1080201c 	xori	r2,r2,128
   87a64:	10bfe004 	addi	r2,r2,-128
   87a68:	18b9883a 	add	fp,r3,r2
   87a6c:	003fb006 	br	87930 <___vfprintf_internal_r+0x60>
   87a70:	00800b84 	movi	r2,46
   87a74:	2080a326 	beq	r4,r2,87d04 <___vfprintf_internal_r+0x434>
   87a78:	00801b04 	movi	r2,108
   87a7c:	2080a326 	beq	r4,r2,87d0c <___vfprintf_internal_r+0x43c>
   87a80:	d8c00917 	ldw	r3,36(sp)
   87a84:	1800a716 	blt	r3,zero,87d24 <___vfprintf_internal_r+0x454>
   87a88:	d8000f15 	stw	zero,60(sp)
   87a8c:	28bfea04 	addi	r2,r5,-88
   87a90:	10803fcc 	andi	r2,r2,255
   87a94:	00c00804 	movi	r3,32
   87a98:	18802836 	bltu	r3,r2,87b3c <___vfprintf_internal_r+0x26c>
   87a9c:	1085883a 	add	r2,r2,r2
   87aa0:	1085883a 	add	r2,r2,r2
   87aa4:	00c00234 	movhi	r3,8
   87aa8:	18deae04 	addi	r3,r3,31416
   87aac:	10c5883a 	add	r2,r2,r3
   87ab0:	11000017 	ldw	r4,0(r2)
   87ab4:	2000683a 	jmp	r4
   87ab8:	00087b44 	movi	zero,8685
   87abc:	00087b3c 	xorhi	zero,zero,8684
   87ac0:	00087b3c 	xorhi	zero,zero,8684
   87ac4:	00087b3c 	xorhi	zero,zero,8684
   87ac8:	00087b3c 	xorhi	zero,zero,8684
   87acc:	00087b3c 	xorhi	zero,zero,8684
   87ad0:	00087b3c 	xorhi	zero,zero,8684
   87ad4:	00087b3c 	xorhi	zero,zero,8684
   87ad8:	00087b3c 	xorhi	zero,zero,8684
   87adc:	00087b3c 	xorhi	zero,zero,8684
   87ae0:	00087b3c 	xorhi	zero,zero,8684
   87ae4:	00087d70 	cmpltui	zero,zero,8693
   87ae8:	00087b58 	cmpnei	zero,zero,8685
   87aec:	00087b3c 	xorhi	zero,zero,8684
   87af0:	00087b3c 	xorhi	zero,zero,8684
   87af4:	00087b3c 	xorhi	zero,zero,8684
   87af8:	00087b3c 	xorhi	zero,zero,8684
   87afc:	00087b58 	cmpnei	zero,zero,8685
   87b00:	00087b3c 	xorhi	zero,zero,8684
   87b04:	00087b3c 	xorhi	zero,zero,8684
   87b08:	00087b3c 	xorhi	zero,zero,8684
   87b0c:	00087b3c 	xorhi	zero,zero,8684
   87b10:	00087b3c 	xorhi	zero,zero,8684
   87b14:	00087dd8 	cmpnei	zero,zero,8695
   87b18:	00087b3c 	xorhi	zero,zero,8684
   87b1c:	00087b3c 	xorhi	zero,zero,8684
   87b20:	00087b3c 	xorhi	zero,zero,8684
   87b24:	00087de8 	cmpgeui	zero,zero,8695
   87b28:	00087b3c 	xorhi	zero,zero,8684
   87b2c:	00087cbc 	xorhi	zero,zero,8690
   87b30:	00087b3c 	xorhi	zero,zero,8684
   87b34:	00087b3c 	xorhi	zero,zero,8684
   87b38:	00087cb4 	movhi	zero,8690
   87b3c:	0021883a 	mov	r16,zero
   87b40:	003f7b06 	br	87930 <___vfprintf_internal_r+0x60>
   87b44:	00c00404 	movi	r3,16
   87b48:	00800044 	movi	r2,1
   87b4c:	d8c00d15 	stw	r3,52(sp)
   87b50:	d8000c15 	stw	zero,48(sp)
   87b54:	d8800b15 	stw	r2,44(sp)
   87b58:	d8c00e17 	ldw	r3,56(sp)
   87b5c:	1805003a 	cmpeq	r2,r3,zero
   87b60:	10005a1e 	bne	r2,zero,87ccc <___vfprintf_internal_r+0x3fc>
   87b64:	d8800c17 	ldw	r2,48(sp)
   87b68:	1000781e 	bne	r2,zero,87d4c <___vfprintf_internal_r+0x47c>
   87b6c:	d8801117 	ldw	r2,68(sp)
   87b70:	d8000a15 	stw	zero,40(sp)
   87b74:	14400017 	ldw	r17,0(r2)
   87b78:	11c00104 	addi	r7,r2,4
   87b7c:	d9c01115 	stw	r7,68(sp)
   87b80:	88005a26 	beq	r17,zero,87cec <___vfprintf_internal_r+0x41c>
   87b84:	d8c00b17 	ldw	r3,44(sp)
   87b88:	dcc00044 	addi	r19,sp,1
   87b8c:	05800244 	movi	r22,9
   87b90:	182b003a 	cmpeq	r21,r3,zero
   87b94:	dcc01215 	stw	r19,72(sp)
   87b98:	00000506 	br	87bb0 <___vfprintf_internal_r+0x2e0>
   87b9c:	21000c04 	addi	r4,r4,48
   87ba0:	99000005 	stb	r4,0(r19)
   87ba4:	9cc00044 	addi	r19,r19,1
   87ba8:	80000f26 	beq	r16,zero,87be8 <___vfprintf_internal_r+0x318>
   87bac:	8023883a 	mov	r17,r16
   87bb0:	d9400d17 	ldw	r5,52(sp)
   87bb4:	8809883a 	mov	r4,r17
   87bb8:	00809880 	call	80988 <__udivsi3>
   87bbc:	d9000d17 	ldw	r4,52(sp)
   87bc0:	100b883a 	mov	r5,r2
   87bc4:	1021883a 	mov	r16,r2
   87bc8:	00809980 	call	80998 <__mulsi3>
   87bcc:	8889c83a 	sub	r4,r17,r2
   87bd0:	b13ff20e 	bge	r22,r4,87b9c <___vfprintf_internal_r+0x2cc>
   87bd4:	a8009f1e 	bne	r21,zero,87e54 <___vfprintf_internal_r+0x584>
   87bd8:	21000dc4 	addi	r4,r4,55
   87bdc:	99000005 	stb	r4,0(r19)
   87be0:	9cc00044 	addi	r19,r19,1
   87be4:	803ff11e 	bne	r16,zero,87bac <___vfprintf_internal_r+0x2dc>
   87be8:	d8801217 	ldw	r2,72(sp)
   87bec:	98a3c83a 	sub	r17,r19,r2
   87bf0:	d8c00917 	ldw	r3,36(sp)
   87bf4:	1c4bc83a 	sub	r5,r3,r17
   87bf8:	0140130e 	bge	zero,r5,87c48 <___vfprintf_internal_r+0x378>
   87bfc:	d8c00044 	addi	r3,sp,1
   87c00:	18800804 	addi	r2,r3,32
   87c04:	9880102e 	bgeu	r19,r2,87c48 <___vfprintf_internal_r+0x378>
   87c08:	00800c04 	movi	r2,48
   87c0c:	28ffffc4 	addi	r3,r5,-1
   87c10:	98800005 	stb	r2,0(r19)
   87c14:	99000044 	addi	r4,r19,1
   87c18:	00c0080e 	bge	zero,r3,87c3c <___vfprintf_internal_r+0x36c>
   87c1c:	d8c00044 	addi	r3,sp,1
   87c20:	18800804 	addi	r2,r3,32
   87c24:	2080052e 	bgeu	r4,r2,87c3c <___vfprintf_internal_r+0x36c>
   87c28:	00800c04 	movi	r2,48
   87c2c:	20800005 	stb	r2,0(r4)
   87c30:	21000044 	addi	r4,r4,1
   87c34:	9945883a 	add	r2,r19,r5
   87c38:	20bff81e 	bne	r4,r2,87c1c <___vfprintf_internal_r+0x34c>
   87c3c:	d8801217 	ldw	r2,72(sp)
   87c40:	2027883a 	mov	r19,r4
   87c44:	20a3c83a 	sub	r17,r4,r2
   87c48:	d8c00a17 	ldw	r3,40(sp)
   87c4c:	1c45883a 	add	r2,r3,r17
   87c50:	e0a1c83a 	sub	r16,fp,r2
   87c54:	d8800f17 	ldw	r2,60(sp)
   87c58:	10008026 	beq	r2,zero,87e5c <___vfprintf_internal_r+0x58c>
   87c5c:	1805003a 	cmpeq	r2,r3,zero
   87c60:	1000ae26 	beq	r2,zero,87f1c <___vfprintf_internal_r+0x64c>
   87c64:	0400a516 	blt	zero,r16,87efc <___vfprintf_internal_r+0x62c>
   87c68:	b805883a 	mov	r2,r23
   87c6c:	0440950e 	bge	zero,r17,87ec4 <___vfprintf_internal_r+0x5f4>
   87c70:	102f883a 	mov	r23,r2
   87c74:	1461883a 	add	r16,r2,r17
   87c78:	00000206 	br	87c84 <___vfprintf_internal_r+0x3b4>
   87c7c:	bdc00044 	addi	r23,r23,1
   87c80:	85ffae26 	beq	r16,r23,87b3c <___vfprintf_internal_r+0x26c>
   87c84:	9cffffc4 	addi	r19,r19,-1
   87c88:	98800003 	ldbu	r2,0(r19)
   87c8c:	a0c00117 	ldw	r3,4(r20)
   87c90:	d9001017 	ldw	r4,64(sp)
   87c94:	d8800005 	stb	r2,0(sp)
   87c98:	a00b883a 	mov	r5,r20
   87c9c:	d80d883a 	mov	r6,sp
   87ca0:	01c00044 	movi	r7,1
   87ca4:	183ee83a 	callr	r3
   87ca8:	103ff426 	beq	r2,zero,87c7c <___vfprintf_internal_r+0x3ac>
   87cac:	05ffffc4 	movi	r23,-1
   87cb0:	003f3b06 	br	879a0 <___vfprintf_internal_r+0xd0>
   87cb4:	00c00404 	movi	r3,16
   87cb8:	d8c00d15 	stw	r3,52(sp)
   87cbc:	d8000c15 	stw	zero,48(sp)
   87cc0:	d8c00e17 	ldw	r3,56(sp)
   87cc4:	1805003a 	cmpeq	r2,r3,zero
   87cc8:	103fa626 	beq	r2,zero,87b64 <___vfprintf_internal_r+0x294>
   87ccc:	d8c00c17 	ldw	r3,48(sp)
   87cd0:	1800171e 	bne	r3,zero,87d30 <___vfprintf_internal_r+0x460>
   87cd4:	d8c01117 	ldw	r3,68(sp)
   87cd8:	d8000a15 	stw	zero,40(sp)
   87cdc:	1c400017 	ldw	r17,0(r3)
   87ce0:	19c00104 	addi	r7,r3,4
   87ce4:	d9c01115 	stw	r7,68(sp)
   87ce8:	883fa61e 	bne	r17,zero,87b84 <___vfprintf_internal_r+0x2b4>
   87cec:	dcc00044 	addi	r19,sp,1
   87cf0:	dcc01215 	stw	r19,72(sp)
   87cf4:	003fbe06 	br	87bf0 <___vfprintf_internal_r+0x320>
   87cf8:	04000084 	movi	r16,2
   87cfc:	d9c00f15 	stw	r7,60(sp)
   87d00:	003f0b06 	br	87930 <___vfprintf_internal_r+0x60>
   87d04:	040000c4 	movi	r16,3
   87d08:	003f0906 	br	87930 <___vfprintf_internal_r+0x60>
   87d0c:	00800044 	movi	r2,1
   87d10:	040000c4 	movi	r16,3
   87d14:	d8800e15 	stw	r2,56(sp)
   87d18:	003f0506 	br	87930 <___vfprintf_internal_r+0x60>
   87d1c:	0007883a 	mov	r3,zero
   87d20:	003f4e06 	br	87a5c <___vfprintf_internal_r+0x18c>
   87d24:	00800044 	movi	r2,1
   87d28:	d8800915 	stw	r2,36(sp)
   87d2c:	003f5706 	br	87a8c <___vfprintf_internal_r+0x1bc>
   87d30:	d8801117 	ldw	r2,68(sp)
   87d34:	14400017 	ldw	r17,0(r2)
   87d38:	10800104 	addi	r2,r2,4
   87d3c:	d8801115 	stw	r2,68(sp)
   87d40:	88000716 	blt	r17,zero,87d60 <___vfprintf_internal_r+0x490>
   87d44:	d8000a15 	stw	zero,40(sp)
   87d48:	003f8d06 	br	87b80 <___vfprintf_internal_r+0x2b0>
   87d4c:	d8c01117 	ldw	r3,68(sp)
   87d50:	1c400017 	ldw	r17,0(r3)
   87d54:	18c00104 	addi	r3,r3,4
   87d58:	d8c01115 	stw	r3,68(sp)
   87d5c:	883ff90e 	bge	r17,zero,87d44 <___vfprintf_internal_r+0x474>
   87d60:	00800044 	movi	r2,1
   87d64:	0463c83a 	sub	r17,zero,r17
   87d68:	d8800a15 	stw	r2,40(sp)
   87d6c:	003f8406 	br	87b80 <___vfprintf_internal_r+0x2b0>
   87d70:	04000044 	movi	r16,1
   87d74:	8700080e 	bge	r16,fp,87d98 <___vfprintf_internal_r+0x4c8>
   87d78:	d9001017 	ldw	r4,64(sp)
   87d7c:	a00b883a 	mov	r5,r20
   87d80:	01800804 	movi	r6,32
   87d84:	e1ffffc4 	addi	r7,fp,-1
   87d88:	00878500 	call	87850 <print_repeat>
   87d8c:	103fc71e 	bne	r2,zero,87cac <___vfprintf_internal_r+0x3dc>
   87d90:	e5c5883a 	add	r2,fp,r23
   87d94:	15ffffc4 	addi	r23,r2,-1
   87d98:	d8c01117 	ldw	r3,68(sp)
   87d9c:	d9001017 	ldw	r4,64(sp)
   87da0:	800f883a 	mov	r7,r16
   87da4:	18800017 	ldw	r2,0(r3)
   87da8:	a0c00117 	ldw	r3,4(r20)
   87dac:	a00b883a 	mov	r5,r20
   87db0:	d8800005 	stb	r2,0(sp)
   87db4:	d80d883a 	mov	r6,sp
   87db8:	183ee83a 	callr	r3
   87dbc:	103fbb1e 	bne	r2,zero,87cac <___vfprintf_internal_r+0x3dc>
   87dc0:	d8801117 	ldw	r2,68(sp)
   87dc4:	bdc00044 	addi	r23,r23,1
   87dc8:	0021883a 	mov	r16,zero
   87dcc:	10800104 	addi	r2,r2,4
   87dd0:	d8801115 	stw	r2,68(sp)
   87dd4:	003ed606 	br	87930 <___vfprintf_internal_r+0x60>
   87dd8:	00800204 	movi	r2,8
   87ddc:	d8800d15 	stw	r2,52(sp)
   87de0:	d8000c15 	stw	zero,48(sp)
   87de4:	003fb606 	br	87cc0 <___vfprintf_internal_r+0x3f0>
   87de8:	d8c01117 	ldw	r3,68(sp)
   87dec:	1cc00017 	ldw	r19,0(r3)
   87df0:	9809883a 	mov	r4,r19
   87df4:	008129c0 	call	8129c <strlen>
   87df8:	e0a1c83a 	sub	r16,fp,r2
   87dfc:	1023883a 	mov	r17,r2
   87e00:	0400070e 	bge	zero,r16,87e20 <___vfprintf_internal_r+0x550>
   87e04:	d9001017 	ldw	r4,64(sp)
   87e08:	a00b883a 	mov	r5,r20
   87e0c:	01800804 	movi	r6,32
   87e10:	800f883a 	mov	r7,r16
   87e14:	00878500 	call	87850 <print_repeat>
   87e18:	103fa41e 	bne	r2,zero,87cac <___vfprintf_internal_r+0x3dc>
   87e1c:	bc2f883a 	add	r23,r23,r16
   87e20:	a0c00117 	ldw	r3,4(r20)
   87e24:	d9001017 	ldw	r4,64(sp)
   87e28:	980d883a 	mov	r6,r19
   87e2c:	a00b883a 	mov	r5,r20
   87e30:	880f883a 	mov	r7,r17
   87e34:	183ee83a 	callr	r3
   87e38:	103f9c1e 	bne	r2,zero,87cac <___vfprintf_internal_r+0x3dc>
   87e3c:	d8801117 	ldw	r2,68(sp)
   87e40:	bc6f883a 	add	r23,r23,r17
   87e44:	0021883a 	mov	r16,zero
   87e48:	10800104 	addi	r2,r2,4
   87e4c:	d8801115 	stw	r2,68(sp)
   87e50:	003eb706 	br	87930 <___vfprintf_internal_r+0x60>
   87e54:	210015c4 	addi	r4,r4,87
   87e58:	003f5106 	br	87ba0 <___vfprintf_internal_r+0x2d0>
   87e5c:	04003b16 	blt	zero,r16,87f4c <___vfprintf_internal_r+0x67c>
   87e60:	d8c00a17 	ldw	r3,40(sp)
   87e64:	1805003a 	cmpeq	r2,r3,zero
   87e68:	103f7f1e 	bne	r2,zero,87c68 <___vfprintf_internal_r+0x398>
   87e6c:	a0c00117 	ldw	r3,4(r20)
   87e70:	d9001017 	ldw	r4,64(sp)
   87e74:	00800b44 	movi	r2,45
   87e78:	d8800005 	stb	r2,0(sp)
   87e7c:	a00b883a 	mov	r5,r20
   87e80:	d80d883a 	mov	r6,sp
   87e84:	01c00044 	movi	r7,1
   87e88:	183ee83a 	callr	r3
   87e8c:	103f871e 	bne	r2,zero,87cac <___vfprintf_internal_r+0x3dc>
   87e90:	b8800044 	addi	r2,r23,1
   87e94:	003f7506 	br	87c6c <___vfprintf_internal_r+0x39c>
   87e98:	0007883a 	mov	r3,zero
   87e9c:	003edb06 	br	87a0c <___vfprintf_internal_r+0x13c>
   87ea0:	a0c00117 	ldw	r3,4(r20)
   87ea4:	d9001017 	ldw	r4,64(sp)
   87ea8:	d9400005 	stb	r5,0(sp)
   87eac:	d80d883a 	mov	r6,sp
   87eb0:	a00b883a 	mov	r5,r20
   87eb4:	183ee83a 	callr	r3
   87eb8:	103f7c1e 	bne	r2,zero,87cac <___vfprintf_internal_r+0x3dc>
   87ebc:	bdc00044 	addi	r23,r23,1
   87ec0:	003e9b06 	br	87930 <___vfprintf_internal_r+0x60>
   87ec4:	102f883a 	mov	r23,r2
   87ec8:	0021883a 	mov	r16,zero
   87ecc:	003e9806 	br	87930 <___vfprintf_internal_r+0x60>
   87ed0:	a0c00117 	ldw	r3,4(r20)
   87ed4:	d9000005 	stb	r4,0(sp)
   87ed8:	d9001017 	ldw	r4,64(sp)
   87edc:	a00b883a 	mov	r5,r20
   87ee0:	d80d883a 	mov	r6,sp
   87ee4:	800f883a 	mov	r7,r16
   87ee8:	183ee83a 	callr	r3
   87eec:	103f6f1e 	bne	r2,zero,87cac <___vfprintf_internal_r+0x3dc>
   87ef0:	bc2f883a 	add	r23,r23,r16
   87ef4:	0021883a 	mov	r16,zero
   87ef8:	003e8d06 	br	87930 <___vfprintf_internal_r+0x60>
   87efc:	d9001017 	ldw	r4,64(sp)
   87f00:	a00b883a 	mov	r5,r20
   87f04:	01800c04 	movi	r6,48
   87f08:	800f883a 	mov	r7,r16
   87f0c:	00878500 	call	87850 <print_repeat>
   87f10:	103f661e 	bne	r2,zero,87cac <___vfprintf_internal_r+0x3dc>
   87f14:	bc05883a 	add	r2,r23,r16
   87f18:	003f5406 	br	87c6c <___vfprintf_internal_r+0x39c>
   87f1c:	a0c00117 	ldw	r3,4(r20)
   87f20:	d9001017 	ldw	r4,64(sp)
   87f24:	00800b44 	movi	r2,45
   87f28:	d8800005 	stb	r2,0(sp)
   87f2c:	a00b883a 	mov	r5,r20
   87f30:	d80d883a 	mov	r6,sp
   87f34:	01c00044 	movi	r7,1
   87f38:	183ee83a 	callr	r3
   87f3c:	103f5b1e 	bne	r2,zero,87cac <___vfprintf_internal_r+0x3dc>
   87f40:	bdc00044 	addi	r23,r23,1
   87f44:	043f480e 	bge	zero,r16,87c68 <___vfprintf_internal_r+0x398>
   87f48:	003fec06 	br	87efc <___vfprintf_internal_r+0x62c>
   87f4c:	d9001017 	ldw	r4,64(sp)
   87f50:	a00b883a 	mov	r5,r20
   87f54:	01800804 	movi	r6,32
   87f58:	800f883a 	mov	r7,r16
   87f5c:	00878500 	call	87850 <print_repeat>
   87f60:	103f521e 	bne	r2,zero,87cac <___vfprintf_internal_r+0x3dc>
   87f64:	bc2f883a 	add	r23,r23,r16
   87f68:	003fbd06 	br	87e60 <___vfprintf_internal_r+0x590>

00087f6c <__vfprintf_internal>:
   87f6c:	00800274 	movhi	r2,9
   87f70:	109a8f04 	addi	r2,r2,27196
   87f74:	2013883a 	mov	r9,r4
   87f78:	11000017 	ldw	r4,0(r2)
   87f7c:	2805883a 	mov	r2,r5
   87f80:	300f883a 	mov	r7,r6
   87f84:	480b883a 	mov	r5,r9
   87f88:	100d883a 	mov	r6,r2
   87f8c:	00878d01 	jmpi	878d0 <___vfprintf_internal_r>

00087f90 <__register_exitproc>:
   87f90:	defff904 	addi	sp,sp,-28
   87f94:	00800274 	movhi	r2,9
   87f98:	109a9004 	addi	r2,r2,27200
   87f9c:	dc400115 	stw	r17,4(sp)
   87fa0:	14400017 	ldw	r17,0(r2)
   87fa4:	dc000015 	stw	r16,0(sp)
   87fa8:	dd400515 	stw	r21,20(sp)
   87fac:	8c000c17 	ldw	r16,48(r17)
   87fb0:	dd000415 	stw	r20,16(sp)
   87fb4:	dcc00315 	stw	r19,12(sp)
   87fb8:	dc800215 	stw	r18,8(sp)
   87fbc:	dfc00615 	stw	ra,24(sp)
   87fc0:	2025883a 	mov	r18,r4
   87fc4:	282b883a 	mov	r21,r5
   87fc8:	3029883a 	mov	r20,r6
   87fcc:	3827883a 	mov	r19,r7
   87fd0:	80002626 	beq	r16,zero,8806c <__register_exitproc+0xdc>
   87fd4:	81400117 	ldw	r5,4(r16)
   87fd8:	008007c4 	movi	r2,31
   87fdc:	11403716 	blt	r2,r5,880bc <__register_exitproc+0x12c>
   87fe0:	90002026 	beq	r18,zero,88064 <__register_exitproc+0xd4>
   87fe4:	81802217 	ldw	r6,136(r16)
   87fe8:	30002926 	beq	r6,zero,88090 <__register_exitproc+0x100>
   87fec:	81400117 	ldw	r5,4(r16)
   87ff0:	00c00044 	movi	r3,1
   87ff4:	31004017 	ldw	r4,256(r6)
   87ff8:	1946983a 	sll	r3,r3,r5
   87ffc:	2945883a 	add	r2,r5,r5
   88000:	1085883a 	add	r2,r2,r2
   88004:	1185883a 	add	r2,r2,r6
   88008:	20c8b03a 	or	r4,r4,r3
   8800c:	14c02015 	stw	r19,128(r2)
   88010:	15000015 	stw	r20,0(r2)
   88014:	00800084 	movi	r2,2
   88018:	31004015 	stw	r4,256(r6)
   8801c:	90801826 	beq	r18,r2,88080 <__register_exitproc+0xf0>
   88020:	2945883a 	add	r2,r5,r5
   88024:	1085883a 	add	r2,r2,r2
   88028:	1405883a 	add	r2,r2,r16
   8802c:	28c00044 	addi	r3,r5,1
   88030:	0009883a 	mov	r4,zero
   88034:	15400215 	stw	r21,8(r2)
   88038:	80c00115 	stw	r3,4(r16)
   8803c:	2005883a 	mov	r2,r4
   88040:	dfc00617 	ldw	ra,24(sp)
   88044:	dd400517 	ldw	r21,20(sp)
   88048:	dd000417 	ldw	r20,16(sp)
   8804c:	dcc00317 	ldw	r19,12(sp)
   88050:	dc800217 	ldw	r18,8(sp)
   88054:	dc400117 	ldw	r17,4(sp)
   88058:	dc000017 	ldw	r16,0(sp)
   8805c:	dec00704 	addi	sp,sp,28
   88060:	f800283a 	ret
   88064:	81400117 	ldw	r5,4(r16)
   88068:	003fed06 	br	88020 <__register_exitproc+0x90>
   8806c:	008002b4 	movhi	r2,10
   88070:	109c5004 	addi	r2,r2,28992
   88074:	1021883a 	mov	r16,r2
   88078:	88800c15 	stw	r2,48(r17)
   8807c:	003fd506 	br	87fd4 <__register_exitproc+0x44>
   88080:	30804117 	ldw	r2,260(r6)
   88084:	10c4b03a 	or	r2,r2,r3
   88088:	30804115 	stw	r2,260(r6)
   8808c:	003fe406 	br	88020 <__register_exitproc+0x90>
   88090:	00800234 	movhi	r2,8
   88094:	10827904 	addi	r2,r2,2532
   88098:	10000b26 	beq	r2,zero,880c8 <__register_exitproc+0x138>
   8809c:	01004204 	movi	r4,264
   880a0:	103ee83a 	callr	r2
   880a4:	10000826 	beq	r2,zero,880c8 <__register_exitproc+0x138>
   880a8:	100d883a 	mov	r6,r2
   880ac:	10004015 	stw	zero,256(r2)
   880b0:	10004115 	stw	zero,260(r2)
   880b4:	80802215 	stw	r2,136(r16)
   880b8:	003fcc06 	br	87fec <__register_exitproc+0x5c>
   880bc:	00800234 	movhi	r2,8
   880c0:	10827904 	addi	r2,r2,2532
   880c4:	1000021e 	bne	r2,zero,880d0 <__register_exitproc+0x140>
   880c8:	013fffc4 	movi	r4,-1
   880cc:	003fdb06 	br	8803c <__register_exitproc+0xac>
   880d0:	01002304 	movi	r4,140
   880d4:	103ee83a 	callr	r2
   880d8:	1007883a 	mov	r3,r2
   880dc:	103ffa26 	beq	r2,zero,880c8 <__register_exitproc+0x138>
   880e0:	88800c17 	ldw	r2,48(r17)
   880e4:	1821883a 	mov	r16,r3
   880e8:	18000115 	stw	zero,4(r3)
   880ec:	18800015 	stw	r2,0(r3)
   880f0:	88c00c15 	stw	r3,48(r17)
   880f4:	903fdb26 	beq	r18,zero,88064 <__register_exitproc+0xd4>
   880f8:	003fba06 	br	87fe4 <__register_exitproc+0x54>

000880fc <register_fini>:
   880fc:	f800283a 	ret

00088100 <__call_exitprocs>:
   88100:	defff304 	addi	sp,sp,-52
   88104:	00800274 	movhi	r2,9
   88108:	109a9004 	addi	r2,r2,27200
   8810c:	df000b15 	stw	fp,44(sp)
   88110:	17000017 	ldw	fp,0(r2)
   88114:	00800234 	movhi	r2,8
   88118:	10827404 	addi	r2,r2,2512
   8811c:	1005003a 	cmpeq	r2,r2,zero
   88120:	d8800215 	stw	r2,8(sp)
   88124:	e0800c04 	addi	r2,fp,48
   88128:	dd800915 	stw	r22,36(sp)
   8812c:	dd400815 	stw	r21,32(sp)
   88130:	dfc00c15 	stw	ra,48(sp)
   88134:	ddc00a15 	stw	r23,40(sp)
   88138:	dd000715 	stw	r20,28(sp)
   8813c:	dcc00615 	stw	r19,24(sp)
   88140:	dc800515 	stw	r18,20(sp)
   88144:	dc400415 	stw	r17,16(sp)
   88148:	dc000315 	stw	r16,12(sp)
   8814c:	282d883a 	mov	r22,r5
   88150:	d9000115 	stw	r4,4(sp)
   88154:	d8800015 	stw	r2,0(sp)
   88158:	282b003a 	cmpeq	r21,r5,zero
   8815c:	e4400c17 	ldw	r17,48(fp)
   88160:	88001226 	beq	r17,zero,881ac <__call_exitprocs+0xac>
   88164:	ddc00017 	ldw	r23,0(sp)
   88168:	88800117 	ldw	r2,4(r17)
   8816c:	8c802217 	ldw	r18,136(r17)
   88170:	143fffc4 	addi	r16,r2,-1
   88174:	80000b16 	blt	r16,zero,881a4 <__call_exitprocs+0xa4>
   88178:	9027003a 	cmpeq	r19,r18,zero
   8817c:	a800171e 	bne	r21,zero,881dc <__call_exitprocs+0xdc>
   88180:	9800051e 	bne	r19,zero,88198 <__call_exitprocs+0x98>
   88184:	8409883a 	add	r4,r16,r16
   88188:	2105883a 	add	r2,r4,r4
   8818c:	1485883a 	add	r2,r2,r18
   88190:	10c02017 	ldw	r3,128(r2)
   88194:	b0c01226 	beq	r22,r3,881e0 <__call_exitprocs+0xe0>
   88198:	843fffc4 	addi	r16,r16,-1
   8819c:	00bfffc4 	movi	r2,-1
   881a0:	80bff61e 	bne	r16,r2,8817c <__call_exitprocs+0x7c>
   881a4:	d8800217 	ldw	r2,8(sp)
   881a8:	10003226 	beq	r2,zero,88274 <__call_exitprocs+0x174>
   881ac:	dfc00c17 	ldw	ra,48(sp)
   881b0:	df000b17 	ldw	fp,44(sp)
   881b4:	ddc00a17 	ldw	r23,40(sp)
   881b8:	dd800917 	ldw	r22,36(sp)
   881bc:	dd400817 	ldw	r21,32(sp)
   881c0:	dd000717 	ldw	r20,28(sp)
   881c4:	dcc00617 	ldw	r19,24(sp)
   881c8:	dc800517 	ldw	r18,20(sp)
   881cc:	dc400417 	ldw	r17,16(sp)
   881d0:	dc000317 	ldw	r16,12(sp)
   881d4:	dec00d04 	addi	sp,sp,52
   881d8:	f800283a 	ret
   881dc:	8409883a 	add	r4,r16,r16
   881e0:	88c00117 	ldw	r3,4(r17)
   881e4:	2105883a 	add	r2,r4,r4
   881e8:	1445883a 	add	r2,r2,r17
   881ec:	18ffffc4 	addi	r3,r3,-1
   881f0:	11800217 	ldw	r6,8(r2)
   881f4:	1c001826 	beq	r3,r16,88258 <__call_exitprocs+0x158>
   881f8:	10000215 	stw	zero,8(r2)
   881fc:	303fe626 	beq	r6,zero,88198 <__call_exitprocs+0x98>
   88200:	8d000117 	ldw	r20,4(r17)
   88204:	9800121e 	bne	r19,zero,88250 <__call_exitprocs+0x150>
   88208:	00c00044 	movi	r3,1
   8820c:	1c06983a 	sll	r3,r3,r16
   88210:	90804017 	ldw	r2,256(r18)
   88214:	1884703a 	and	r2,r3,r2
   88218:	10000d26 	beq	r2,zero,88250 <__call_exitprocs+0x150>
   8821c:	90804117 	ldw	r2,260(r18)
   88220:	1884703a 	and	r2,r3,r2
   88224:	10000e1e 	bne	r2,zero,88260 <__call_exitprocs+0x160>
   88228:	2105883a 	add	r2,r4,r4
   8822c:	1485883a 	add	r2,r2,r18
   88230:	11400017 	ldw	r5,0(r2)
   88234:	d9000117 	ldw	r4,4(sp)
   88238:	303ee83a 	callr	r6
   8823c:	88800117 	ldw	r2,4(r17)
   88240:	a0bfc61e 	bne	r20,r2,8815c <__call_exitprocs+0x5c>
   88244:	b8800017 	ldw	r2,0(r23)
   88248:	147fd326 	beq	r2,r17,88198 <__call_exitprocs+0x98>
   8824c:	003fc306 	br	8815c <__call_exitprocs+0x5c>
   88250:	303ee83a 	callr	r6
   88254:	003ff906 	br	8823c <__call_exitprocs+0x13c>
   88258:	8c000115 	stw	r16,4(r17)
   8825c:	003fe706 	br	881fc <__call_exitprocs+0xfc>
   88260:	2105883a 	add	r2,r4,r4
   88264:	1485883a 	add	r2,r2,r18
   88268:	11000017 	ldw	r4,0(r2)
   8826c:	303ee83a 	callr	r6
   88270:	003ff206 	br	8823c <__call_exitprocs+0x13c>
   88274:	88800117 	ldw	r2,4(r17)
   88278:	10000b1e 	bne	r2,zero,882a8 <__call_exitprocs+0x1a8>
   8827c:	89000017 	ldw	r4,0(r17)
   88280:	20000a26 	beq	r4,zero,882ac <__call_exitprocs+0x1ac>
   88284:	b9000015 	stw	r4,0(r23)
   88288:	90000226 	beq	r18,zero,88294 <__call_exitprocs+0x194>
   8828c:	9009883a 	mov	r4,r18
   88290:	00809d00 	call	809d0 <free>
   88294:	8809883a 	mov	r4,r17
   88298:	00809d00 	call	809d0 <free>
   8829c:	bc400017 	ldw	r17,0(r23)
   882a0:	883fb11e 	bne	r17,zero,88168 <__call_exitprocs+0x68>
   882a4:	003fc106 	br	881ac <__call_exitprocs+0xac>
   882a8:	89000017 	ldw	r4,0(r17)
   882ac:	882f883a 	mov	r23,r17
   882b0:	2023883a 	mov	r17,r4
   882b4:	883fac1e 	bne	r17,zero,88168 <__call_exitprocs+0x68>
   882b8:	003fbc06 	br	881ac <__call_exitprocs+0xac>

000882bc <__muldi3>:
   882bc:	defff204 	addi	sp,sp,-56
   882c0:	df000c15 	stw	fp,48(sp)
   882c4:	3038d43a 	srli	fp,r6,16
   882c8:	dd000815 	stw	r20,32(sp)
   882cc:	dc400515 	stw	r17,20(sp)
   882d0:	2028d43a 	srli	r20,r4,16
   882d4:	247fffcc 	andi	r17,r4,65535
   882d8:	dc000415 	stw	r16,16(sp)
   882dc:	343fffcc 	andi	r16,r6,65535
   882e0:	dcc00715 	stw	r19,28(sp)
   882e4:	d9000015 	stw	r4,0(sp)
   882e8:	2827883a 	mov	r19,r5
   882ec:	8809883a 	mov	r4,r17
   882f0:	d9400115 	stw	r5,4(sp)
   882f4:	800b883a 	mov	r5,r16
   882f8:	d9800215 	stw	r6,8(sp)
   882fc:	dfc00d15 	stw	ra,52(sp)
   88300:	d9c00315 	stw	r7,12(sp)
   88304:	dd800a15 	stw	r22,40(sp)
   88308:	dd400915 	stw	r21,36(sp)
   8830c:	302d883a 	mov	r22,r6
   88310:	ddc00b15 	stw	r23,44(sp)
   88314:	dc800615 	stw	r18,24(sp)
   88318:	00809980 	call	80998 <__mulsi3>
   8831c:	8809883a 	mov	r4,r17
   88320:	e00b883a 	mov	r5,fp
   88324:	102b883a 	mov	r21,r2
   88328:	00809980 	call	80998 <__mulsi3>
   8832c:	800b883a 	mov	r5,r16
   88330:	a009883a 	mov	r4,r20
   88334:	1023883a 	mov	r17,r2
   88338:	00809980 	call	80998 <__mulsi3>
   8833c:	a009883a 	mov	r4,r20
   88340:	e00b883a 	mov	r5,fp
   88344:	1021883a 	mov	r16,r2
   88348:	00809980 	call	80998 <__mulsi3>
   8834c:	a8ffffcc 	andi	r3,r21,65535
   88350:	a82ad43a 	srli	r21,r21,16
   88354:	8c23883a 	add	r17,r17,r16
   88358:	1011883a 	mov	r8,r2
   8835c:	ac6b883a 	add	r21,r21,r17
   88360:	a804943a 	slli	r2,r21,16
   88364:	b009883a 	mov	r4,r22
   88368:	980b883a 	mov	r5,r19
   8836c:	10c7883a 	add	r3,r2,r3
   88370:	a812d43a 	srli	r9,r21,16
   88374:	180d883a 	mov	r6,r3
   88378:	ac00022e 	bgeu	r21,r16,88384 <__muldi3+0xc8>
   8837c:	00800074 	movhi	r2,1
   88380:	4091883a 	add	r8,r8,r2
   88384:	4267883a 	add	r19,r8,r9
   88388:	302d883a 	mov	r22,r6
   8838c:	00809980 	call	80998 <__mulsi3>
   88390:	d9400317 	ldw	r5,12(sp)
   88394:	d9000017 	ldw	r4,0(sp)
   88398:	1023883a 	mov	r17,r2
   8839c:	00809980 	call	80998 <__mulsi3>
   883a0:	14cb883a 	add	r5,r2,r19
   883a4:	894b883a 	add	r5,r17,r5
   883a8:	b005883a 	mov	r2,r22
   883ac:	2807883a 	mov	r3,r5
   883b0:	dfc00d17 	ldw	ra,52(sp)
   883b4:	df000c17 	ldw	fp,48(sp)
   883b8:	ddc00b17 	ldw	r23,44(sp)
   883bc:	dd800a17 	ldw	r22,40(sp)
   883c0:	dd400917 	ldw	r21,36(sp)
   883c4:	dd000817 	ldw	r20,32(sp)
   883c8:	dcc00717 	ldw	r19,28(sp)
   883cc:	dc800617 	ldw	r18,24(sp)
   883d0:	dc400517 	ldw	r17,20(sp)
   883d4:	dc000417 	ldw	r16,16(sp)
   883d8:	dec00e04 	addi	sp,sp,56
   883dc:	f800283a 	ret

000883e0 <__fixunsdfsi>:
   883e0:	defffb04 	addi	sp,sp,-20
   883e4:	dc400115 	stw	r17,4(sp)
   883e8:	dc000015 	stw	r16,0(sp)
   883ec:	04507834 	movhi	r17,16864
   883f0:	0021883a 	mov	r16,zero
   883f4:	800d883a 	mov	r6,r16
   883f8:	880f883a 	mov	r7,r17
   883fc:	dcc00315 	stw	r19,12(sp)
   88400:	dc800215 	stw	r18,8(sp)
   88404:	2827883a 	mov	r19,r5
   88408:	2025883a 	mov	r18,r4
   8840c:	dfc00415 	stw	ra,16(sp)
   88410:	00896100 	call	89610 <__gedf2>
   88414:	000d883a 	mov	r6,zero
   88418:	880f883a 	mov	r7,r17
   8841c:	980b883a 	mov	r5,r19
   88420:	9009883a 	mov	r4,r18
   88424:	10000d16 	blt	r2,zero,8845c <__fixunsdfsi+0x7c>
   88428:	0088f000 	call	88f00 <__subdf3>
   8842c:	180b883a 	mov	r5,r3
   88430:	1009883a 	mov	r4,r2
   88434:	00897900 	call	89790 <__fixdfsi>
   88438:	00e00034 	movhi	r3,32768
   8843c:	10c5883a 	add	r2,r2,r3
   88440:	dfc00417 	ldw	ra,16(sp)
   88444:	dcc00317 	ldw	r19,12(sp)
   88448:	dc800217 	ldw	r18,8(sp)
   8844c:	dc400117 	ldw	r17,4(sp)
   88450:	dc000017 	ldw	r16,0(sp)
   88454:	dec00504 	addi	sp,sp,20
   88458:	f800283a 	ret
   8845c:	980b883a 	mov	r5,r19
   88460:	9009883a 	mov	r4,r18
   88464:	00897900 	call	89790 <__fixdfsi>
   88468:	dfc00417 	ldw	ra,16(sp)
   8846c:	dcc00317 	ldw	r19,12(sp)
   88470:	dc800217 	ldw	r18,8(sp)
   88474:	dc400117 	ldw	r17,4(sp)
   88478:	dc000017 	ldw	r16,0(sp)
   8847c:	dec00504 	addi	sp,sp,20
   88480:	f800283a 	ret

00088484 <__udivdi3>:
   88484:	defff104 	addi	sp,sp,-60
   88488:	0015883a 	mov	r10,zero
   8848c:	2005883a 	mov	r2,r4
   88490:	3011883a 	mov	r8,r6
   88494:	df000d15 	stw	fp,52(sp)
   88498:	dd400a15 	stw	r21,40(sp)
   8849c:	dcc00815 	stw	r19,32(sp)
   884a0:	dfc00e15 	stw	ra,56(sp)
   884a4:	ddc00c15 	stw	r23,48(sp)
   884a8:	dd800b15 	stw	r22,44(sp)
   884ac:	dd000915 	stw	r20,36(sp)
   884b0:	dc800715 	stw	r18,28(sp)
   884b4:	dc400615 	stw	r17,24(sp)
   884b8:	dc000515 	stw	r16,20(sp)
   884bc:	da800315 	stw	r10,12(sp)
   884c0:	4027883a 	mov	r19,r8
   884c4:	1039883a 	mov	fp,r2
   884c8:	282b883a 	mov	r21,r5
   884cc:	da800415 	stw	r10,16(sp)
   884d0:	3800401e 	bne	r7,zero,885d4 <__udivdi3+0x150>
   884d4:	2a006536 	bltu	r5,r8,8866c <__udivdi3+0x1e8>
   884d8:	4000b526 	beq	r8,zero,887b0 <__udivdi3+0x32c>
   884dc:	00bfffd4 	movui	r2,65535
   884e0:	14c0ad36 	bltu	r2,r19,88798 <__udivdi3+0x314>
   884e4:	00803fc4 	movi	r2,255
   884e8:	14c15e36 	bltu	r2,r19,88a64 <__udivdi3+0x5e0>
   884ec:	000b883a 	mov	r5,zero
   884f0:	0005883a 	mov	r2,zero
   884f4:	9884d83a 	srl	r2,r19,r2
   884f8:	01000274 	movhi	r4,9
   884fc:	2128bb04 	addi	r4,r4,-23828
   88500:	01800804 	movi	r6,32
   88504:	1105883a 	add	r2,r2,r4
   88508:	10c00003 	ldbu	r3,0(r2)
   8850c:	28c7883a 	add	r3,r5,r3
   88510:	30e9c83a 	sub	r20,r6,r3
   88514:	a0010a1e 	bne	r20,zero,88940 <__udivdi3+0x4bc>
   88518:	982ed43a 	srli	r23,r19,16
   8851c:	acebc83a 	sub	r21,r21,r19
   88520:	9dbfffcc 	andi	r22,r19,65535
   88524:	05000044 	movi	r20,1
   88528:	a809883a 	mov	r4,r21
   8852c:	b80b883a 	mov	r5,r23
   88530:	00809880 	call	80988 <__udivsi3>
   88534:	100b883a 	mov	r5,r2
   88538:	b009883a 	mov	r4,r22
   8853c:	1021883a 	mov	r16,r2
   88540:	00809980 	call	80998 <__mulsi3>
   88544:	a809883a 	mov	r4,r21
   88548:	b80b883a 	mov	r5,r23
   8854c:	1023883a 	mov	r17,r2
   88550:	00809900 	call	80990 <__umodsi3>
   88554:	1004943a 	slli	r2,r2,16
   88558:	e006d43a 	srli	r3,fp,16
   8855c:	10c4b03a 	or	r2,r2,r3
   88560:	1440042e 	bgeu	r2,r17,88574 <__udivdi3+0xf0>
   88564:	14c5883a 	add	r2,r2,r19
   88568:	843fffc4 	addi	r16,r16,-1
   8856c:	14c00136 	bltu	r2,r19,88574 <__udivdi3+0xf0>
   88570:	14415c36 	bltu	r2,r17,88ae4 <__udivdi3+0x660>
   88574:	1463c83a 	sub	r17,r2,r17
   88578:	8809883a 	mov	r4,r17
   8857c:	b80b883a 	mov	r5,r23
   88580:	00809880 	call	80988 <__udivsi3>
   88584:	100b883a 	mov	r5,r2
   88588:	b009883a 	mov	r4,r22
   8858c:	102b883a 	mov	r21,r2
   88590:	00809980 	call	80998 <__mulsi3>
   88594:	8809883a 	mov	r4,r17
   88598:	b80b883a 	mov	r5,r23
   8859c:	1025883a 	mov	r18,r2
   885a0:	00809900 	call	80990 <__umodsi3>
   885a4:	1004943a 	slli	r2,r2,16
   885a8:	e0ffffcc 	andi	r3,fp,65535
   885ac:	10c4b03a 	or	r2,r2,r3
   885b0:	1480042e 	bgeu	r2,r18,885c4 <__udivdi3+0x140>
   885b4:	9885883a 	add	r2,r19,r2
   885b8:	ad7fffc4 	addi	r21,r21,-1
   885bc:	14c00136 	bltu	r2,r19,885c4 <__udivdi3+0x140>
   885c0:	14813c36 	bltu	r2,r18,88ab4 <__udivdi3+0x630>
   885c4:	8004943a 	slli	r2,r16,16
   885c8:	a009883a 	mov	r4,r20
   885cc:	a884b03a 	or	r2,r21,r2
   885d0:	00001506 	br	88628 <__udivdi3+0x1a4>
   885d4:	380d883a 	mov	r6,r7
   885d8:	29c06c36 	bltu	r5,r7,8878c <__udivdi3+0x308>
   885dc:	00bfffd4 	movui	r2,65535
   885e0:	11c06436 	bltu	r2,r7,88774 <__udivdi3+0x2f0>
   885e4:	00803fc4 	movi	r2,255
   885e8:	11c11836 	bltu	r2,r7,88a4c <__udivdi3+0x5c8>
   885ec:	000b883a 	mov	r5,zero
   885f0:	0005883a 	mov	r2,zero
   885f4:	3084d83a 	srl	r2,r6,r2
   885f8:	01000274 	movhi	r4,9
   885fc:	2128bb04 	addi	r4,r4,-23828
   88600:	01c00804 	movi	r7,32
   88604:	1105883a 	add	r2,r2,r4
   88608:	10c00003 	ldbu	r3,0(r2)
   8860c:	28c7883a 	add	r3,r5,r3
   88610:	38edc83a 	sub	r22,r7,r3
   88614:	b000731e 	bne	r22,zero,887e4 <__udivdi3+0x360>
   88618:	35400136 	bltu	r6,r21,88620 <__udivdi3+0x19c>
   8861c:	e4c05b36 	bltu	fp,r19,8878c <__udivdi3+0x308>
   88620:	00800044 	movi	r2,1
   88624:	0009883a 	mov	r4,zero
   88628:	d8800315 	stw	r2,12(sp)
   8862c:	d9400317 	ldw	r5,12(sp)
   88630:	2007883a 	mov	r3,r4
   88634:	d9000415 	stw	r4,16(sp)
   88638:	2805883a 	mov	r2,r5
   8863c:	dfc00e17 	ldw	ra,56(sp)
   88640:	df000d17 	ldw	fp,52(sp)
   88644:	ddc00c17 	ldw	r23,48(sp)
   88648:	dd800b17 	ldw	r22,44(sp)
   8864c:	dd400a17 	ldw	r21,40(sp)
   88650:	dd000917 	ldw	r20,36(sp)
   88654:	dcc00817 	ldw	r19,32(sp)
   88658:	dc800717 	ldw	r18,28(sp)
   8865c:	dc400617 	ldw	r17,24(sp)
   88660:	dc000517 	ldw	r16,20(sp)
   88664:	dec00f04 	addi	sp,sp,60
   88668:	f800283a 	ret
   8866c:	00bfffd4 	movui	r2,65535
   88670:	12005636 	bltu	r2,r8,887cc <__udivdi3+0x348>
   88674:	00803fc4 	movi	r2,255
   88678:	12010036 	bltu	r2,r8,88a7c <__udivdi3+0x5f8>
   8867c:	000b883a 	mov	r5,zero
   88680:	0005883a 	mov	r2,zero
   88684:	9884d83a 	srl	r2,r19,r2
   88688:	01000274 	movhi	r4,9
   8868c:	2128bb04 	addi	r4,r4,-23828
   88690:	01800804 	movi	r6,32
   88694:	1105883a 	add	r2,r2,r4
   88698:	10c00003 	ldbu	r3,0(r2)
   8869c:	28c7883a 	add	r3,r5,r3
   886a0:	30cbc83a 	sub	r5,r6,r3
   886a4:	28000626 	beq	r5,zero,886c0 <__udivdi3+0x23c>
   886a8:	3145c83a 	sub	r2,r6,r5
   886ac:	e084d83a 	srl	r2,fp,r2
   886b0:	a946983a 	sll	r3,r21,r5
   886b4:	e178983a 	sll	fp,fp,r5
   886b8:	9966983a 	sll	r19,r19,r5
   886bc:	18aab03a 	or	r21,r3,r2
   886c0:	982ed43a 	srli	r23,r19,16
   886c4:	a809883a 	mov	r4,r21
   886c8:	9cbfffcc 	andi	r18,r19,65535
   886cc:	b80b883a 	mov	r5,r23
   886d0:	00809880 	call	80988 <__udivsi3>
   886d4:	100b883a 	mov	r5,r2
   886d8:	9009883a 	mov	r4,r18
   886dc:	1021883a 	mov	r16,r2
   886e0:	00809980 	call	80998 <__mulsi3>
   886e4:	a809883a 	mov	r4,r21
   886e8:	b80b883a 	mov	r5,r23
   886ec:	1023883a 	mov	r17,r2
   886f0:	00809900 	call	80990 <__umodsi3>
   886f4:	1004943a 	slli	r2,r2,16
   886f8:	e006d43a 	srli	r3,fp,16
   886fc:	10c4b03a 	or	r2,r2,r3
   88700:	1440042e 	bgeu	r2,r17,88714 <__udivdi3+0x290>
   88704:	14c5883a 	add	r2,r2,r19
   88708:	843fffc4 	addi	r16,r16,-1
   8870c:	14c00136 	bltu	r2,r19,88714 <__udivdi3+0x290>
   88710:	1440ea36 	bltu	r2,r17,88abc <__udivdi3+0x638>
   88714:	1463c83a 	sub	r17,r2,r17
   88718:	8809883a 	mov	r4,r17
   8871c:	b80b883a 	mov	r5,r23
   88720:	00809880 	call	80988 <__udivsi3>
   88724:	100b883a 	mov	r5,r2
   88728:	9009883a 	mov	r4,r18
   8872c:	102b883a 	mov	r21,r2
   88730:	00809980 	call	80998 <__mulsi3>
   88734:	8809883a 	mov	r4,r17
   88738:	b80b883a 	mov	r5,r23
   8873c:	1025883a 	mov	r18,r2
   88740:	00809900 	call	80990 <__umodsi3>
   88744:	1004943a 	slli	r2,r2,16
   88748:	e0ffffcc 	andi	r3,fp,65535
   8874c:	10c4b03a 	or	r2,r2,r3
   88750:	1480042e 	bgeu	r2,r18,88764 <__udivdi3+0x2e0>
   88754:	9885883a 	add	r2,r19,r2
   88758:	ad7fffc4 	addi	r21,r21,-1
   8875c:	14c00136 	bltu	r2,r19,88764 <__udivdi3+0x2e0>
   88760:	1480d936 	bltu	r2,r18,88ac8 <__udivdi3+0x644>
   88764:	8004943a 	slli	r2,r16,16
   88768:	0009883a 	mov	r4,zero
   8876c:	a884b03a 	or	r2,r21,r2
   88770:	003fad06 	br	88628 <__udivdi3+0x1a4>
   88774:	00804034 	movhi	r2,256
   88778:	10bfffc4 	addi	r2,r2,-1
   8877c:	11c0b636 	bltu	r2,r7,88a58 <__udivdi3+0x5d4>
   88780:	01400404 	movi	r5,16
   88784:	2805883a 	mov	r2,r5
   88788:	003f9a06 	br	885f4 <__udivdi3+0x170>
   8878c:	0005883a 	mov	r2,zero
   88790:	0009883a 	mov	r4,zero
   88794:	003fa406 	br	88628 <__udivdi3+0x1a4>
   88798:	00804034 	movhi	r2,256
   8879c:	10bfffc4 	addi	r2,r2,-1
   887a0:	14c0b336 	bltu	r2,r19,88a70 <__udivdi3+0x5ec>
   887a4:	01400404 	movi	r5,16
   887a8:	2805883a 	mov	r2,r5
   887ac:	003f5106 	br	884f4 <__udivdi3+0x70>
   887b0:	01000044 	movi	r4,1
   887b4:	000b883a 	mov	r5,zero
   887b8:	00809880 	call	80988 <__udivsi3>
   887bc:	1027883a 	mov	r19,r2
   887c0:	00bfffd4 	movui	r2,65535
   887c4:	14fff436 	bltu	r2,r19,88798 <__udivdi3+0x314>
   887c8:	003f4606 	br	884e4 <__udivdi3+0x60>
   887cc:	00804034 	movhi	r2,256
   887d0:	10bfffc4 	addi	r2,r2,-1
   887d4:	1200ac36 	bltu	r2,r8,88a88 <__udivdi3+0x604>
   887d8:	01400404 	movi	r5,16
   887dc:	2805883a 	mov	r2,r5
   887e0:	003fa806 	br	88684 <__udivdi3+0x200>
   887e4:	3d85c83a 	sub	r2,r7,r22
   887e8:	3588983a 	sll	r4,r6,r22
   887ec:	9886d83a 	srl	r3,r19,r2
   887f0:	a8a2d83a 	srl	r17,r21,r2
   887f4:	e084d83a 	srl	r2,fp,r2
   887f8:	20eeb03a 	or	r23,r4,r3
   887fc:	b824d43a 	srli	r18,r23,16
   88800:	ad86983a 	sll	r3,r21,r22
   88804:	8809883a 	mov	r4,r17
   88808:	900b883a 	mov	r5,r18
   8880c:	1886b03a 	or	r3,r3,r2
   88810:	d8c00115 	stw	r3,4(sp)
   88814:	bc3fffcc 	andi	r16,r23,65535
   88818:	00809880 	call	80988 <__udivsi3>
   8881c:	100b883a 	mov	r5,r2
   88820:	8009883a 	mov	r4,r16
   88824:	1029883a 	mov	r20,r2
   88828:	00809980 	call	80998 <__mulsi3>
   8882c:	900b883a 	mov	r5,r18
   88830:	8809883a 	mov	r4,r17
   88834:	102b883a 	mov	r21,r2
   88838:	00809900 	call	80990 <__umodsi3>
   8883c:	d9400117 	ldw	r5,4(sp)
   88840:	1004943a 	slli	r2,r2,16
   88844:	9da6983a 	sll	r19,r19,r22
   88848:	2806d43a 	srli	r3,r5,16
   8884c:	10c4b03a 	or	r2,r2,r3
   88850:	1540032e 	bgeu	r2,r21,88860 <__udivdi3+0x3dc>
   88854:	15c5883a 	add	r2,r2,r23
   88858:	a53fffc4 	addi	r20,r20,-1
   8885c:	15c0912e 	bgeu	r2,r23,88aa4 <__udivdi3+0x620>
   88860:	1563c83a 	sub	r17,r2,r21
   88864:	8809883a 	mov	r4,r17
   88868:	900b883a 	mov	r5,r18
   8886c:	00809880 	call	80988 <__udivsi3>
   88870:	100b883a 	mov	r5,r2
   88874:	8009883a 	mov	r4,r16
   88878:	102b883a 	mov	r21,r2
   8887c:	00809980 	call	80998 <__mulsi3>
   88880:	8809883a 	mov	r4,r17
   88884:	900b883a 	mov	r5,r18
   88888:	1021883a 	mov	r16,r2
   8888c:	00809900 	call	80990 <__umodsi3>
   88890:	da800117 	ldw	r10,4(sp)
   88894:	1004943a 	slli	r2,r2,16
   88898:	50ffffcc 	andi	r3,r10,65535
   8889c:	10c6b03a 	or	r3,r2,r3
   888a0:	1c00032e 	bgeu	r3,r16,888b0 <__udivdi3+0x42c>
   888a4:	1dc7883a 	add	r3,r3,r23
   888a8:	ad7fffc4 	addi	r21,r21,-1
   888ac:	1dc0792e 	bgeu	r3,r23,88a94 <__udivdi3+0x610>
   888b0:	a004943a 	slli	r2,r20,16
   888b4:	982ed43a 	srli	r23,r19,16
   888b8:	9cffffcc 	andi	r19,r19,65535
   888bc:	a8a4b03a 	or	r18,r21,r2
   888c0:	947fffcc 	andi	r17,r18,65535
   888c4:	902ad43a 	srli	r21,r18,16
   888c8:	8809883a 	mov	r4,r17
   888cc:	980b883a 	mov	r5,r19
   888d0:	1c21c83a 	sub	r16,r3,r16
   888d4:	00809980 	call	80998 <__mulsi3>
   888d8:	8809883a 	mov	r4,r17
   888dc:	b80b883a 	mov	r5,r23
   888e0:	1029883a 	mov	r20,r2
   888e4:	00809980 	call	80998 <__mulsi3>
   888e8:	980b883a 	mov	r5,r19
   888ec:	a809883a 	mov	r4,r21
   888f0:	1023883a 	mov	r17,r2
   888f4:	00809980 	call	80998 <__mulsi3>
   888f8:	a809883a 	mov	r4,r21
   888fc:	b80b883a 	mov	r5,r23
   88900:	1027883a 	mov	r19,r2
   88904:	00809980 	call	80998 <__mulsi3>
   88908:	1009883a 	mov	r4,r2
   8890c:	a004d43a 	srli	r2,r20,16
   88910:	8ce3883a 	add	r17,r17,r19
   88914:	1447883a 	add	r3,r2,r17
   88918:	1cc0022e 	bgeu	r3,r19,88924 <__udivdi3+0x4a0>
   8891c:	00800074 	movhi	r2,1
   88920:	2089883a 	add	r4,r4,r2
   88924:	1804d43a 	srli	r2,r3,16
   88928:	2085883a 	add	r2,r4,r2
   8892c:	80804436 	bltu	r16,r2,88a40 <__udivdi3+0x5bc>
   88930:	80803e26 	beq	r16,r2,88a2c <__udivdi3+0x5a8>
   88934:	9005883a 	mov	r2,r18
   88938:	0009883a 	mov	r4,zero
   8893c:	003f3a06 	br	88628 <__udivdi3+0x1a4>
   88940:	9d26983a 	sll	r19,r19,r20
   88944:	3505c83a 	sub	r2,r6,r20
   88948:	a8a2d83a 	srl	r17,r21,r2
   8894c:	982ed43a 	srli	r23,r19,16
   88950:	e084d83a 	srl	r2,fp,r2
   88954:	ad06983a 	sll	r3,r21,r20
   88958:	8809883a 	mov	r4,r17
   8895c:	b80b883a 	mov	r5,r23
   88960:	1886b03a 	or	r3,r3,r2
   88964:	d8c00015 	stw	r3,0(sp)
   88968:	9dbfffcc 	andi	r22,r19,65535
   8896c:	00809880 	call	80988 <__udivsi3>
   88970:	100b883a 	mov	r5,r2
   88974:	b009883a 	mov	r4,r22
   88978:	d8800215 	stw	r2,8(sp)
   8897c:	00809980 	call	80998 <__mulsi3>
   88980:	8809883a 	mov	r4,r17
   88984:	b80b883a 	mov	r5,r23
   88988:	102b883a 	mov	r21,r2
   8898c:	00809900 	call	80990 <__umodsi3>
   88990:	d9000017 	ldw	r4,0(sp)
   88994:	1004943a 	slli	r2,r2,16
   88998:	2006d43a 	srli	r3,r4,16
   8899c:	10c4b03a 	or	r2,r2,r3
   889a0:	1540052e 	bgeu	r2,r21,889b8 <__udivdi3+0x534>
   889a4:	d9400217 	ldw	r5,8(sp)
   889a8:	14c5883a 	add	r2,r2,r19
   889ac:	297fffc4 	addi	r5,r5,-1
   889b0:	d9400215 	stw	r5,8(sp)
   889b4:	14c0462e 	bgeu	r2,r19,88ad0 <__udivdi3+0x64c>
   889b8:	1563c83a 	sub	r17,r2,r21
   889bc:	8809883a 	mov	r4,r17
   889c0:	b80b883a 	mov	r5,r23
   889c4:	00809880 	call	80988 <__udivsi3>
   889c8:	100b883a 	mov	r5,r2
   889cc:	b009883a 	mov	r4,r22
   889d0:	1025883a 	mov	r18,r2
   889d4:	00809980 	call	80998 <__mulsi3>
   889d8:	8809883a 	mov	r4,r17
   889dc:	b80b883a 	mov	r5,r23
   889e0:	1021883a 	mov	r16,r2
   889e4:	00809900 	call	80990 <__umodsi3>
   889e8:	da800017 	ldw	r10,0(sp)
   889ec:	1004943a 	slli	r2,r2,16
   889f0:	50ffffcc 	andi	r3,r10,65535
   889f4:	10c6b03a 	or	r3,r2,r3
   889f8:	1c00062e 	bgeu	r3,r16,88a14 <__udivdi3+0x590>
   889fc:	1cc7883a 	add	r3,r3,r19
   88a00:	94bfffc4 	addi	r18,r18,-1
   88a04:	1cc00336 	bltu	r3,r19,88a14 <__udivdi3+0x590>
   88a08:	1c00022e 	bgeu	r3,r16,88a14 <__udivdi3+0x590>
   88a0c:	94bfffc4 	addi	r18,r18,-1
   88a10:	1cc7883a 	add	r3,r3,r19
   88a14:	d9000217 	ldw	r4,8(sp)
   88a18:	e538983a 	sll	fp,fp,r20
   88a1c:	1c2bc83a 	sub	r21,r3,r16
   88a20:	2004943a 	slli	r2,r4,16
   88a24:	90a8b03a 	or	r20,r18,r2
   88a28:	003ebf06 	br	88528 <__udivdi3+0xa4>
   88a2c:	1804943a 	slli	r2,r3,16
   88a30:	e588983a 	sll	r4,fp,r22
   88a34:	a0ffffcc 	andi	r3,r20,65535
   88a38:	10c5883a 	add	r2,r2,r3
   88a3c:	20bfbd2e 	bgeu	r4,r2,88934 <__udivdi3+0x4b0>
   88a40:	90bfffc4 	addi	r2,r18,-1
   88a44:	0009883a 	mov	r4,zero
   88a48:	003ef706 	br	88628 <__udivdi3+0x1a4>
   88a4c:	01400204 	movi	r5,8
   88a50:	2805883a 	mov	r2,r5
   88a54:	003ee706 	br	885f4 <__udivdi3+0x170>
   88a58:	01400604 	movi	r5,24
   88a5c:	2805883a 	mov	r2,r5
   88a60:	003ee406 	br	885f4 <__udivdi3+0x170>
   88a64:	01400204 	movi	r5,8
   88a68:	2805883a 	mov	r2,r5
   88a6c:	003ea106 	br	884f4 <__udivdi3+0x70>
   88a70:	01400604 	movi	r5,24
   88a74:	2805883a 	mov	r2,r5
   88a78:	003e9e06 	br	884f4 <__udivdi3+0x70>
   88a7c:	01400204 	movi	r5,8
   88a80:	2805883a 	mov	r2,r5
   88a84:	003eff06 	br	88684 <__udivdi3+0x200>
   88a88:	01400604 	movi	r5,24
   88a8c:	2805883a 	mov	r2,r5
   88a90:	003efc06 	br	88684 <__udivdi3+0x200>
   88a94:	1c3f862e 	bgeu	r3,r16,888b0 <__udivdi3+0x42c>
   88a98:	1dc7883a 	add	r3,r3,r23
   88a9c:	ad7fffc4 	addi	r21,r21,-1
   88aa0:	003f8306 	br	888b0 <__udivdi3+0x42c>
   88aa4:	157f6e2e 	bgeu	r2,r21,88860 <__udivdi3+0x3dc>
   88aa8:	a53fffc4 	addi	r20,r20,-1
   88aac:	15c5883a 	add	r2,r2,r23
   88ab0:	003f6b06 	br	88860 <__udivdi3+0x3dc>
   88ab4:	ad7fffc4 	addi	r21,r21,-1
   88ab8:	003ec206 	br	885c4 <__udivdi3+0x140>
   88abc:	843fffc4 	addi	r16,r16,-1
   88ac0:	14c5883a 	add	r2,r2,r19
   88ac4:	003f1306 	br	88714 <__udivdi3+0x290>
   88ac8:	ad7fffc4 	addi	r21,r21,-1
   88acc:	003f2506 	br	88764 <__udivdi3+0x2e0>
   88ad0:	157fb92e 	bgeu	r2,r21,889b8 <__udivdi3+0x534>
   88ad4:	297fffc4 	addi	r5,r5,-1
   88ad8:	14c5883a 	add	r2,r2,r19
   88adc:	d9400215 	stw	r5,8(sp)
   88ae0:	003fb506 	br	889b8 <__udivdi3+0x534>
   88ae4:	843fffc4 	addi	r16,r16,-1
   88ae8:	14c5883a 	add	r2,r2,r19
   88aec:	003ea106 	br	88574 <__udivdi3+0xf0>

00088af0 <_fpadd_parts>:
   88af0:	defff804 	addi	sp,sp,-32
   88af4:	dcc00315 	stw	r19,12(sp)
   88af8:	2027883a 	mov	r19,r4
   88afc:	21000017 	ldw	r4,0(r4)
   88b00:	00c00044 	movi	r3,1
   88b04:	dd400515 	stw	r21,20(sp)
   88b08:	dd000415 	stw	r20,16(sp)
   88b0c:	ddc00715 	stw	r23,28(sp)
   88b10:	dd800615 	stw	r22,24(sp)
   88b14:	dc800215 	stw	r18,8(sp)
   88b18:	dc400115 	stw	r17,4(sp)
   88b1c:	dc000015 	stw	r16,0(sp)
   88b20:	282b883a 	mov	r21,r5
   88b24:	3029883a 	mov	r20,r6
   88b28:	1900632e 	bgeu	r3,r4,88cb8 <_fpadd_parts+0x1c8>
   88b2c:	28800017 	ldw	r2,0(r5)
   88b30:	1880812e 	bgeu	r3,r2,88d38 <_fpadd_parts+0x248>
   88b34:	00c00104 	movi	r3,4
   88b38:	20c0dc26 	beq	r4,r3,88eac <_fpadd_parts+0x3bc>
   88b3c:	10c07e26 	beq	r2,r3,88d38 <_fpadd_parts+0x248>
   88b40:	00c00084 	movi	r3,2
   88b44:	10c06726 	beq	r2,r3,88ce4 <_fpadd_parts+0x1f4>
   88b48:	20c07b26 	beq	r4,r3,88d38 <_fpadd_parts+0x248>
   88b4c:	9dc00217 	ldw	r23,8(r19)
   88b50:	28c00217 	ldw	r3,8(r5)
   88b54:	9c400317 	ldw	r17,12(r19)
   88b58:	2bc00317 	ldw	r15,12(r5)
   88b5c:	b8cdc83a 	sub	r6,r23,r3
   88b60:	9c800417 	ldw	r18,16(r19)
   88b64:	2c000417 	ldw	r16,16(r5)
   88b68:	3009883a 	mov	r4,r6
   88b6c:	30009716 	blt	r6,zero,88dcc <_fpadd_parts+0x2dc>
   88b70:	00800fc4 	movi	r2,63
   88b74:	11806b16 	blt	r2,r6,88d24 <_fpadd_parts+0x234>
   88b78:	0100a40e 	bge	zero,r4,88e0c <_fpadd_parts+0x31c>
   88b7c:	35bff804 	addi	r22,r6,-32
   88b80:	b000bc16 	blt	r22,zero,88e74 <_fpadd_parts+0x384>
   88b84:	8596d83a 	srl	r11,r16,r22
   88b88:	0019883a 	mov	r12,zero
   88b8c:	0013883a 	mov	r9,zero
   88b90:	01000044 	movi	r4,1
   88b94:	0015883a 	mov	r10,zero
   88b98:	b000be16 	blt	r22,zero,88e94 <_fpadd_parts+0x3a4>
   88b9c:	2590983a 	sll	r8,r4,r22
   88ba0:	000f883a 	mov	r7,zero
   88ba4:	00bfffc4 	movi	r2,-1
   88ba8:	3889883a 	add	r4,r7,r2
   88bac:	408b883a 	add	r5,r8,r2
   88bb0:	21cd803a 	cmpltu	r6,r4,r7
   88bb4:	314b883a 	add	r5,r6,r5
   88bb8:	7904703a 	and	r2,r15,r4
   88bbc:	8146703a 	and	r3,r16,r5
   88bc0:	10c4b03a 	or	r2,r2,r3
   88bc4:	10000226 	beq	r2,zero,88bd0 <_fpadd_parts+0xe0>
   88bc8:	02400044 	movi	r9,1
   88bcc:	0015883a 	mov	r10,zero
   88bd0:	5a5eb03a 	or	r15,r11,r9
   88bd4:	62a0b03a 	or	r16,r12,r10
   88bd8:	99400117 	ldw	r5,4(r19)
   88bdc:	a8800117 	ldw	r2,4(r21)
   88be0:	28806e26 	beq	r5,r2,88d9c <_fpadd_parts+0x2ac>
   88be4:	28006626 	beq	r5,zero,88d80 <_fpadd_parts+0x290>
   88be8:	7c45c83a 	sub	r2,r15,r17
   88bec:	7889803a 	cmpltu	r4,r15,r2
   88bf0:	8487c83a 	sub	r3,r16,r18
   88bf4:	1909c83a 	sub	r4,r3,r4
   88bf8:	100d883a 	mov	r6,r2
   88bfc:	200f883a 	mov	r7,r4
   88c00:	38007716 	blt	r7,zero,88de0 <_fpadd_parts+0x2f0>
   88c04:	a5c00215 	stw	r23,8(r20)
   88c08:	a1c00415 	stw	r7,16(r20)
   88c0c:	a0000115 	stw	zero,4(r20)
   88c10:	a1800315 	stw	r6,12(r20)
   88c14:	a2000317 	ldw	r8,12(r20)
   88c18:	a2400417 	ldw	r9,16(r20)
   88c1c:	00bfffc4 	movi	r2,-1
   88c20:	408b883a 	add	r5,r8,r2
   88c24:	2a09803a 	cmpltu	r4,r5,r8
   88c28:	488d883a 	add	r6,r9,r2
   88c2c:	01c40034 	movhi	r7,4096
   88c30:	39ffffc4 	addi	r7,r7,-1
   88c34:	218d883a 	add	r6,r4,r6
   88c38:	39801736 	bltu	r7,r6,88c98 <_fpadd_parts+0x1a8>
   88c3c:	31c06526 	beq	r6,r7,88dd4 <_fpadd_parts+0x2e4>
   88c40:	a3000217 	ldw	r12,8(r20)
   88c44:	4209883a 	add	r4,r8,r8
   88c48:	00bfffc4 	movi	r2,-1
   88c4c:	220f803a 	cmpltu	r7,r4,r8
   88c50:	4a4b883a 	add	r5,r9,r9
   88c54:	394f883a 	add	r7,r7,r5
   88c58:	2095883a 	add	r10,r4,r2
   88c5c:	3897883a 	add	r11,r7,r2
   88c60:	510d803a 	cmpltu	r6,r10,r4
   88c64:	6099883a 	add	r12,r12,r2
   88c68:	32d7883a 	add	r11,r6,r11
   88c6c:	00840034 	movhi	r2,4096
   88c70:	10bfffc4 	addi	r2,r2,-1
   88c74:	2011883a 	mov	r8,r4
   88c78:	3813883a 	mov	r9,r7
   88c7c:	a1000315 	stw	r4,12(r20)
   88c80:	a1c00415 	stw	r7,16(r20)
   88c84:	a3000215 	stw	r12,8(r20)
   88c88:	12c00336 	bltu	r2,r11,88c98 <_fpadd_parts+0x1a8>
   88c8c:	58bfed1e 	bne	r11,r2,88c44 <_fpadd_parts+0x154>
   88c90:	00bfff84 	movi	r2,-2
   88c94:	12bfeb2e 	bgeu	r2,r10,88c44 <_fpadd_parts+0x154>
   88c98:	a2800417 	ldw	r10,16(r20)
   88c9c:	008000c4 	movi	r2,3
   88ca0:	00c80034 	movhi	r3,8192
   88ca4:	18ffffc4 	addi	r3,r3,-1
   88ca8:	a2400317 	ldw	r9,12(r20)
   88cac:	a0800015 	stw	r2,0(r20)
   88cb0:	1a802336 	bltu	r3,r10,88d40 <_fpadd_parts+0x250>
   88cb4:	a027883a 	mov	r19,r20
   88cb8:	9805883a 	mov	r2,r19
   88cbc:	ddc00717 	ldw	r23,28(sp)
   88cc0:	dd800617 	ldw	r22,24(sp)
   88cc4:	dd400517 	ldw	r21,20(sp)
   88cc8:	dd000417 	ldw	r20,16(sp)
   88ccc:	dcc00317 	ldw	r19,12(sp)
   88cd0:	dc800217 	ldw	r18,8(sp)
   88cd4:	dc400117 	ldw	r17,4(sp)
   88cd8:	dc000017 	ldw	r16,0(sp)
   88cdc:	dec00804 	addi	sp,sp,32
   88ce0:	f800283a 	ret
   88ce4:	20fff41e 	bne	r4,r3,88cb8 <_fpadd_parts+0x1c8>
   88ce8:	31000015 	stw	r4,0(r6)
   88cec:	98800117 	ldw	r2,4(r19)
   88cf0:	30800115 	stw	r2,4(r6)
   88cf4:	98c00217 	ldw	r3,8(r19)
   88cf8:	30c00215 	stw	r3,8(r6)
   88cfc:	98800317 	ldw	r2,12(r19)
   88d00:	30800315 	stw	r2,12(r6)
   88d04:	98c00417 	ldw	r3,16(r19)
   88d08:	30c00415 	stw	r3,16(r6)
   88d0c:	98800117 	ldw	r2,4(r19)
   88d10:	28c00117 	ldw	r3,4(r5)
   88d14:	3027883a 	mov	r19,r6
   88d18:	10c4703a 	and	r2,r2,r3
   88d1c:	30800115 	stw	r2,4(r6)
   88d20:	003fe506 	br	88cb8 <_fpadd_parts+0x1c8>
   88d24:	1dc02616 	blt	r3,r23,88dc0 <_fpadd_parts+0x2d0>
   88d28:	0023883a 	mov	r17,zero
   88d2c:	182f883a 	mov	r23,r3
   88d30:	0025883a 	mov	r18,zero
   88d34:	003fa806 	br	88bd8 <_fpadd_parts+0xe8>
   88d38:	a827883a 	mov	r19,r21
   88d3c:	003fde06 	br	88cb8 <_fpadd_parts+0x1c8>
   88d40:	01800044 	movi	r6,1
   88d44:	500497fa 	slli	r2,r10,31
   88d48:	4808d07a 	srli	r4,r9,1
   88d4c:	518ad83a 	srl	r5,r10,r6
   88d50:	a2000217 	ldw	r8,8(r20)
   88d54:	1108b03a 	or	r4,r2,r4
   88d58:	0007883a 	mov	r3,zero
   88d5c:	4984703a 	and	r2,r9,r6
   88d60:	208cb03a 	or	r6,r4,r2
   88d64:	28ceb03a 	or	r7,r5,r3
   88d68:	42000044 	addi	r8,r8,1
   88d6c:	a027883a 	mov	r19,r20
   88d70:	a1c00415 	stw	r7,16(r20)
   88d74:	a2000215 	stw	r8,8(r20)
   88d78:	a1800315 	stw	r6,12(r20)
   88d7c:	003fce06 	br	88cb8 <_fpadd_parts+0x1c8>
   88d80:	8bc5c83a 	sub	r2,r17,r15
   88d84:	8889803a 	cmpltu	r4,r17,r2
   88d88:	9407c83a 	sub	r3,r18,r16
   88d8c:	1909c83a 	sub	r4,r3,r4
   88d90:	100d883a 	mov	r6,r2
   88d94:	200f883a 	mov	r7,r4
   88d98:	003f9906 	br	88c00 <_fpadd_parts+0x110>
   88d9c:	7c45883a 	add	r2,r15,r17
   88da0:	13c9803a 	cmpltu	r4,r2,r15
   88da4:	8487883a 	add	r3,r16,r18
   88da8:	20c9883a 	add	r4,r4,r3
   88dac:	a1400115 	stw	r5,4(r20)
   88db0:	a5c00215 	stw	r23,8(r20)
   88db4:	a0800315 	stw	r2,12(r20)
   88db8:	a1000415 	stw	r4,16(r20)
   88dbc:	003fb606 	br	88c98 <_fpadd_parts+0x1a8>
   88dc0:	001f883a 	mov	r15,zero
   88dc4:	0021883a 	mov	r16,zero
   88dc8:	003f8306 	br	88bd8 <_fpadd_parts+0xe8>
   88dcc:	018dc83a 	sub	r6,zero,r6
   88dd0:	003f6706 	br	88b70 <_fpadd_parts+0x80>
   88dd4:	00bfff84 	movi	r2,-2
   88dd8:	117faf36 	bltu	r2,r5,88c98 <_fpadd_parts+0x1a8>
   88ddc:	003f9806 	br	88c40 <_fpadd_parts+0x150>
   88de0:	0005883a 	mov	r2,zero
   88de4:	1189c83a 	sub	r4,r2,r6
   88de8:	1105803a 	cmpltu	r2,r2,r4
   88dec:	01cbc83a 	sub	r5,zero,r7
   88df0:	2885c83a 	sub	r2,r5,r2
   88df4:	01800044 	movi	r6,1
   88df8:	a1800115 	stw	r6,4(r20)
   88dfc:	a5c00215 	stw	r23,8(r20)
   88e00:	a1000315 	stw	r4,12(r20)
   88e04:	a0800415 	stw	r2,16(r20)
   88e08:	003f8206 	br	88c14 <_fpadd_parts+0x124>
   88e0c:	203f7226 	beq	r4,zero,88bd8 <_fpadd_parts+0xe8>
   88e10:	35bff804 	addi	r22,r6,-32
   88e14:	b9af883a 	add	r23,r23,r6
   88e18:	b0003116 	blt	r22,zero,88ee0 <_fpadd_parts+0x3f0>
   88e1c:	959ad83a 	srl	r13,r18,r22
   88e20:	001d883a 	mov	r14,zero
   88e24:	000f883a 	mov	r7,zero
   88e28:	01000044 	movi	r4,1
   88e2c:	0011883a 	mov	r8,zero
   88e30:	b0002516 	blt	r22,zero,88ec8 <_fpadd_parts+0x3d8>
   88e34:	2594983a 	sll	r10,r4,r22
   88e38:	0013883a 	mov	r9,zero
   88e3c:	00bfffc4 	movi	r2,-1
   88e40:	4889883a 	add	r4,r9,r2
   88e44:	508b883a 	add	r5,r10,r2
   88e48:	224d803a 	cmpltu	r6,r4,r9
   88e4c:	314b883a 	add	r5,r6,r5
   88e50:	8904703a 	and	r2,r17,r4
   88e54:	9146703a 	and	r3,r18,r5
   88e58:	10c4b03a 	or	r2,r2,r3
   88e5c:	10000226 	beq	r2,zero,88e68 <_fpadd_parts+0x378>
   88e60:	01c00044 	movi	r7,1
   88e64:	0011883a 	mov	r8,zero
   88e68:	69e2b03a 	or	r17,r13,r7
   88e6c:	7224b03a 	or	r18,r14,r8
   88e70:	003f5906 	br	88bd8 <_fpadd_parts+0xe8>
   88e74:	8407883a 	add	r3,r16,r16
   88e78:	008007c4 	movi	r2,31
   88e7c:	1185c83a 	sub	r2,r2,r6
   88e80:	1886983a 	sll	r3,r3,r2
   88e84:	7996d83a 	srl	r11,r15,r6
   88e88:	8198d83a 	srl	r12,r16,r6
   88e8c:	1ad6b03a 	or	r11,r3,r11
   88e90:	003f3e06 	br	88b8c <_fpadd_parts+0x9c>
   88e94:	2006d07a 	srli	r3,r4,1
   88e98:	008007c4 	movi	r2,31
   88e9c:	1185c83a 	sub	r2,r2,r6
   88ea0:	1890d83a 	srl	r8,r3,r2
   88ea4:	218e983a 	sll	r7,r4,r6
   88ea8:	003f3e06 	br	88ba4 <_fpadd_parts+0xb4>
   88eac:	113f821e 	bne	r2,r4,88cb8 <_fpadd_parts+0x1c8>
   88eb0:	28c00117 	ldw	r3,4(r5)
   88eb4:	98800117 	ldw	r2,4(r19)
   88eb8:	10ff7f26 	beq	r2,r3,88cb8 <_fpadd_parts+0x1c8>
   88ebc:	04c00274 	movhi	r19,9
   88ec0:	9ce8b604 	addi	r19,r19,-23848
   88ec4:	003f7c06 	br	88cb8 <_fpadd_parts+0x1c8>
   88ec8:	2006d07a 	srli	r3,r4,1
   88ecc:	008007c4 	movi	r2,31
   88ed0:	1185c83a 	sub	r2,r2,r6
   88ed4:	1894d83a 	srl	r10,r3,r2
   88ed8:	2192983a 	sll	r9,r4,r6
   88edc:	003fd706 	br	88e3c <_fpadd_parts+0x34c>
   88ee0:	9487883a 	add	r3,r18,r18
   88ee4:	008007c4 	movi	r2,31
   88ee8:	1185c83a 	sub	r2,r2,r6
   88eec:	1886983a 	sll	r3,r3,r2
   88ef0:	899ad83a 	srl	r13,r17,r6
   88ef4:	919cd83a 	srl	r14,r18,r6
   88ef8:	1b5ab03a 	or	r13,r3,r13
   88efc:	003fc906 	br	88e24 <_fpadd_parts+0x334>

00088f00 <__subdf3>:
   88f00:	deffea04 	addi	sp,sp,-88
   88f04:	dcc01415 	stw	r19,80(sp)
   88f08:	dcc00404 	addi	r19,sp,16
   88f0c:	2011883a 	mov	r8,r4
   88f10:	2813883a 	mov	r9,r5
   88f14:	dc401315 	stw	r17,76(sp)
   88f18:	d809883a 	mov	r4,sp
   88f1c:	980b883a 	mov	r5,r19
   88f20:	dc400904 	addi	r17,sp,36
   88f24:	dfc01515 	stw	ra,84(sp)
   88f28:	da400115 	stw	r9,4(sp)
   88f2c:	d9c00315 	stw	r7,12(sp)
   88f30:	da000015 	stw	r8,0(sp)
   88f34:	d9800215 	stw	r6,8(sp)
   88f38:	0089d900 	call	89d90 <__unpack_d>
   88f3c:	d9000204 	addi	r4,sp,8
   88f40:	880b883a 	mov	r5,r17
   88f44:	0089d900 	call	89d90 <__unpack_d>
   88f48:	d8800a17 	ldw	r2,40(sp)
   88f4c:	880b883a 	mov	r5,r17
   88f50:	9809883a 	mov	r4,r19
   88f54:	d9800e04 	addi	r6,sp,56
   88f58:	1080005c 	xori	r2,r2,1
   88f5c:	d8800a15 	stw	r2,40(sp)
   88f60:	0088af00 	call	88af0 <_fpadd_parts>
   88f64:	1009883a 	mov	r4,r2
   88f68:	0089a7c0 	call	89a7c <__pack_d>
   88f6c:	dfc01517 	ldw	ra,84(sp)
   88f70:	dcc01417 	ldw	r19,80(sp)
   88f74:	dc401317 	ldw	r17,76(sp)
   88f78:	dec01604 	addi	sp,sp,88
   88f7c:	f800283a 	ret

00088f80 <__adddf3>:
   88f80:	deffea04 	addi	sp,sp,-88
   88f84:	dcc01415 	stw	r19,80(sp)
   88f88:	dcc00404 	addi	r19,sp,16
   88f8c:	2011883a 	mov	r8,r4
   88f90:	2813883a 	mov	r9,r5
   88f94:	dc401315 	stw	r17,76(sp)
   88f98:	d809883a 	mov	r4,sp
   88f9c:	980b883a 	mov	r5,r19
   88fa0:	dc400904 	addi	r17,sp,36
   88fa4:	dfc01515 	stw	ra,84(sp)
   88fa8:	da400115 	stw	r9,4(sp)
   88fac:	d9c00315 	stw	r7,12(sp)
   88fb0:	da000015 	stw	r8,0(sp)
   88fb4:	d9800215 	stw	r6,8(sp)
   88fb8:	0089d900 	call	89d90 <__unpack_d>
   88fbc:	d9000204 	addi	r4,sp,8
   88fc0:	880b883a 	mov	r5,r17
   88fc4:	0089d900 	call	89d90 <__unpack_d>
   88fc8:	d9800e04 	addi	r6,sp,56
   88fcc:	9809883a 	mov	r4,r19
   88fd0:	880b883a 	mov	r5,r17
   88fd4:	0088af00 	call	88af0 <_fpadd_parts>
   88fd8:	1009883a 	mov	r4,r2
   88fdc:	0089a7c0 	call	89a7c <__pack_d>
   88fe0:	dfc01517 	ldw	ra,84(sp)
   88fe4:	dcc01417 	ldw	r19,80(sp)
   88fe8:	dc401317 	ldw	r17,76(sp)
   88fec:	dec01604 	addi	sp,sp,88
   88ff0:	f800283a 	ret

00088ff4 <__muldf3>:
   88ff4:	deffe004 	addi	sp,sp,-128
   88ff8:	dc401815 	stw	r17,96(sp)
   88ffc:	dc400404 	addi	r17,sp,16
   89000:	2011883a 	mov	r8,r4
   89004:	2813883a 	mov	r9,r5
   89008:	dc001715 	stw	r16,92(sp)
   8900c:	d809883a 	mov	r4,sp
   89010:	880b883a 	mov	r5,r17
   89014:	dc000904 	addi	r16,sp,36
   89018:	dfc01f15 	stw	ra,124(sp)
   8901c:	da400115 	stw	r9,4(sp)
   89020:	d9c00315 	stw	r7,12(sp)
   89024:	da000015 	stw	r8,0(sp)
   89028:	d9800215 	stw	r6,8(sp)
   8902c:	ddc01e15 	stw	r23,120(sp)
   89030:	dd801d15 	stw	r22,116(sp)
   89034:	dd401c15 	stw	r21,112(sp)
   89038:	dd001b15 	stw	r20,108(sp)
   8903c:	dcc01a15 	stw	r19,104(sp)
   89040:	dc801915 	stw	r18,100(sp)
   89044:	0089d900 	call	89d90 <__unpack_d>
   89048:	d9000204 	addi	r4,sp,8
   8904c:	800b883a 	mov	r5,r16
   89050:	0089d900 	call	89d90 <__unpack_d>
   89054:	d9000417 	ldw	r4,16(sp)
   89058:	00800044 	movi	r2,1
   8905c:	1100102e 	bgeu	r2,r4,890a0 <__muldf3+0xac>
   89060:	d8c00917 	ldw	r3,36(sp)
   89064:	10c0062e 	bgeu	r2,r3,89080 <__muldf3+0x8c>
   89068:	00800104 	movi	r2,4
   8906c:	20800a26 	beq	r4,r2,89098 <__muldf3+0xa4>
   89070:	1880cc26 	beq	r3,r2,893a4 <__muldf3+0x3b0>
   89074:	00800084 	movi	r2,2
   89078:	20800926 	beq	r4,r2,890a0 <__muldf3+0xac>
   8907c:	1880191e 	bne	r3,r2,890e4 <__muldf3+0xf0>
   89080:	d8c00a17 	ldw	r3,40(sp)
   89084:	d8800517 	ldw	r2,20(sp)
   89088:	8009883a 	mov	r4,r16
   8908c:	10c4c03a 	cmpne	r2,r2,r3
   89090:	d8800a15 	stw	r2,40(sp)
   89094:	00000706 	br	890b4 <__muldf3+0xc0>
   89098:	00800084 	movi	r2,2
   8909c:	1880c326 	beq	r3,r2,893ac <__muldf3+0x3b8>
   890a0:	d8800517 	ldw	r2,20(sp)
   890a4:	d8c00a17 	ldw	r3,40(sp)
   890a8:	8809883a 	mov	r4,r17
   890ac:	10c4c03a 	cmpne	r2,r2,r3
   890b0:	d8800515 	stw	r2,20(sp)
   890b4:	0089a7c0 	call	89a7c <__pack_d>
   890b8:	dfc01f17 	ldw	ra,124(sp)
   890bc:	ddc01e17 	ldw	r23,120(sp)
   890c0:	dd801d17 	ldw	r22,116(sp)
   890c4:	dd401c17 	ldw	r21,112(sp)
   890c8:	dd001b17 	ldw	r20,108(sp)
   890cc:	dcc01a17 	ldw	r19,104(sp)
   890d0:	dc801917 	ldw	r18,100(sp)
   890d4:	dc401817 	ldw	r17,96(sp)
   890d8:	dc001717 	ldw	r16,92(sp)
   890dc:	dec02004 	addi	sp,sp,128
   890e0:	f800283a 	ret
   890e4:	dd800717 	ldw	r22,28(sp)
   890e8:	dc800c17 	ldw	r18,48(sp)
   890ec:	002b883a 	mov	r21,zero
   890f0:	0023883a 	mov	r17,zero
   890f4:	a80b883a 	mov	r5,r21
   890f8:	b00d883a 	mov	r6,r22
   890fc:	880f883a 	mov	r7,r17
   89100:	ddc00817 	ldw	r23,32(sp)
   89104:	dcc00d17 	ldw	r19,52(sp)
   89108:	9009883a 	mov	r4,r18
   8910c:	00882bc0 	call	882bc <__muldi3>
   89110:	001b883a 	mov	r13,zero
   89114:	680f883a 	mov	r7,r13
   89118:	b009883a 	mov	r4,r22
   8911c:	000b883a 	mov	r5,zero
   89120:	980d883a 	mov	r6,r19
   89124:	b82d883a 	mov	r22,r23
   89128:	002f883a 	mov	r23,zero
   8912c:	db401615 	stw	r13,88(sp)
   89130:	d8801315 	stw	r2,76(sp)
   89134:	d8c01415 	stw	r3,80(sp)
   89138:	dcc01515 	stw	r19,84(sp)
   8913c:	00882bc0 	call	882bc <__muldi3>
   89140:	b00d883a 	mov	r6,r22
   89144:	000b883a 	mov	r5,zero
   89148:	9009883a 	mov	r4,r18
   8914c:	b80f883a 	mov	r7,r23
   89150:	1021883a 	mov	r16,r2
   89154:	1823883a 	mov	r17,r3
   89158:	00882bc0 	call	882bc <__muldi3>
   8915c:	8085883a 	add	r2,r16,r2
   89160:	140d803a 	cmpltu	r6,r2,r16
   89164:	88c7883a 	add	r3,r17,r3
   89168:	30cd883a 	add	r6,r6,r3
   8916c:	1029883a 	mov	r20,r2
   89170:	302b883a 	mov	r21,r6
   89174:	da801317 	ldw	r10,76(sp)
   89178:	dac01417 	ldw	r11,80(sp)
   8917c:	db001517 	ldw	r12,84(sp)
   89180:	db401617 	ldw	r13,88(sp)
   89184:	3440612e 	bgeu	r6,r17,8930c <__muldf3+0x318>
   89188:	0009883a 	mov	r4,zero
   8918c:	5105883a 	add	r2,r10,r4
   89190:	128d803a 	cmpltu	r6,r2,r10
   89194:	5d07883a 	add	r3,r11,r20
   89198:	30cd883a 	add	r6,r6,r3
   8919c:	0021883a 	mov	r16,zero
   891a0:	04400044 	movi	r17,1
   891a4:	1025883a 	mov	r18,r2
   891a8:	3027883a 	mov	r19,r6
   891ac:	32c06236 	bltu	r6,r11,89338 <__muldf3+0x344>
   891b0:	59807a26 	beq	r11,r6,8939c <__muldf3+0x3a8>
   891b4:	680b883a 	mov	r5,r13
   891b8:	b80f883a 	mov	r7,r23
   891bc:	6009883a 	mov	r4,r12
   891c0:	b00d883a 	mov	r6,r22
   891c4:	00882bc0 	call	882bc <__muldi3>
   891c8:	1009883a 	mov	r4,r2
   891cc:	000f883a 	mov	r7,zero
   891d0:	1545883a 	add	r2,r2,r21
   891d4:	1111803a 	cmpltu	r8,r2,r4
   891d8:	19c7883a 	add	r3,r3,r7
   891dc:	40c7883a 	add	r3,r8,r3
   891e0:	88cb883a 	add	r5,r17,r3
   891e4:	d8c00617 	ldw	r3,24(sp)
   891e8:	8089883a 	add	r4,r16,r2
   891ec:	d8800b17 	ldw	r2,44(sp)
   891f0:	18c00104 	addi	r3,r3,4
   891f4:	240d803a 	cmpltu	r6,r4,r16
   891f8:	10c7883a 	add	r3,r2,r3
   891fc:	2013883a 	mov	r9,r4
   89200:	d8800a17 	ldw	r2,40(sp)
   89204:	d9000517 	ldw	r4,20(sp)
   89208:	314d883a 	add	r6,r6,r5
   8920c:	3015883a 	mov	r10,r6
   89210:	2088c03a 	cmpne	r4,r4,r2
   89214:	00880034 	movhi	r2,8192
   89218:	10bfffc4 	addi	r2,r2,-1
   8921c:	d9000f15 	stw	r4,60(sp)
   89220:	d8c01015 	stw	r3,64(sp)
   89224:	1180162e 	bgeu	r2,r6,89280 <__muldf3+0x28c>
   89228:	1811883a 	mov	r8,r3
   8922c:	101f883a 	mov	r15,r2
   89230:	980497fa 	slli	r2,r19,31
   89234:	9016d07a 	srli	r11,r18,1
   89238:	500697fa 	slli	r3,r10,31
   8923c:	480cd07a 	srli	r6,r9,1
   89240:	500ed07a 	srli	r7,r10,1
   89244:	12d6b03a 	or	r11,r2,r11
   89248:	00800044 	movi	r2,1
   8924c:	198cb03a 	or	r6,r3,r6
   89250:	4888703a 	and	r4,r9,r2
   89254:	9818d07a 	srli	r12,r19,1
   89258:	001b883a 	mov	r13,zero
   8925c:	03a00034 	movhi	r14,32768
   89260:	3013883a 	mov	r9,r6
   89264:	3815883a 	mov	r10,r7
   89268:	4091883a 	add	r8,r8,r2
   8926c:	20000226 	beq	r4,zero,89278 <__muldf3+0x284>
   89270:	5b64b03a 	or	r18,r11,r13
   89274:	63a6b03a 	or	r19,r12,r14
   89278:	7abfed36 	bltu	r15,r10,89230 <__muldf3+0x23c>
   8927c:	da001015 	stw	r8,64(sp)
   89280:	00840034 	movhi	r2,4096
   89284:	10bfffc4 	addi	r2,r2,-1
   89288:	12801436 	bltu	r2,r10,892dc <__muldf3+0x2e8>
   8928c:	da001017 	ldw	r8,64(sp)
   89290:	101f883a 	mov	r15,r2
   89294:	4a45883a 	add	r2,r9,r9
   89298:	124d803a 	cmpltu	r6,r2,r9
   8929c:	5287883a 	add	r3,r10,r10
   892a0:	9497883a 	add	r11,r18,r18
   892a4:	5c8f803a 	cmpltu	r7,r11,r18
   892a8:	9cd9883a 	add	r12,r19,r19
   892ac:	01000044 	movi	r4,1
   892b0:	30cd883a 	add	r6,r6,r3
   892b4:	3b0f883a 	add	r7,r7,r12
   892b8:	423fffc4 	addi	r8,r8,-1
   892bc:	1013883a 	mov	r9,r2
   892c0:	3015883a 	mov	r10,r6
   892c4:	111ab03a 	or	r13,r2,r4
   892c8:	98003016 	blt	r19,zero,8938c <__muldf3+0x398>
   892cc:	5825883a 	mov	r18,r11
   892d0:	3827883a 	mov	r19,r7
   892d4:	7abfef2e 	bgeu	r15,r10,89294 <__muldf3+0x2a0>
   892d8:	da001015 	stw	r8,64(sp)
   892dc:	00803fc4 	movi	r2,255
   892e0:	488e703a 	and	r7,r9,r2
   892e4:	00802004 	movi	r2,128
   892e8:	0007883a 	mov	r3,zero
   892ec:	0011883a 	mov	r8,zero
   892f0:	38801826 	beq	r7,r2,89354 <__muldf3+0x360>
   892f4:	008000c4 	movi	r2,3
   892f8:	d9000e04 	addi	r4,sp,56
   892fc:	da801215 	stw	r10,72(sp)
   89300:	d8800e15 	stw	r2,56(sp)
   89304:	da401115 	stw	r9,68(sp)
   89308:	003f6a06 	br	890b4 <__muldf3+0xc0>
   8930c:	89802126 	beq	r17,r6,89394 <__muldf3+0x3a0>
   89310:	0009883a 	mov	r4,zero
   89314:	5105883a 	add	r2,r10,r4
   89318:	128d803a 	cmpltu	r6,r2,r10
   8931c:	5d07883a 	add	r3,r11,r20
   89320:	30cd883a 	add	r6,r6,r3
   89324:	0021883a 	mov	r16,zero
   89328:	0023883a 	mov	r17,zero
   8932c:	1025883a 	mov	r18,r2
   89330:	3027883a 	mov	r19,r6
   89334:	32ff9e2e 	bgeu	r6,r11,891b0 <__muldf3+0x1bc>
   89338:	00800044 	movi	r2,1
   8933c:	8089883a 	add	r4,r16,r2
   89340:	240d803a 	cmpltu	r6,r4,r16
   89344:	344d883a 	add	r6,r6,r17
   89348:	2021883a 	mov	r16,r4
   8934c:	3023883a 	mov	r17,r6
   89350:	003f9806 	br	891b4 <__muldf3+0x1c0>
   89354:	403fe71e 	bne	r8,zero,892f4 <__muldf3+0x300>
   89358:	01004004 	movi	r4,256
   8935c:	4904703a 	and	r2,r9,r4
   89360:	10c4b03a 	or	r2,r2,r3
   89364:	103fe31e 	bne	r2,zero,892f4 <__muldf3+0x300>
   89368:	94c4b03a 	or	r2,r18,r19
   8936c:	103fe126 	beq	r2,zero,892f4 <__muldf3+0x300>
   89370:	49c5883a 	add	r2,r9,r7
   89374:	1251803a 	cmpltu	r8,r2,r9
   89378:	4291883a 	add	r8,r8,r10
   8937c:	013fc004 	movi	r4,-256
   89380:	1112703a 	and	r9,r2,r4
   89384:	4015883a 	mov	r10,r8
   89388:	003fda06 	br	892f4 <__muldf3+0x300>
   8938c:	6813883a 	mov	r9,r13
   89390:	003fce06 	br	892cc <__muldf3+0x2d8>
   89394:	143f7c36 	bltu	r2,r16,89188 <__muldf3+0x194>
   89398:	003fdd06 	br	89310 <__muldf3+0x31c>
   8939c:	12bf852e 	bgeu	r2,r10,891b4 <__muldf3+0x1c0>
   893a0:	003fe506 	br	89338 <__muldf3+0x344>
   893a4:	00800084 	movi	r2,2
   893a8:	20bf351e 	bne	r4,r2,89080 <__muldf3+0x8c>
   893ac:	01000274 	movhi	r4,9
   893b0:	2128b604 	addi	r4,r4,-23848
   893b4:	003f3f06 	br	890b4 <__muldf3+0xc0>

000893b8 <__divdf3>:
   893b8:	deffed04 	addi	sp,sp,-76
   893bc:	dcc01115 	stw	r19,68(sp)
   893c0:	dcc00404 	addi	r19,sp,16
   893c4:	2011883a 	mov	r8,r4
   893c8:	2813883a 	mov	r9,r5
   893cc:	dc000e15 	stw	r16,56(sp)
   893d0:	d809883a 	mov	r4,sp
   893d4:	980b883a 	mov	r5,r19
   893d8:	dc000904 	addi	r16,sp,36
   893dc:	dfc01215 	stw	ra,72(sp)
   893e0:	da400115 	stw	r9,4(sp)
   893e4:	d9c00315 	stw	r7,12(sp)
   893e8:	da000015 	stw	r8,0(sp)
   893ec:	d9800215 	stw	r6,8(sp)
   893f0:	dc801015 	stw	r18,64(sp)
   893f4:	dc400f15 	stw	r17,60(sp)
   893f8:	0089d900 	call	89d90 <__unpack_d>
   893fc:	d9000204 	addi	r4,sp,8
   89400:	800b883a 	mov	r5,r16
   89404:	0089d900 	call	89d90 <__unpack_d>
   89408:	d9000417 	ldw	r4,16(sp)
   8940c:	00800044 	movi	r2,1
   89410:	11000b2e 	bgeu	r2,r4,89440 <__divdf3+0x88>
   89414:	d9400917 	ldw	r5,36(sp)
   89418:	1140762e 	bgeu	r2,r5,895f4 <__divdf3+0x23c>
   8941c:	d8800517 	ldw	r2,20(sp)
   89420:	d8c00a17 	ldw	r3,40(sp)
   89424:	01800104 	movi	r6,4
   89428:	10c4f03a 	xor	r2,r2,r3
   8942c:	d8800515 	stw	r2,20(sp)
   89430:	21800226 	beq	r4,r6,8943c <__divdf3+0x84>
   89434:	00800084 	movi	r2,2
   89438:	2080141e 	bne	r4,r2,8948c <__divdf3+0xd4>
   8943c:	29000926 	beq	r5,r4,89464 <__divdf3+0xac>
   89440:	9809883a 	mov	r4,r19
   89444:	0089a7c0 	call	89a7c <__pack_d>
   89448:	dfc01217 	ldw	ra,72(sp)
   8944c:	dcc01117 	ldw	r19,68(sp)
   89450:	dc801017 	ldw	r18,64(sp)
   89454:	dc400f17 	ldw	r17,60(sp)
   89458:	dc000e17 	ldw	r16,56(sp)
   8945c:	dec01304 	addi	sp,sp,76
   89460:	f800283a 	ret
   89464:	01000274 	movhi	r4,9
   89468:	2128b604 	addi	r4,r4,-23848
   8946c:	0089a7c0 	call	89a7c <__pack_d>
   89470:	dfc01217 	ldw	ra,72(sp)
   89474:	dcc01117 	ldw	r19,68(sp)
   89478:	dc801017 	ldw	r18,64(sp)
   8947c:	dc400f17 	ldw	r17,60(sp)
   89480:	dc000e17 	ldw	r16,56(sp)
   89484:	dec01304 	addi	sp,sp,76
   89488:	f800283a 	ret
   8948c:	29805b26 	beq	r5,r6,895fc <__divdf3+0x244>
   89490:	28802d26 	beq	r5,r2,89548 <__divdf3+0x190>
   89494:	d8c00617 	ldw	r3,24(sp)
   89498:	d8800b17 	ldw	r2,44(sp)
   8949c:	d9c00817 	ldw	r7,32(sp)
   894a0:	dc400d17 	ldw	r17,52(sp)
   894a4:	188bc83a 	sub	r5,r3,r2
   894a8:	d9800717 	ldw	r6,28(sp)
   894ac:	dc000c17 	ldw	r16,48(sp)
   894b0:	d9400615 	stw	r5,24(sp)
   894b4:	3c403836 	bltu	r7,r17,89598 <__divdf3+0x1e0>
   894b8:	89c03626 	beq	r17,r7,89594 <__divdf3+0x1dc>
   894bc:	0015883a 	mov	r10,zero
   894c0:	001d883a 	mov	r14,zero
   894c4:	02c40034 	movhi	r11,4096
   894c8:	001f883a 	mov	r15,zero
   894cc:	003f883a 	mov	ra,zero
   894d0:	04800f44 	movi	r18,61
   894d4:	00000f06 	br	89514 <__divdf3+0x15c>
   894d8:	601d883a 	mov	r14,r12
   894dc:	681f883a 	mov	r15,r13
   894e0:	400d883a 	mov	r6,r8
   894e4:	100f883a 	mov	r7,r2
   894e8:	3191883a 	add	r8,r6,r6
   894ec:	5808d07a 	srli	r4,r11,1
   894f0:	4185803a 	cmpltu	r2,r8,r6
   894f4:	39d3883a 	add	r9,r7,r7
   894f8:	28c6b03a 	or	r3,r5,r3
   894fc:	1245883a 	add	r2,r2,r9
   89500:	1815883a 	mov	r10,r3
   89504:	2017883a 	mov	r11,r4
   89508:	400d883a 	mov	r6,r8
   8950c:	100f883a 	mov	r7,r2
   89510:	fc801726 	beq	ra,r18,89570 <__divdf3+0x1b8>
   89514:	580a97fa 	slli	r5,r11,31
   89518:	5006d07a 	srli	r3,r10,1
   8951c:	ffc00044 	addi	ra,ra,1
   89520:	3c7ff136 	bltu	r7,r17,894e8 <__divdf3+0x130>
   89524:	3411c83a 	sub	r8,r6,r16
   89528:	3205803a 	cmpltu	r2,r6,r8
   8952c:	3c53c83a 	sub	r9,r7,r17
   89530:	7298b03a 	or	r12,r14,r10
   89534:	7adab03a 	or	r13,r15,r11
   89538:	4885c83a 	sub	r2,r9,r2
   8953c:	89ffe61e 	bne	r17,r7,894d8 <__divdf3+0x120>
   89540:	343fe936 	bltu	r6,r16,894e8 <__divdf3+0x130>
   89544:	003fe406 	br	894d8 <__divdf3+0x120>
   89548:	9809883a 	mov	r4,r19
   8954c:	d9800415 	stw	r6,16(sp)
   89550:	0089a7c0 	call	89a7c <__pack_d>
   89554:	dfc01217 	ldw	ra,72(sp)
   89558:	dcc01117 	ldw	r19,68(sp)
   8955c:	dc801017 	ldw	r18,64(sp)
   89560:	dc400f17 	ldw	r17,60(sp)
   89564:	dc000e17 	ldw	r16,56(sp)
   89568:	dec01304 	addi	sp,sp,76
   8956c:	f800283a 	ret
   89570:	00803fc4 	movi	r2,255
   89574:	7090703a 	and	r8,r14,r2
   89578:	00802004 	movi	r2,128
   8957c:	0007883a 	mov	r3,zero
   89580:	0013883a 	mov	r9,zero
   89584:	40800d26 	beq	r8,r2,895bc <__divdf3+0x204>
   89588:	dbc00815 	stw	r15,32(sp)
   8958c:	db800715 	stw	r14,28(sp)
   89590:	003fab06 	br	89440 <__divdf3+0x88>
   89594:	343fc92e 	bgeu	r6,r16,894bc <__divdf3+0x104>
   89598:	3185883a 	add	r2,r6,r6
   8959c:	1189803a 	cmpltu	r4,r2,r6
   895a0:	39c7883a 	add	r3,r7,r7
   895a4:	20c9883a 	add	r4,r4,r3
   895a8:	297fffc4 	addi	r5,r5,-1
   895ac:	100d883a 	mov	r6,r2
   895b0:	200f883a 	mov	r7,r4
   895b4:	d9400615 	stw	r5,24(sp)
   895b8:	003fc006 	br	894bc <__divdf3+0x104>
   895bc:	483ff21e 	bne	r9,zero,89588 <__divdf3+0x1d0>
   895c0:	01004004 	movi	r4,256
   895c4:	7104703a 	and	r2,r14,r4
   895c8:	10c4b03a 	or	r2,r2,r3
   895cc:	103fee1e 	bne	r2,zero,89588 <__divdf3+0x1d0>
   895d0:	31c4b03a 	or	r2,r6,r7
   895d4:	103fec26 	beq	r2,zero,89588 <__divdf3+0x1d0>
   895d8:	7205883a 	add	r2,r14,r8
   895dc:	1391803a 	cmpltu	r8,r2,r14
   895e0:	43d1883a 	add	r8,r8,r15
   895e4:	013fc004 	movi	r4,-256
   895e8:	111c703a 	and	r14,r2,r4
   895ec:	401f883a 	mov	r15,r8
   895f0:	003fe506 	br	89588 <__divdf3+0x1d0>
   895f4:	8009883a 	mov	r4,r16
   895f8:	003f9206 	br	89444 <__divdf3+0x8c>
   895fc:	9809883a 	mov	r4,r19
   89600:	d8000715 	stw	zero,28(sp)
   89604:	d8000815 	stw	zero,32(sp)
   89608:	d8000615 	stw	zero,24(sp)
   8960c:	003f8d06 	br	89444 <__divdf3+0x8c>

00089610 <__gedf2>:
   89610:	deffef04 	addi	sp,sp,-68
   89614:	dc400f15 	stw	r17,60(sp)
   89618:	dc400404 	addi	r17,sp,16
   8961c:	2005883a 	mov	r2,r4
   89620:	2807883a 	mov	r3,r5
   89624:	dc000e15 	stw	r16,56(sp)
   89628:	d809883a 	mov	r4,sp
   8962c:	880b883a 	mov	r5,r17
   89630:	dc000904 	addi	r16,sp,36
   89634:	d8c00115 	stw	r3,4(sp)
   89638:	d8800015 	stw	r2,0(sp)
   8963c:	d9800215 	stw	r6,8(sp)
   89640:	dfc01015 	stw	ra,64(sp)
   89644:	d9c00315 	stw	r7,12(sp)
   89648:	0089d900 	call	89d90 <__unpack_d>
   8964c:	d9000204 	addi	r4,sp,8
   89650:	800b883a 	mov	r5,r16
   89654:	0089d900 	call	89d90 <__unpack_d>
   89658:	d8800417 	ldw	r2,16(sp)
   8965c:	00c00044 	movi	r3,1
   89660:	01bfffc4 	movi	r6,-1
   89664:	1880062e 	bgeu	r3,r2,89680 <__gedf2+0x70>
   89668:	d8800917 	ldw	r2,36(sp)
   8966c:	8809883a 	mov	r4,r17
   89670:	800b883a 	mov	r5,r16
   89674:	1880022e 	bgeu	r3,r2,89680 <__gedf2+0x70>
   89678:	0089ec80 	call	89ec8 <__fpcmp_parts_d>
   8967c:	100d883a 	mov	r6,r2
   89680:	3005883a 	mov	r2,r6
   89684:	dfc01017 	ldw	ra,64(sp)
   89688:	dc400f17 	ldw	r17,60(sp)
   8968c:	dc000e17 	ldw	r16,56(sp)
   89690:	dec01104 	addi	sp,sp,68
   89694:	f800283a 	ret

00089698 <__floatsidf>:
   89698:	2006d7fa 	srli	r3,r4,31
   8969c:	defff604 	addi	sp,sp,-40
   896a0:	008000c4 	movi	r2,3
   896a4:	dfc00915 	stw	ra,36(sp)
   896a8:	dcc00815 	stw	r19,32(sp)
   896ac:	dc800715 	stw	r18,28(sp)
   896b0:	dc400615 	stw	r17,24(sp)
   896b4:	dc000515 	stw	r16,20(sp)
   896b8:	d8800015 	stw	r2,0(sp)
   896bc:	d8c00115 	stw	r3,4(sp)
   896c0:	20000f1e 	bne	r4,zero,89700 <__floatsidf+0x68>
   896c4:	00800084 	movi	r2,2
   896c8:	d8800015 	stw	r2,0(sp)
   896cc:	d809883a 	mov	r4,sp
   896d0:	0089a7c0 	call	89a7c <__pack_d>
   896d4:	1009883a 	mov	r4,r2
   896d8:	180b883a 	mov	r5,r3
   896dc:	2005883a 	mov	r2,r4
   896e0:	2807883a 	mov	r3,r5
   896e4:	dfc00917 	ldw	ra,36(sp)
   896e8:	dcc00817 	ldw	r19,32(sp)
   896ec:	dc800717 	ldw	r18,28(sp)
   896f0:	dc400617 	ldw	r17,24(sp)
   896f4:	dc000517 	ldw	r16,20(sp)
   896f8:	dec00a04 	addi	sp,sp,40
   896fc:	f800283a 	ret
   89700:	00800f04 	movi	r2,60
   89704:	1807003a 	cmpeq	r3,r3,zero
   89708:	d8800215 	stw	r2,8(sp)
   8970c:	18001126 	beq	r3,zero,89754 <__floatsidf+0xbc>
   89710:	0027883a 	mov	r19,zero
   89714:	2025883a 	mov	r18,r4
   89718:	d9000315 	stw	r4,12(sp)
   8971c:	dcc00415 	stw	r19,16(sp)
   89720:	00899fc0 	call	899fc <__clzsi2>
   89724:	11000744 	addi	r4,r2,29
   89728:	013fe80e 	bge	zero,r4,896cc <__floatsidf+0x34>
   8972c:	10bfff44 	addi	r2,r2,-3
   89730:	10000c16 	blt	r2,zero,89764 <__floatsidf+0xcc>
   89734:	90a2983a 	sll	r17,r18,r2
   89738:	0021883a 	mov	r16,zero
   8973c:	d8800217 	ldw	r2,8(sp)
   89740:	dc400415 	stw	r17,16(sp)
   89744:	dc000315 	stw	r16,12(sp)
   89748:	1105c83a 	sub	r2,r2,r4
   8974c:	d8800215 	stw	r2,8(sp)
   89750:	003fde06 	br	896cc <__floatsidf+0x34>
   89754:	00a00034 	movhi	r2,32768
   89758:	20800a26 	beq	r4,r2,89784 <__floatsidf+0xec>
   8975c:	0109c83a 	sub	r4,zero,r4
   89760:	003feb06 	br	89710 <__floatsidf+0x78>
   89764:	9006d07a 	srli	r3,r18,1
   89768:	008007c4 	movi	r2,31
   8976c:	1105c83a 	sub	r2,r2,r4
   89770:	1886d83a 	srl	r3,r3,r2
   89774:	9922983a 	sll	r17,r19,r4
   89778:	9120983a 	sll	r16,r18,r4
   8977c:	1c62b03a 	or	r17,r3,r17
   89780:	003fee06 	br	8973c <__floatsidf+0xa4>
   89784:	0009883a 	mov	r4,zero
   89788:	01707834 	movhi	r5,49632
   8978c:	003fd306 	br	896dc <__floatsidf+0x44>

00089790 <__fixdfsi>:
   89790:	defff804 	addi	sp,sp,-32
   89794:	2005883a 	mov	r2,r4
   89798:	2807883a 	mov	r3,r5
   8979c:	d809883a 	mov	r4,sp
   897a0:	d9400204 	addi	r5,sp,8
   897a4:	d8c00115 	stw	r3,4(sp)
   897a8:	d8800015 	stw	r2,0(sp)
   897ac:	dfc00715 	stw	ra,28(sp)
   897b0:	0089d900 	call	89d90 <__unpack_d>
   897b4:	d8c00217 	ldw	r3,8(sp)
   897b8:	00800084 	movi	r2,2
   897bc:	1880051e 	bne	r3,r2,897d4 <__fixdfsi+0x44>
   897c0:	0007883a 	mov	r3,zero
   897c4:	1805883a 	mov	r2,r3
   897c8:	dfc00717 	ldw	ra,28(sp)
   897cc:	dec00804 	addi	sp,sp,32
   897d0:	f800283a 	ret
   897d4:	00800044 	movi	r2,1
   897d8:	10fff92e 	bgeu	r2,r3,897c0 <__fixdfsi+0x30>
   897dc:	00800104 	movi	r2,4
   897e0:	18800426 	beq	r3,r2,897f4 <__fixdfsi+0x64>
   897e4:	d8c00417 	ldw	r3,16(sp)
   897e8:	183ff516 	blt	r3,zero,897c0 <__fixdfsi+0x30>
   897ec:	00800784 	movi	r2,30
   897f0:	10c0080e 	bge	r2,r3,89814 <__fixdfsi+0x84>
   897f4:	d8800317 	ldw	r2,12(sp)
   897f8:	1000121e 	bne	r2,zero,89844 <__fixdfsi+0xb4>
   897fc:	00e00034 	movhi	r3,32768
   89800:	18ffffc4 	addi	r3,r3,-1
   89804:	1805883a 	mov	r2,r3
   89808:	dfc00717 	ldw	ra,28(sp)
   8980c:	dec00804 	addi	sp,sp,32
   89810:	f800283a 	ret
   89814:	00800f04 	movi	r2,60
   89818:	10d1c83a 	sub	r8,r2,r3
   8981c:	40bff804 	addi	r2,r8,-32
   89820:	d9800517 	ldw	r6,20(sp)
   89824:	d9c00617 	ldw	r7,24(sp)
   89828:	10000816 	blt	r2,zero,8984c <__fixdfsi+0xbc>
   8982c:	3888d83a 	srl	r4,r7,r2
   89830:	d8800317 	ldw	r2,12(sp)
   89834:	2007883a 	mov	r3,r4
   89838:	103fe226 	beq	r2,zero,897c4 <__fixdfsi+0x34>
   8983c:	0107c83a 	sub	r3,zero,r4
   89840:	003fe006 	br	897c4 <__fixdfsi+0x34>
   89844:	00e00034 	movhi	r3,32768
   89848:	003fde06 	br	897c4 <__fixdfsi+0x34>
   8984c:	39c7883a 	add	r3,r7,r7
   89850:	008007c4 	movi	r2,31
   89854:	1205c83a 	sub	r2,r2,r8
   89858:	1886983a 	sll	r3,r3,r2
   8985c:	3208d83a 	srl	r4,r6,r8
   89860:	1908b03a 	or	r4,r3,r4
   89864:	003ff206 	br	89830 <__fixdfsi+0xa0>

00089868 <__floatunsidf>:
   89868:	defff204 	addi	sp,sp,-56
   8986c:	dfc00d15 	stw	ra,52(sp)
   89870:	ddc00c15 	stw	r23,48(sp)
   89874:	dd800b15 	stw	r22,44(sp)
   89878:	dd400a15 	stw	r21,40(sp)
   8987c:	dd000915 	stw	r20,36(sp)
   89880:	dcc00815 	stw	r19,32(sp)
   89884:	dc800715 	stw	r18,28(sp)
   89888:	dc400615 	stw	r17,24(sp)
   8988c:	dc000515 	stw	r16,20(sp)
   89890:	d8000115 	stw	zero,4(sp)
   89894:	20000f1e 	bne	r4,zero,898d4 <__floatunsidf+0x6c>
   89898:	00800084 	movi	r2,2
   8989c:	d8800015 	stw	r2,0(sp)
   898a0:	d809883a 	mov	r4,sp
   898a4:	0089a7c0 	call	89a7c <__pack_d>
   898a8:	dfc00d17 	ldw	ra,52(sp)
   898ac:	ddc00c17 	ldw	r23,48(sp)
   898b0:	dd800b17 	ldw	r22,44(sp)
   898b4:	dd400a17 	ldw	r21,40(sp)
   898b8:	dd000917 	ldw	r20,36(sp)
   898bc:	dcc00817 	ldw	r19,32(sp)
   898c0:	dc800717 	ldw	r18,28(sp)
   898c4:	dc400617 	ldw	r17,24(sp)
   898c8:	dc000517 	ldw	r16,20(sp)
   898cc:	dec00e04 	addi	sp,sp,56
   898d0:	f800283a 	ret
   898d4:	008000c4 	movi	r2,3
   898d8:	00c00f04 	movi	r3,60
   898dc:	002f883a 	mov	r23,zero
   898e0:	202d883a 	mov	r22,r4
   898e4:	d8800015 	stw	r2,0(sp)
   898e8:	d8c00215 	stw	r3,8(sp)
   898ec:	d9000315 	stw	r4,12(sp)
   898f0:	ddc00415 	stw	r23,16(sp)
   898f4:	00899fc0 	call	899fc <__clzsi2>
   898f8:	12400744 	addi	r9,r2,29
   898fc:	48000b16 	blt	r9,zero,8992c <__floatunsidf+0xc4>
   89900:	483fe726 	beq	r9,zero,898a0 <__floatunsidf+0x38>
   89904:	10bfff44 	addi	r2,r2,-3
   89908:	10002e16 	blt	r2,zero,899c4 <__floatunsidf+0x15c>
   8990c:	b0a2983a 	sll	r17,r22,r2
   89910:	0021883a 	mov	r16,zero
   89914:	d8800217 	ldw	r2,8(sp)
   89918:	dc400415 	stw	r17,16(sp)
   8991c:	dc000315 	stw	r16,12(sp)
   89920:	1245c83a 	sub	r2,r2,r9
   89924:	d8800215 	stw	r2,8(sp)
   89928:	003fdd06 	br	898a0 <__floatunsidf+0x38>
   8992c:	0255c83a 	sub	r10,zero,r9
   89930:	51bff804 	addi	r6,r10,-32
   89934:	30001b16 	blt	r6,zero,899a4 <__floatunsidf+0x13c>
   89938:	b9a8d83a 	srl	r20,r23,r6
   8993c:	002b883a 	mov	r21,zero
   89940:	000f883a 	mov	r7,zero
   89944:	01000044 	movi	r4,1
   89948:	0011883a 	mov	r8,zero
   8994c:	30002516 	blt	r6,zero,899e4 <__floatunsidf+0x17c>
   89950:	21a6983a 	sll	r19,r4,r6
   89954:	0025883a 	mov	r18,zero
   89958:	00bfffc4 	movi	r2,-1
   8995c:	9089883a 	add	r4,r18,r2
   89960:	988b883a 	add	r5,r19,r2
   89964:	248d803a 	cmpltu	r6,r4,r18
   89968:	314b883a 	add	r5,r6,r5
   8996c:	b104703a 	and	r2,r22,r4
   89970:	b946703a 	and	r3,r23,r5
   89974:	10c4b03a 	or	r2,r2,r3
   89978:	10000226 	beq	r2,zero,89984 <__floatunsidf+0x11c>
   8997c:	01c00044 	movi	r7,1
   89980:	0011883a 	mov	r8,zero
   89984:	d9000217 	ldw	r4,8(sp)
   89988:	a1c4b03a 	or	r2,r20,r7
   8998c:	aa06b03a 	or	r3,r21,r8
   89990:	2249c83a 	sub	r4,r4,r9
   89994:	d8c00415 	stw	r3,16(sp)
   89998:	d9000215 	stw	r4,8(sp)
   8999c:	d8800315 	stw	r2,12(sp)
   899a0:	003fbf06 	br	898a0 <__floatunsidf+0x38>
   899a4:	bdc7883a 	add	r3,r23,r23
   899a8:	008007c4 	movi	r2,31
   899ac:	1285c83a 	sub	r2,r2,r10
   899b0:	1886983a 	sll	r3,r3,r2
   899b4:	b2a8d83a 	srl	r20,r22,r10
   899b8:	baaad83a 	srl	r21,r23,r10
   899bc:	1d28b03a 	or	r20,r3,r20
   899c0:	003fdf06 	br	89940 <__floatunsidf+0xd8>
   899c4:	b006d07a 	srli	r3,r22,1
   899c8:	008007c4 	movi	r2,31
   899cc:	1245c83a 	sub	r2,r2,r9
   899d0:	1886d83a 	srl	r3,r3,r2
   899d4:	ba62983a 	sll	r17,r23,r9
   899d8:	b260983a 	sll	r16,r22,r9
   899dc:	1c62b03a 	or	r17,r3,r17
   899e0:	003fcc06 	br	89914 <__floatunsidf+0xac>
   899e4:	2006d07a 	srli	r3,r4,1
   899e8:	008007c4 	movi	r2,31
   899ec:	1285c83a 	sub	r2,r2,r10
   899f0:	18a6d83a 	srl	r19,r3,r2
   899f4:	22a4983a 	sll	r18,r4,r10
   899f8:	003fd706 	br	89958 <__floatunsidf+0xf0>

000899fc <__clzsi2>:
   899fc:	00bfffd4 	movui	r2,65535
   89a00:	11000e36 	bltu	r2,r4,89a3c <__clzsi2+0x40>
   89a04:	00803fc4 	movi	r2,255
   89a08:	01400204 	movi	r5,8
   89a0c:	0007883a 	mov	r3,zero
   89a10:	11001036 	bltu	r2,r4,89a54 <__clzsi2+0x58>
   89a14:	000b883a 	mov	r5,zero
   89a18:	20c6d83a 	srl	r3,r4,r3
   89a1c:	00800274 	movhi	r2,9
   89a20:	10a8bb04 	addi	r2,r2,-23828
   89a24:	1887883a 	add	r3,r3,r2
   89a28:	18800003 	ldbu	r2,0(r3)
   89a2c:	00c00804 	movi	r3,32
   89a30:	2885883a 	add	r2,r5,r2
   89a34:	1885c83a 	sub	r2,r3,r2
   89a38:	f800283a 	ret
   89a3c:	01400404 	movi	r5,16
   89a40:	00804034 	movhi	r2,256
   89a44:	10bfffc4 	addi	r2,r2,-1
   89a48:	2807883a 	mov	r3,r5
   89a4c:	113ff22e 	bgeu	r2,r4,89a18 <__clzsi2+0x1c>
   89a50:	01400604 	movi	r5,24
   89a54:	2807883a 	mov	r3,r5
   89a58:	20c6d83a 	srl	r3,r4,r3
   89a5c:	00800274 	movhi	r2,9
   89a60:	10a8bb04 	addi	r2,r2,-23828
   89a64:	1887883a 	add	r3,r3,r2
   89a68:	18800003 	ldbu	r2,0(r3)
   89a6c:	00c00804 	movi	r3,32
   89a70:	2885883a 	add	r2,r5,r2
   89a74:	1885c83a 	sub	r2,r3,r2
   89a78:	f800283a 	ret

00089a7c <__pack_d>:
   89a7c:	20c00017 	ldw	r3,0(r4)
   89a80:	defffd04 	addi	sp,sp,-12
   89a84:	dc000015 	stw	r16,0(sp)
   89a88:	dc800215 	stw	r18,8(sp)
   89a8c:	dc400115 	stw	r17,4(sp)
   89a90:	00800044 	movi	r2,1
   89a94:	22000317 	ldw	r8,12(r4)
   89a98:	001f883a 	mov	r15,zero
   89a9c:	22400417 	ldw	r9,16(r4)
   89aa0:	24000117 	ldw	r16,4(r4)
   89aa4:	10c0552e 	bgeu	r2,r3,89bfc <__pack_d+0x180>
   89aa8:	00800104 	movi	r2,4
   89aac:	18804f26 	beq	r3,r2,89bec <__pack_d+0x170>
   89ab0:	00800084 	movi	r2,2
   89ab4:	18800226 	beq	r3,r2,89ac0 <__pack_d+0x44>
   89ab8:	4244b03a 	or	r2,r8,r9
   89abc:	10001a1e 	bne	r2,zero,89b28 <__pack_d+0xac>
   89ac0:	000d883a 	mov	r6,zero
   89ac4:	000f883a 	mov	r7,zero
   89ac8:	0011883a 	mov	r8,zero
   89acc:	00800434 	movhi	r2,16
   89ad0:	10bfffc4 	addi	r2,r2,-1
   89ad4:	301d883a 	mov	r14,r6
   89ad8:	3884703a 	and	r2,r7,r2
   89adc:	400a953a 	slli	r5,r8,20
   89ae0:	79bffc2c 	andhi	r6,r15,65520
   89ae4:	308cb03a 	or	r6,r6,r2
   89ae8:	00e00434 	movhi	r3,32784
   89aec:	18ffffc4 	addi	r3,r3,-1
   89af0:	800497fa 	slli	r2,r16,31
   89af4:	30c6703a 	and	r3,r6,r3
   89af8:	1946b03a 	or	r3,r3,r5
   89afc:	01600034 	movhi	r5,32768
   89b00:	297fffc4 	addi	r5,r5,-1
   89b04:	194a703a 	and	r5,r3,r5
   89b08:	288ab03a 	or	r5,r5,r2
   89b0c:	2807883a 	mov	r3,r5
   89b10:	7005883a 	mov	r2,r14
   89b14:	dc800217 	ldw	r18,8(sp)
   89b18:	dc400117 	ldw	r17,4(sp)
   89b1c:	dc000017 	ldw	r16,0(sp)
   89b20:	dec00304 	addi	sp,sp,12
   89b24:	f800283a 	ret
   89b28:	21000217 	ldw	r4,8(r4)
   89b2c:	00bf0084 	movi	r2,-1022
   89b30:	20803f16 	blt	r4,r2,89c30 <__pack_d+0x1b4>
   89b34:	0080ffc4 	movi	r2,1023
   89b38:	11002c16 	blt	r2,r4,89bec <__pack_d+0x170>
   89b3c:	00803fc4 	movi	r2,255
   89b40:	408c703a 	and	r6,r8,r2
   89b44:	00802004 	movi	r2,128
   89b48:	0007883a 	mov	r3,zero
   89b4c:	000f883a 	mov	r7,zero
   89b50:	2280ffc4 	addi	r10,r4,1023
   89b54:	30801e26 	beq	r6,r2,89bd0 <__pack_d+0x154>
   89b58:	00801fc4 	movi	r2,127
   89b5c:	4089883a 	add	r4,r8,r2
   89b60:	220d803a 	cmpltu	r6,r4,r8
   89b64:	324d883a 	add	r6,r6,r9
   89b68:	2011883a 	mov	r8,r4
   89b6c:	3013883a 	mov	r9,r6
   89b70:	00880034 	movhi	r2,8192
   89b74:	10bfffc4 	addi	r2,r2,-1
   89b78:	12400d36 	bltu	r2,r9,89bb0 <__pack_d+0x134>
   89b7c:	4804963a 	slli	r2,r9,24
   89b80:	400cd23a 	srli	r6,r8,8
   89b84:	480ed23a 	srli	r7,r9,8
   89b88:	013fffc4 	movi	r4,-1
   89b8c:	118cb03a 	or	r6,r2,r6
   89b90:	01400434 	movhi	r5,16
   89b94:	297fffc4 	addi	r5,r5,-1
   89b98:	3104703a 	and	r2,r6,r4
   89b9c:	3946703a 	and	r3,r7,r5
   89ba0:	5201ffcc 	andi	r8,r10,2047
   89ba4:	100d883a 	mov	r6,r2
   89ba8:	180f883a 	mov	r7,r3
   89bac:	003fc706 	br	89acc <__pack_d+0x50>
   89bb0:	480897fa 	slli	r4,r9,31
   89bb4:	4004d07a 	srli	r2,r8,1
   89bb8:	4806d07a 	srli	r3,r9,1
   89bbc:	52800044 	addi	r10,r10,1
   89bc0:	2084b03a 	or	r2,r4,r2
   89bc4:	1011883a 	mov	r8,r2
   89bc8:	1813883a 	mov	r9,r3
   89bcc:	003feb06 	br	89b7c <__pack_d+0x100>
   89bd0:	383fe11e 	bne	r7,zero,89b58 <__pack_d+0xdc>
   89bd4:	01004004 	movi	r4,256
   89bd8:	4104703a 	and	r2,r8,r4
   89bdc:	10c4b03a 	or	r2,r2,r3
   89be0:	103fe326 	beq	r2,zero,89b70 <__pack_d+0xf4>
   89be4:	3005883a 	mov	r2,r6
   89be8:	003fdc06 	br	89b5c <__pack_d+0xe0>
   89bec:	000d883a 	mov	r6,zero
   89bf0:	000f883a 	mov	r7,zero
   89bf4:	0201ffc4 	movi	r8,2047
   89bf8:	003fb406 	br	89acc <__pack_d+0x50>
   89bfc:	0005883a 	mov	r2,zero
   89c00:	00c00234 	movhi	r3,8
   89c04:	408cb03a 	or	r6,r8,r2
   89c08:	48ceb03a 	or	r7,r9,r3
   89c0c:	013fffc4 	movi	r4,-1
   89c10:	01400434 	movhi	r5,16
   89c14:	297fffc4 	addi	r5,r5,-1
   89c18:	3104703a 	and	r2,r6,r4
   89c1c:	3946703a 	and	r3,r7,r5
   89c20:	100d883a 	mov	r6,r2
   89c24:	180f883a 	mov	r7,r3
   89c28:	0201ffc4 	movi	r8,2047
   89c2c:	003fa706 	br	89acc <__pack_d+0x50>
   89c30:	1109c83a 	sub	r4,r2,r4
   89c34:	00800e04 	movi	r2,56
   89c38:	11004316 	blt	r2,r4,89d48 <__pack_d+0x2cc>
   89c3c:	21fff804 	addi	r7,r4,-32
   89c40:	38004516 	blt	r7,zero,89d58 <__pack_d+0x2dc>
   89c44:	49d8d83a 	srl	r12,r9,r7
   89c48:	001b883a 	mov	r13,zero
   89c4c:	0023883a 	mov	r17,zero
   89c50:	01400044 	movi	r5,1
   89c54:	0025883a 	mov	r18,zero
   89c58:	38004716 	blt	r7,zero,89d78 <__pack_d+0x2fc>
   89c5c:	29d6983a 	sll	r11,r5,r7
   89c60:	0015883a 	mov	r10,zero
   89c64:	00bfffc4 	movi	r2,-1
   89c68:	5089883a 	add	r4,r10,r2
   89c6c:	588b883a 	add	r5,r11,r2
   89c70:	228d803a 	cmpltu	r6,r4,r10
   89c74:	314b883a 	add	r5,r6,r5
   89c78:	4104703a 	and	r2,r8,r4
   89c7c:	4946703a 	and	r3,r9,r5
   89c80:	10c4b03a 	or	r2,r2,r3
   89c84:	10000226 	beq	r2,zero,89c90 <__pack_d+0x214>
   89c88:	04400044 	movi	r17,1
   89c8c:	0025883a 	mov	r18,zero
   89c90:	00803fc4 	movi	r2,255
   89c94:	644eb03a 	or	r7,r12,r17
   89c98:	3892703a 	and	r9,r7,r2
   89c9c:	00802004 	movi	r2,128
   89ca0:	6c90b03a 	or	r8,r13,r18
   89ca4:	0015883a 	mov	r10,zero
   89ca8:	48801626 	beq	r9,r2,89d04 <__pack_d+0x288>
   89cac:	01001fc4 	movi	r4,127
   89cb0:	3905883a 	add	r2,r7,r4
   89cb4:	11cd803a 	cmpltu	r6,r2,r7
   89cb8:	320d883a 	add	r6,r6,r8
   89cbc:	100f883a 	mov	r7,r2
   89cc0:	00840034 	movhi	r2,4096
   89cc4:	10bfffc4 	addi	r2,r2,-1
   89cc8:	3011883a 	mov	r8,r6
   89ccc:	0007883a 	mov	r3,zero
   89cd0:	11801b36 	bltu	r2,r6,89d40 <__pack_d+0x2c4>
   89cd4:	4004963a 	slli	r2,r8,24
   89cd8:	3808d23a 	srli	r4,r7,8
   89cdc:	400ad23a 	srli	r5,r8,8
   89ce0:	1813883a 	mov	r9,r3
   89ce4:	1108b03a 	or	r4,r2,r4
   89ce8:	00bfffc4 	movi	r2,-1
   89cec:	00c00434 	movhi	r3,16
   89cf0:	18ffffc4 	addi	r3,r3,-1
   89cf4:	208c703a 	and	r6,r4,r2
   89cf8:	28ce703a 	and	r7,r5,r3
   89cfc:	4a01ffcc 	andi	r8,r9,2047
   89d00:	003f7206 	br	89acc <__pack_d+0x50>
   89d04:	503fe91e 	bne	r10,zero,89cac <__pack_d+0x230>
   89d08:	01004004 	movi	r4,256
   89d0c:	3904703a 	and	r2,r7,r4
   89d10:	0007883a 	mov	r3,zero
   89d14:	10c4b03a 	or	r2,r2,r3
   89d18:	10000626 	beq	r2,zero,89d34 <__pack_d+0x2b8>
   89d1c:	3a45883a 	add	r2,r7,r9
   89d20:	11cd803a 	cmpltu	r6,r2,r7
   89d24:	320d883a 	add	r6,r6,r8
   89d28:	100f883a 	mov	r7,r2
   89d2c:	3011883a 	mov	r8,r6
   89d30:	0007883a 	mov	r3,zero
   89d34:	00840034 	movhi	r2,4096
   89d38:	10bfffc4 	addi	r2,r2,-1
   89d3c:	123fe52e 	bgeu	r2,r8,89cd4 <__pack_d+0x258>
   89d40:	00c00044 	movi	r3,1
   89d44:	003fe306 	br	89cd4 <__pack_d+0x258>
   89d48:	0009883a 	mov	r4,zero
   89d4c:	0013883a 	mov	r9,zero
   89d50:	000b883a 	mov	r5,zero
   89d54:	003fe406 	br	89ce8 <__pack_d+0x26c>
   89d58:	4a47883a 	add	r3,r9,r9
   89d5c:	008007c4 	movi	r2,31
   89d60:	1105c83a 	sub	r2,r2,r4
   89d64:	1886983a 	sll	r3,r3,r2
   89d68:	4118d83a 	srl	r12,r8,r4
   89d6c:	491ad83a 	srl	r13,r9,r4
   89d70:	1b18b03a 	or	r12,r3,r12
   89d74:	003fb506 	br	89c4c <__pack_d+0x1d0>
   89d78:	2806d07a 	srli	r3,r5,1
   89d7c:	008007c4 	movi	r2,31
   89d80:	1105c83a 	sub	r2,r2,r4
   89d84:	1896d83a 	srl	r11,r3,r2
   89d88:	2914983a 	sll	r10,r5,r4
   89d8c:	003fb506 	br	89c64 <__pack_d+0x1e8>

00089d90 <__unpack_d>:
   89d90:	20c00117 	ldw	r3,4(r4)
   89d94:	22400017 	ldw	r9,0(r4)
   89d98:	00800434 	movhi	r2,16
   89d9c:	10bfffc4 	addi	r2,r2,-1
   89da0:	1808d53a 	srli	r4,r3,20
   89da4:	180cd7fa 	srli	r6,r3,31
   89da8:	1894703a 	and	r10,r3,r2
   89dac:	2201ffcc 	andi	r8,r4,2047
   89db0:	281b883a 	mov	r13,r5
   89db4:	4817883a 	mov	r11,r9
   89db8:	29800115 	stw	r6,4(r5)
   89dbc:	5019883a 	mov	r12,r10
   89dc0:	40001e1e 	bne	r8,zero,89e3c <__unpack_d+0xac>
   89dc4:	4a84b03a 	or	r2,r9,r10
   89dc8:	10001926 	beq	r2,zero,89e30 <__unpack_d+0xa0>
   89dcc:	4804d63a 	srli	r2,r9,24
   89dd0:	500c923a 	slli	r6,r10,8
   89dd4:	013f0084 	movi	r4,-1022
   89dd8:	00c40034 	movhi	r3,4096
   89ddc:	18ffffc4 	addi	r3,r3,-1
   89de0:	118cb03a 	or	r6,r2,r6
   89de4:	008000c4 	movi	r2,3
   89de8:	480a923a 	slli	r5,r9,8
   89dec:	68800015 	stw	r2,0(r13)
   89df0:	69000215 	stw	r4,8(r13)
   89df4:	19800b36 	bltu	r3,r6,89e24 <__unpack_d+0x94>
   89df8:	200f883a 	mov	r7,r4
   89dfc:	1811883a 	mov	r8,r3
   89e00:	2945883a 	add	r2,r5,r5
   89e04:	1149803a 	cmpltu	r4,r2,r5
   89e08:	3187883a 	add	r3,r6,r6
   89e0c:	20c9883a 	add	r4,r4,r3
   89e10:	100b883a 	mov	r5,r2
   89e14:	200d883a 	mov	r6,r4
   89e18:	39ffffc4 	addi	r7,r7,-1
   89e1c:	413ff82e 	bgeu	r8,r4,89e00 <__unpack_d+0x70>
   89e20:	69c00215 	stw	r7,8(r13)
   89e24:	69800415 	stw	r6,16(r13)
   89e28:	69400315 	stw	r5,12(r13)
   89e2c:	f800283a 	ret
   89e30:	00800084 	movi	r2,2
   89e34:	28800015 	stw	r2,0(r5)
   89e38:	f800283a 	ret
   89e3c:	0081ffc4 	movi	r2,2047
   89e40:	40800f26 	beq	r8,r2,89e80 <__unpack_d+0xf0>
   89e44:	480cd63a 	srli	r6,r9,24
   89e48:	5006923a 	slli	r3,r10,8
   89e4c:	4804923a 	slli	r2,r9,8
   89e50:	0009883a 	mov	r4,zero
   89e54:	30c6b03a 	or	r3,r6,r3
   89e58:	01440034 	movhi	r5,4096
   89e5c:	110cb03a 	or	r6,r2,r4
   89e60:	423f0044 	addi	r8,r8,-1023
   89e64:	194eb03a 	or	r7,r3,r5
   89e68:	008000c4 	movi	r2,3
   89e6c:	69c00415 	stw	r7,16(r13)
   89e70:	6a000215 	stw	r8,8(r13)
   89e74:	68800015 	stw	r2,0(r13)
   89e78:	69800315 	stw	r6,12(r13)
   89e7c:	f800283a 	ret
   89e80:	4a84b03a 	or	r2,r9,r10
   89e84:	1000031e 	bne	r2,zero,89e94 <__unpack_d+0x104>
   89e88:	00800104 	movi	r2,4
   89e8c:	28800015 	stw	r2,0(r5)
   89e90:	f800283a 	ret
   89e94:	0009883a 	mov	r4,zero
   89e98:	01400234 	movhi	r5,8
   89e9c:	4904703a 	and	r2,r9,r4
   89ea0:	5146703a 	and	r3,r10,r5
   89ea4:	10c4b03a 	or	r2,r2,r3
   89ea8:	10000526 	beq	r2,zero,89ec0 <__unpack_d+0x130>
   89eac:	00800044 	movi	r2,1
   89eb0:	68800015 	stw	r2,0(r13)
   89eb4:	6b000415 	stw	r12,16(r13)
   89eb8:	6ac00315 	stw	r11,12(r13)
   89ebc:	f800283a 	ret
   89ec0:	68000015 	stw	zero,0(r13)
   89ec4:	003ffb06 	br	89eb4 <__unpack_d+0x124>

00089ec8 <__fpcmp_parts_d>:
   89ec8:	21800017 	ldw	r6,0(r4)
   89ecc:	00c00044 	movi	r3,1
   89ed0:	19800a2e 	bgeu	r3,r6,89efc <__fpcmp_parts_d+0x34>
   89ed4:	28800017 	ldw	r2,0(r5)
   89ed8:	1880082e 	bgeu	r3,r2,89efc <__fpcmp_parts_d+0x34>
   89edc:	00c00104 	movi	r3,4
   89ee0:	30c02626 	beq	r6,r3,89f7c <__fpcmp_parts_d+0xb4>
   89ee4:	10c02226 	beq	r2,r3,89f70 <__fpcmp_parts_d+0xa8>
   89ee8:	00c00084 	movi	r3,2
   89eec:	30c00526 	beq	r6,r3,89f04 <__fpcmp_parts_d+0x3c>
   89ef0:	10c0071e 	bne	r2,r3,89f10 <__fpcmp_parts_d+0x48>
   89ef4:	20800117 	ldw	r2,4(r4)
   89ef8:	1000091e 	bne	r2,zero,89f20 <__fpcmp_parts_d+0x58>
   89efc:	00800044 	movi	r2,1
   89f00:	f800283a 	ret
   89f04:	10c01a1e 	bne	r2,r3,89f70 <__fpcmp_parts_d+0xa8>
   89f08:	0005883a 	mov	r2,zero
   89f0c:	f800283a 	ret
   89f10:	22000117 	ldw	r8,4(r4)
   89f14:	28800117 	ldw	r2,4(r5)
   89f18:	40800326 	beq	r8,r2,89f28 <__fpcmp_parts_d+0x60>
   89f1c:	403ff726 	beq	r8,zero,89efc <__fpcmp_parts_d+0x34>
   89f20:	00bfffc4 	movi	r2,-1
   89f24:	f800283a 	ret
   89f28:	20c00217 	ldw	r3,8(r4)
   89f2c:	28800217 	ldw	r2,8(r5)
   89f30:	10fffa16 	blt	r2,r3,89f1c <__fpcmp_parts_d+0x54>
   89f34:	18800916 	blt	r3,r2,89f5c <__fpcmp_parts_d+0x94>
   89f38:	21c00417 	ldw	r7,16(r4)
   89f3c:	28c00417 	ldw	r3,16(r5)
   89f40:	21800317 	ldw	r6,12(r4)
   89f44:	28800317 	ldw	r2,12(r5)
   89f48:	19fff436 	bltu	r3,r7,89f1c <__fpcmp_parts_d+0x54>
   89f4c:	38c00526 	beq	r7,r3,89f64 <__fpcmp_parts_d+0x9c>
   89f50:	38c00236 	bltu	r7,r3,89f5c <__fpcmp_parts_d+0x94>
   89f54:	19ffec1e 	bne	r3,r7,89f08 <__fpcmp_parts_d+0x40>
   89f58:	30bfeb2e 	bgeu	r6,r2,89f08 <__fpcmp_parts_d+0x40>
   89f5c:	403fe71e 	bne	r8,zero,89efc <__fpcmp_parts_d+0x34>
   89f60:	003fef06 	br	89f20 <__fpcmp_parts_d+0x58>
   89f64:	11bffa2e 	bgeu	r2,r6,89f50 <__fpcmp_parts_d+0x88>
   89f68:	403fe426 	beq	r8,zero,89efc <__fpcmp_parts_d+0x34>
   89f6c:	003fec06 	br	89f20 <__fpcmp_parts_d+0x58>
   89f70:	28800117 	ldw	r2,4(r5)
   89f74:	103fe11e 	bne	r2,zero,89efc <__fpcmp_parts_d+0x34>
   89f78:	003fe906 	br	89f20 <__fpcmp_parts_d+0x58>
   89f7c:	11bfdd1e 	bne	r2,r6,89ef4 <__fpcmp_parts_d+0x2c>
   89f80:	28c00117 	ldw	r3,4(r5)
   89f84:	20800117 	ldw	r2,4(r4)
   89f88:	1885c83a 	sub	r2,r3,r2
   89f8c:	f800283a 	ret

00089f90 <_exit>:
   89f90:	008002b4 	movhi	r2,10
   89f94:	108c8d04 	addi	r2,r2,12852
   89f98:	10000005 	stb	zero,0(r2)
   89f9c:	20000226 	beq	r4,zero,89fa8 <_exit+0x18>
   89fa0:	002af070 	cmpltui	zero,zero,43969
   89fa4:	00000106 	br	89fac <_exit+0x1c>
   89fa8:	002af0b0 	cmpltui	zero,zero,43970
   89fac:	003fff06 	br	89fac <_exit+0x1c>
   89fb0:	000880fc 	xorhi	zero,zero,8707
